
stm32f411_boot.elf:     file format elf32-littlearm

Sections:
Idx Name          Size      VMA       LMA       File off  Algn
  0 .isr_vector   00000198  08000000  08000000  00001000  2**0
                  CONTENTS, ALLOC, LOAD, READONLY, DATA
  1 .text         00008754  080001a0  080001a0  000011a0  2**4
                  CONTENTS, ALLOC, LOAD, READONLY, CODE
  2 .rodata       00000750  080088f8  080088f8  000098f8  2**3
                  CONTENTS, ALLOC, LOAD, READONLY, DATA
  3 .ARM.extab    00000000  08009048  08009048  0000b2e0  2**0
                  CONTENTS
  4 .ARM          00000008  08009048  08009048  0000a048  2**2
                  CONTENTS, ALLOC, LOAD, READONLY, DATA
  5 .preinit_array 00000000  08009050  08009050  0000b2e0  2**0
                  CONTENTS, ALLOC, LOAD, DATA
  6 .init_array   00000004  08009050  08009050  0000a050  2**2
                  CONTENTS, ALLOC, LOAD, DATA
  7 .fini_array   00000004  08009054  08009054  0000a054  2**2
                  CONTENTS, ALLOC, LOAD, DATA
  8 .data         000002e0  20000000  08009058  0000b000  2**2
                  CONTENTS, ALLOC, LOAD, DATA
  9 .bss          00001dc4  200002e0  08009338  0000b2e0  2**2
                  ALLOC
 10 ._user_heap_stack 00000604  200020a4  08009338  0000c0a4  2**0
                  ALLOC
 11 .ARM.attributes 00000030  00000000  00000000  0000b2e0  2**0
                  CONTENTS, READONLY
 12 .debug_info   0001646e  00000000  00000000  0000b310  2**0
                  CONTENTS, READONLY, DEBUGGING, OCTETS
 13 .debug_abbrev 0000546e  00000000  00000000  0002177e  2**0
                  CONTENTS, READONLY, DEBUGGING, OCTETS
 14 .debug_loclists 000073f1  00000000  00000000  00026bec  2**0
                  CONTENTS, READONLY, DEBUGGING, OCTETS
 15 .debug_aranges 00000f50  00000000  00000000  0002dfe0  2**3
                  CONTENTS, READONLY, DEBUGGING, OCTETS
 16 .debug_rnglists 00000efb  00000000  00000000  0002ef30  2**0
                  CONTENTS, READONLY, DEBUGGING, OCTETS
 17 .debug_macro  0001c4b4  00000000  00000000  0002fe2b  2**0
                  CONTENTS, READONLY, DEBUGGING, OCTETS
 18 .debug_line   0001e43a  00000000  00000000  0004c2df  2**0
                  CONTENTS, READONLY, DEBUGGING, OCTETS
 19 .debug_str    0009088d  00000000  00000000  0006a719  2**0
                  CONTENTS, READONLY, DEBUGGING, OCTETS
 20 .comment      00000043  00000000  00000000  000fafa6  2**0
                  CONTENTS, READONLY
 21 .debug_frame  00003870  00000000  00000000  000fafec  2**2
                  CONTENTS, READONLY, DEBUGGING, OCTETS
 22 .debug_line_str 00000051  00000000  00000000  000fe85c  2**0
                  CONTENTS, READONLY, DEBUGGING, OCTETS

Disassembly of section .text:

080001a0 <__do_global_dtors_aux>:
 80001a0:	b510      	push	{r4, lr}
 80001a2:	4c05      	ldr	r4, [pc, #20]	@ (80001b8 <__do_global_dtors_aux+0x18>)
 80001a4:	7823      	ldrb	r3, [r4, #0]
 80001a6:	b933      	cbnz	r3, 80001b6 <__do_global_dtors_aux+0x16>
 80001a8:	4b04      	ldr	r3, [pc, #16]	@ (80001bc <__do_global_dtors_aux+0x1c>)
 80001aa:	b113      	cbz	r3, 80001b2 <__do_global_dtors_aux+0x12>
 80001ac:	4804      	ldr	r0, [pc, #16]	@ (80001c0 <__do_global_dtors_aux+0x20>)
 80001ae:	f3af 8000 	nop.w
 80001b2:	2301      	movs	r3, #1
 80001b4:	7023      	strb	r3, [r4, #0]
 80001b6:	bd10      	pop	{r4, pc}
 80001b8:	200002e0 	.word	0x200002e0
 80001bc:	00000000 	.word	0x00000000
 80001c0:	080088dc 	.word	0x080088dc

080001c4 <frame_dummy>:
 80001c4:	b508      	push	{r3, lr}
 80001c6:	4b03      	ldr	r3, [pc, #12]	@ (80001d4 <frame_dummy+0x10>)
 80001c8:	b11b      	cbz	r3, 80001d2 <frame_dummy+0xe>
 80001ca:	4903      	ldr	r1, [pc, #12]	@ (80001d8 <frame_dummy+0x14>)
 80001cc:	4803      	ldr	r0, [pc, #12]	@ (80001dc <frame_dummy+0x18>)
 80001ce:	f3af 8000 	nop.w
 80001d2:	bd08      	pop	{r3, pc}
 80001d4:	00000000 	.word	0x00000000
 80001d8:	200002e4 	.word	0x200002e4
 80001dc:	080088dc 	.word	0x080088dc

080001e0 <strcmp>:
 80001e0:	f810 2b01 	ldrb.w	r2, [r0], #1
 80001e4:	f811 3b01 	ldrb.w	r3, [r1], #1
 80001e8:	2a01      	cmp	r2, #1
 80001ea:	bf28      	it	cs
 80001ec:	429a      	cmpcs	r2, r3
 80001ee:	d0f7      	beq.n	80001e0 <strcmp>
 80001f0:	1ad0      	subs	r0, r2, r3
 80001f2:	4770      	bx	lr

080001f4 <strlen>:
 80001f4:	4603      	mov	r3, r0
 80001f6:	f813 2b01 	ldrb.w	r2, [r3], #1
 80001fa:	2a00      	cmp	r2, #0
 80001fc:	d1fb      	bne.n	80001f6 <strlen+0x2>
 80001fe:	1a18      	subs	r0, r3, r0
 8000200:	3801      	subs	r0, #1
 8000202:	4770      	bx	lr
	...

08000210 <memchr>:
 8000210:	f001 01ff 	and.w	r1, r1, #255	@ 0xff
 8000214:	2a10      	cmp	r2, #16
 8000216:	db2b      	blt.n	8000270 <memchr+0x60>
 8000218:	f010 0f07 	tst.w	r0, #7
 800021c:	d008      	beq.n	8000230 <memchr+0x20>
 800021e:	f810 3b01 	ldrb.w	r3, [r0], #1
 8000222:	3a01      	subs	r2, #1
 8000224:	428b      	cmp	r3, r1
 8000226:	d02d      	beq.n	8000284 <memchr+0x74>
 8000228:	f010 0f07 	tst.w	r0, #7
 800022c:	b342      	cbz	r2, 8000280 <memchr+0x70>
 800022e:	d1f6      	bne.n	800021e <memchr+0xe>
 8000230:	b4f0      	push	{r4, r5, r6, r7}
 8000232:	ea41 2101 	orr.w	r1, r1, r1, lsl #8
 8000236:	ea41 4101 	orr.w	r1, r1, r1, lsl #16
 800023a:	f022 0407 	bic.w	r4, r2, #7
 800023e:	f07f 0700 	mvns.w	r7, #0
 8000242:	2300      	movs	r3, #0
 8000244:	e8f0 5602 	ldrd	r5, r6, [r0], #8
 8000248:	3c08      	subs	r4, #8
 800024a:	ea85 0501 	eor.w	r5, r5, r1
 800024e:	ea86 0601 	eor.w	r6, r6, r1
 8000252:	fa85 f547 	uadd8	r5, r5, r7
 8000256:	faa3 f587 	sel	r5, r3, r7
 800025a:	fa86 f647 	uadd8	r6, r6, r7
 800025e:	faa5 f687 	sel	r6, r5, r7
 8000262:	b98e      	cbnz	r6, 8000288 <memchr+0x78>
 8000264:	d1ee      	bne.n	8000244 <memchr+0x34>
 8000266:	bcf0      	pop	{r4, r5, r6, r7}
 8000268:	f001 01ff 	and.w	r1, r1, #255	@ 0xff
 800026c:	f002 0207 	and.w	r2, r2, #7
 8000270:	b132      	cbz	r2, 8000280 <memchr+0x70>
 8000272:	f810 3b01 	ldrb.w	r3, [r0], #1
 8000276:	3a01      	subs	r2, #1
 8000278:	ea83 0301 	eor.w	r3, r3, r1
 800027c:	b113      	cbz	r3, 8000284 <memchr+0x74>
 800027e:	d1f8      	bne.n	8000272 <memchr+0x62>
 8000280:	2000      	movs	r0, #0
 8000282:	4770      	bx	lr
 8000284:	3801      	subs	r0, #1
 8000286:	4770      	bx	lr
 8000288:	2d00      	cmp	r5, #0
 800028a:	bf06      	itte	eq
 800028c:	4635      	moveq	r5, r6
 800028e:	3803      	subeq	r0, #3
 8000290:	3807      	subne	r0, #7
 8000292:	f015 0f01 	tst.w	r5, #1
 8000296:	d107      	bne.n	80002a8 <memchr+0x98>
 8000298:	3001      	adds	r0, #1
 800029a:	f415 7f80 	tst.w	r5, #256	@ 0x100
 800029e:	bf02      	ittt	eq
 80002a0:	3001      	addeq	r0, #1
 80002a2:	f415 3fc0 	tsteq.w	r5, #98304	@ 0x18000
 80002a6:	3001      	addeq	r0, #1
 80002a8:	bcf0      	pop	{r4, r5, r6, r7}
 80002aa:	3801      	subs	r0, #1
 80002ac:	4770      	bx	lr
 80002ae:	bf00      	nop

080002b0 <__aeabi_drsub>:
 80002b0:	f081 4100 	eor.w	r1, r1, #2147483648	@ 0x80000000
 80002b4:	e002      	b.n	80002bc <__adddf3>
 80002b6:	bf00      	nop

080002b8 <__aeabi_dsub>:
 80002b8:	f083 4300 	eor.w	r3, r3, #2147483648	@ 0x80000000

080002bc <__adddf3>:
 80002bc:	b530      	push	{r4, r5, lr}
 80002be:	ea4f 0441 	mov.w	r4, r1, lsl #1
 80002c2:	ea4f 0543 	mov.w	r5, r3, lsl #1
 80002c6:	ea94 0f05 	teq	r4, r5
 80002ca:	bf08      	it	eq
 80002cc:	ea90 0f02 	teqeq	r0, r2
 80002d0:	bf1f      	itttt	ne
 80002d2:	ea54 0c00 	orrsne.w	ip, r4, r0
 80002d6:	ea55 0c02 	orrsne.w	ip, r5, r2
 80002da:	ea7f 5c64 	mvnsne.w	ip, r4, asr #21
 80002de:	ea7f 5c65 	mvnsne.w	ip, r5, asr #21
 80002e2:	f000 80e2 	beq.w	80004aa <__adddf3+0x1ee>
 80002e6:	ea4f 5454 	mov.w	r4, r4, lsr #21
 80002ea:	ebd4 5555 	rsbs	r5, r4, r5, lsr #21
 80002ee:	bfb8      	it	lt
 80002f0:	426d      	neglt	r5, r5
 80002f2:	dd0c      	ble.n	800030e <__adddf3+0x52>
 80002f4:	442c      	add	r4, r5
 80002f6:	ea80 0202 	eor.w	r2, r0, r2
 80002fa:	ea81 0303 	eor.w	r3, r1, r3
 80002fe:	ea82 0000 	eor.w	r0, r2, r0
 8000302:	ea83 0101 	eor.w	r1, r3, r1
 8000306:	ea80 0202 	eor.w	r2, r0, r2
 800030a:	ea81 0303 	eor.w	r3, r1, r3
 800030e:	2d36      	cmp	r5, #54	@ 0x36
 8000310:	bf88      	it	hi
 8000312:	bd30      	pophi	{r4, r5, pc}
 8000314:	f011 4f00 	tst.w	r1, #2147483648	@ 0x80000000
 8000318:	ea4f 3101 	mov.w	r1, r1, lsl #12
 800031c:	f44f 1c80 	mov.w	ip, #1048576	@ 0x100000
 8000320:	ea4c 3111 	orr.w	r1, ip, r1, lsr #12
 8000324:	d002      	beq.n	800032c <__adddf3+0x70>
 8000326:	4240      	negs	r0, r0
 8000328:	eb61 0141 	sbc.w	r1, r1, r1, lsl #1
 800032c:	f013 4f00 	tst.w	r3, #2147483648	@ 0x80000000
 8000330:	ea4f 3303 	mov.w	r3, r3, lsl #12
 8000334:	ea4c 3313 	orr.w	r3, ip, r3, lsr #12
 8000338:	d002      	beq.n	8000340 <__adddf3+0x84>
 800033a:	4252      	negs	r2, r2
 800033c:	eb63 0343 	sbc.w	r3, r3, r3, lsl #1
 8000340:	ea94 0f05 	teq	r4, r5
 8000344:	f000 80a7 	beq.w	8000496 <__adddf3+0x1da>
 8000348:	f1a4 0401 	sub.w	r4, r4, #1
 800034c:	f1d5 0e20 	rsbs	lr, r5, #32
 8000350:	db0d      	blt.n	800036e <__adddf3+0xb2>
 8000352:	fa02 fc0e 	lsl.w	ip, r2, lr
 8000356:	fa22 f205 	lsr.w	r2, r2, r5
 800035a:	1880      	adds	r0, r0, r2
 800035c:	f141 0100 	adc.w	r1, r1, #0
 8000360:	fa03 f20e 	lsl.w	r2, r3, lr
 8000364:	1880      	adds	r0, r0, r2
 8000366:	fa43 f305 	asr.w	r3, r3, r5
 800036a:	4159      	adcs	r1, r3
 800036c:	e00e      	b.n	800038c <__adddf3+0xd0>
 800036e:	f1a5 0520 	sub.w	r5, r5, #32
 8000372:	f10e 0e20 	add.w	lr, lr, #32
 8000376:	2a01      	cmp	r2, #1
 8000378:	fa03 fc0e 	lsl.w	ip, r3, lr
 800037c:	bf28      	it	cs
 800037e:	f04c 0c02 	orrcs.w	ip, ip, #2
 8000382:	fa43 f305 	asr.w	r3, r3, r5
 8000386:	18c0      	adds	r0, r0, r3
 8000388:	eb51 71e3 	adcs.w	r1, r1, r3, asr #31
 800038c:	f001 4500 	and.w	r5, r1, #2147483648	@ 0x80000000
 8000390:	d507      	bpl.n	80003a2 <__adddf3+0xe6>
 8000392:	f04f 0e00 	mov.w	lr, #0
 8000396:	f1dc 0c00 	rsbs	ip, ip, #0
 800039a:	eb7e 0000 	sbcs.w	r0, lr, r0
 800039e:	eb6e 0101 	sbc.w	r1, lr, r1
 80003a2:	f5b1 1f80 	cmp.w	r1, #1048576	@ 0x100000
 80003a6:	d31b      	bcc.n	80003e0 <__adddf3+0x124>
 80003a8:	f5b1 1f00 	cmp.w	r1, #2097152	@ 0x200000
 80003ac:	d30c      	bcc.n	80003c8 <__adddf3+0x10c>
 80003ae:	0849      	lsrs	r1, r1, #1
 80003b0:	ea5f 0030 	movs.w	r0, r0, rrx
 80003b4:	ea4f 0c3c 	mov.w	ip, ip, rrx
 80003b8:	f104 0401 	add.w	r4, r4, #1
 80003bc:	ea4f 5244 	mov.w	r2, r4, lsl #21
 80003c0:	f512 0f80 	cmn.w	r2, #4194304	@ 0x400000
 80003c4:	f080 809a 	bcs.w	80004fc <__adddf3+0x240>
 80003c8:	f1bc 4f00 	cmp.w	ip, #2147483648	@ 0x80000000
 80003cc:	bf08      	it	eq
 80003ce:	ea5f 0c50 	movseq.w	ip, r0, lsr #1
 80003d2:	f150 0000 	adcs.w	r0, r0, #0
 80003d6:	eb41 5104 	adc.w	r1, r1, r4, lsl #20
 80003da:	ea41 0105 	orr.w	r1, r1, r5
 80003de:	bd30      	pop	{r4, r5, pc}
 80003e0:	ea5f 0c4c 	movs.w	ip, ip, lsl #1
 80003e4:	4140      	adcs	r0, r0
 80003e6:	eb41 0101 	adc.w	r1, r1, r1
 80003ea:	3c01      	subs	r4, #1
 80003ec:	bf28      	it	cs
 80003ee:	f5b1 1f80 	cmpcs.w	r1, #1048576	@ 0x100000
 80003f2:	d2e9      	bcs.n	80003c8 <__adddf3+0x10c>
 80003f4:	f091 0f00 	teq	r1, #0
 80003f8:	bf04      	itt	eq
 80003fa:	4601      	moveq	r1, r0
 80003fc:	2000      	moveq	r0, #0
 80003fe:	fab1 f381 	clz	r3, r1
 8000402:	bf08      	it	eq
 8000404:	3320      	addeq	r3, #32
 8000406:	f1a3 030b 	sub.w	r3, r3, #11
 800040a:	f1b3 0220 	subs.w	r2, r3, #32
 800040e:	da0c      	bge.n	800042a <__adddf3+0x16e>
 8000410:	320c      	adds	r2, #12
 8000412:	dd08      	ble.n	8000426 <__adddf3+0x16a>
 8000414:	f102 0c14 	add.w	ip, r2, #20
 8000418:	f1c2 020c 	rsb	r2, r2, #12
 800041c:	fa01 f00c 	lsl.w	r0, r1, ip
 8000420:	fa21 f102 	lsr.w	r1, r1, r2
 8000424:	e00c      	b.n	8000440 <__adddf3+0x184>
 8000426:	f102 0214 	add.w	r2, r2, #20
 800042a:	bfd8      	it	le
 800042c:	f1c2 0c20 	rsble	ip, r2, #32
 8000430:	fa01 f102 	lsl.w	r1, r1, r2
 8000434:	fa20 fc0c 	lsr.w	ip, r0, ip
 8000438:	bfdc      	itt	le
 800043a:	ea41 010c 	orrle.w	r1, r1, ip
 800043e:	4090      	lslle	r0, r2
 8000440:	1ae4      	subs	r4, r4, r3
 8000442:	bfa2      	ittt	ge
 8000444:	eb01 5104 	addge.w	r1, r1, r4, lsl #20
 8000448:	4329      	orrge	r1, r5
 800044a:	bd30      	popge	{r4, r5, pc}
 800044c:	ea6f 0404 	mvn.w	r4, r4
 8000450:	3c1f      	subs	r4, #31
 8000452:	da1c      	bge.n	800048e <__adddf3+0x1d2>
 8000454:	340c      	adds	r4, #12
 8000456:	dc0e      	bgt.n	8000476 <__adddf3+0x1ba>
 8000458:	f104 0414 	add.w	r4, r4, #20
 800045c:	f1c4 0220 	rsb	r2, r4, #32
 8000460:	fa20 f004 	lsr.w	r0, r0, r4
 8000464:	fa01 f302 	lsl.w	r3, r1, r2
 8000468:	ea40 0003 	orr.w	r0, r0, r3
 800046c:	fa21 f304 	lsr.w	r3, r1, r4
 8000470:	ea45 0103 	orr.w	r1, r5, r3
 8000474:	bd30      	pop	{r4, r5, pc}
 8000476:	f1c4 040c 	rsb	r4, r4, #12
 800047a:	f1c4 0220 	rsb	r2, r4, #32
 800047e:	fa20 f002 	lsr.w	r0, r0, r2
 8000482:	fa01 f304 	lsl.w	r3, r1, r4
 8000486:	ea40 0003 	orr.w	r0, r0, r3
 800048a:	4629      	mov	r1, r5
 800048c:	bd30      	pop	{r4, r5, pc}
 800048e:	fa21 f004 	lsr.w	r0, r1, r4
 8000492:	4629      	mov	r1, r5
 8000494:	bd30      	pop	{r4, r5, pc}
 8000496:	f094 0f00 	teq	r4, #0
 800049a:	f483 1380 	eor.w	r3, r3, #1048576	@ 0x100000
 800049e:	bf06      	itte	eq
 80004a0:	f481 1180 	eoreq.w	r1, r1, #1048576	@ 0x100000
 80004a4:	3401      	addeq	r4, #1
 80004a6:	3d01      	subne	r5, #1
 80004a8:	e74e      	b.n	8000348 <__adddf3+0x8c>
 80004aa:	ea7f 5c64 	mvns.w	ip, r4, asr #21
 80004ae:	bf18      	it	ne
 80004b0:	ea7f 5c65 	mvnsne.w	ip, r5, asr #21
 80004b4:	d029      	beq.n	800050a <__adddf3+0x24e>
 80004b6:	ea94 0f05 	teq	r4, r5
 80004ba:	bf08      	it	eq
 80004bc:	ea90 0f02 	teqeq	r0, r2
 80004c0:	d005      	beq.n	80004ce <__adddf3+0x212>
 80004c2:	ea54 0c00 	orrs.w	ip, r4, r0
 80004c6:	bf04      	itt	eq
 80004c8:	4619      	moveq	r1, r3
 80004ca:	4610      	moveq	r0, r2
 80004cc:	bd30      	pop	{r4, r5, pc}
 80004ce:	ea91 0f03 	teq	r1, r3
 80004d2:	bf1e      	ittt	ne
 80004d4:	2100      	movne	r1, #0
 80004d6:	2000      	movne	r0, #0
 80004d8:	bd30      	popne	{r4, r5, pc}
 80004da:	ea5f 5c54 	movs.w	ip, r4, lsr #21
 80004de:	d105      	bne.n	80004ec <__adddf3+0x230>
 80004e0:	0040      	lsls	r0, r0, #1
 80004e2:	4149      	adcs	r1, r1
 80004e4:	bf28      	it	cs
 80004e6:	f041 4100 	orrcs.w	r1, r1, #2147483648	@ 0x80000000
 80004ea:	bd30      	pop	{r4, r5, pc}
 80004ec:	f514 0480 	adds.w	r4, r4, #4194304	@ 0x400000
 80004f0:	bf3c      	itt	cc
 80004f2:	f501 1180 	addcc.w	r1, r1, #1048576	@ 0x100000
 80004f6:	bd30      	popcc	{r4, r5, pc}
 80004f8:	f001 4500 	and.w	r5, r1, #2147483648	@ 0x80000000
 80004fc:	f045 41fe 	orr.w	r1, r5, #2130706432	@ 0x7f000000
 8000500:	f441 0170 	orr.w	r1, r1, #15728640	@ 0xf00000
 8000504:	f04f 0000 	mov.w	r0, #0
 8000508:	bd30      	pop	{r4, r5, pc}
 800050a:	ea7f 5c64 	mvns.w	ip, r4, asr #21
 800050e:	bf1a      	itte	ne
 8000510:	4619      	movne	r1, r3
 8000512:	4610      	movne	r0, r2
 8000514:	ea7f 5c65 	mvnseq.w	ip, r5, asr #21
 8000518:	bf1c      	itt	ne
 800051a:	460b      	movne	r3, r1
 800051c:	4602      	movne	r2, r0
 800051e:	ea50 3401 	orrs.w	r4, r0, r1, lsl #12
 8000522:	bf06      	itte	eq
 8000524:	ea52 3503 	orrseq.w	r5, r2, r3, lsl #12
 8000528:	ea91 0f03 	teqeq	r1, r3
 800052c:	f441 2100 	orrne.w	r1, r1, #524288	@ 0x80000
 8000530:	bd30      	pop	{r4, r5, pc}
 8000532:	bf00      	nop

08000534 <__aeabi_ui2d>:
 8000534:	f090 0f00 	teq	r0, #0
 8000538:	bf04      	itt	eq
 800053a:	2100      	moveq	r1, #0
 800053c:	4770      	bxeq	lr
 800053e:	b530      	push	{r4, r5, lr}
 8000540:	f44f 6480 	mov.w	r4, #1024	@ 0x400
 8000544:	f104 0432 	add.w	r4, r4, #50	@ 0x32
 8000548:	f04f 0500 	mov.w	r5, #0
 800054c:	f04f 0100 	mov.w	r1, #0
 8000550:	e750      	b.n	80003f4 <__adddf3+0x138>
 8000552:	bf00      	nop

08000554 <__aeabi_i2d>:
 8000554:	f090 0f00 	teq	r0, #0
 8000558:	bf04      	itt	eq
 800055a:	2100      	moveq	r1, #0
 800055c:	4770      	bxeq	lr
 800055e:	b530      	push	{r4, r5, lr}
 8000560:	f44f 6480 	mov.w	r4, #1024	@ 0x400
 8000564:	f104 0432 	add.w	r4, r4, #50	@ 0x32
 8000568:	f010 4500 	ands.w	r5, r0, #2147483648	@ 0x80000000
 800056c:	bf48      	it	mi
 800056e:	4240      	negmi	r0, r0
 8000570:	f04f 0100 	mov.w	r1, #0
 8000574:	e73e      	b.n	80003f4 <__adddf3+0x138>
 8000576:	bf00      	nop

08000578 <__aeabi_f2d>:
 8000578:	0042      	lsls	r2, r0, #1
 800057a:	ea4f 01e2 	mov.w	r1, r2, asr #3
 800057e:	ea4f 0131 	mov.w	r1, r1, rrx
 8000582:	ea4f 7002 	mov.w	r0, r2, lsl #28
 8000586:	bf1f      	itttt	ne
 8000588:	f012 437f 	andsne.w	r3, r2, #4278190080	@ 0xff000000
 800058c:	f093 4f7f 	teqne	r3, #4278190080	@ 0xff000000
 8000590:	f081 5160 	eorne.w	r1, r1, #939524096	@ 0x38000000
 8000594:	4770      	bxne	lr
 8000596:	f032 427f 	bics.w	r2, r2, #4278190080	@ 0xff000000
 800059a:	bf08      	it	eq
 800059c:	4770      	bxeq	lr
 800059e:	f093 4f7f 	teq	r3, #4278190080	@ 0xff000000
 80005a2:	bf04      	itt	eq
 80005a4:	f441 2100 	orreq.w	r1, r1, #524288	@ 0x80000
 80005a8:	4770      	bxeq	lr
 80005aa:	b530      	push	{r4, r5, lr}
 80005ac:	f44f 7460 	mov.w	r4, #896	@ 0x380
 80005b0:	f001 4500 	and.w	r5, r1, #2147483648	@ 0x80000000
 80005b4:	f021 4100 	bic.w	r1, r1, #2147483648	@ 0x80000000
 80005b8:	e71c      	b.n	80003f4 <__adddf3+0x138>
 80005ba:	bf00      	nop

080005bc <__aeabi_ul2d>:
 80005bc:	ea50 0201 	orrs.w	r2, r0, r1
 80005c0:	bf08      	it	eq
 80005c2:	4770      	bxeq	lr
 80005c4:	b530      	push	{r4, r5, lr}
 80005c6:	f04f 0500 	mov.w	r5, #0
 80005ca:	e00a      	b.n	80005e2 <__aeabi_l2d+0x16>

080005cc <__aeabi_l2d>:
 80005cc:	ea50 0201 	orrs.w	r2, r0, r1
 80005d0:	bf08      	it	eq
 80005d2:	4770      	bxeq	lr
 80005d4:	b530      	push	{r4, r5, lr}
 80005d6:	f011 4500 	ands.w	r5, r1, #2147483648	@ 0x80000000
 80005da:	d502      	bpl.n	80005e2 <__aeabi_l2d+0x16>
 80005dc:	4240      	negs	r0, r0
 80005de:	eb61 0141 	sbc.w	r1, r1, r1, lsl #1
 80005e2:	f44f 6480 	mov.w	r4, #1024	@ 0x400
 80005e6:	f104 0432 	add.w	r4, r4, #50	@ 0x32
 80005ea:	ea5f 5c91 	movs.w	ip, r1, lsr #22
 80005ee:	f43f aed8 	beq.w	80003a2 <__adddf3+0xe6>
 80005f2:	f04f 0203 	mov.w	r2, #3
 80005f6:	ea5f 0cdc 	movs.w	ip, ip, lsr #3
 80005fa:	bf18      	it	ne
 80005fc:	3203      	addne	r2, #3
 80005fe:	ea5f 0cdc 	movs.w	ip, ip, lsr #3
 8000602:	bf18      	it	ne
 8000604:	3203      	addne	r2, #3
 8000606:	eb02 02dc 	add.w	r2, r2, ip, lsr #3
 800060a:	f1c2 0320 	rsb	r3, r2, #32
 800060e:	fa00 fc03 	lsl.w	ip, r0, r3
 8000612:	fa20 f002 	lsr.w	r0, r0, r2
 8000616:	fa01 fe03 	lsl.w	lr, r1, r3
 800061a:	ea40 000e 	orr.w	r0, r0, lr
 800061e:	fa21 f102 	lsr.w	r1, r1, r2
 8000622:	4414      	add	r4, r2
 8000624:	e6bd      	b.n	80003a2 <__adddf3+0xe6>
 8000626:	bf00      	nop

08000628 <__aeabi_dmul>:
 8000628:	b570      	push	{r4, r5, r6, lr}
 800062a:	f04f 0cff 	mov.w	ip, #255	@ 0xff
 800062e:	f44c 6ce0 	orr.w	ip, ip, #1792	@ 0x700
 8000632:	ea1c 5411 	ands.w	r4, ip, r1, lsr #20
 8000636:	bf1d      	ittte	ne
 8000638:	ea1c 5513 	andsne.w	r5, ip, r3, lsr #20
 800063c:	ea94 0f0c 	teqne	r4, ip
 8000640:	ea95 0f0c 	teqne	r5, ip
 8000644:	f000 f8de 	bleq	8000804 <__aeabi_dmul+0x1dc>
 8000648:	442c      	add	r4, r5
 800064a:	ea81 0603 	eor.w	r6, r1, r3
 800064e:	ea21 514c 	bic.w	r1, r1, ip, lsl #21
 8000652:	ea23 534c 	bic.w	r3, r3, ip, lsl #21
 8000656:	ea50 3501 	orrs.w	r5, r0, r1, lsl #12
 800065a:	bf18      	it	ne
 800065c:	ea52 3503 	orrsne.w	r5, r2, r3, lsl #12
 8000660:	f441 1180 	orr.w	r1, r1, #1048576	@ 0x100000
 8000664:	f443 1380 	orr.w	r3, r3, #1048576	@ 0x100000
 8000668:	d038      	beq.n	80006dc <__aeabi_dmul+0xb4>
 800066a:	fba0 ce02 	umull	ip, lr, r0, r2
 800066e:	f04f 0500 	mov.w	r5, #0
 8000672:	fbe1 e502 	umlal	lr, r5, r1, r2
 8000676:	f006 4200 	and.w	r2, r6, #2147483648	@ 0x80000000
 800067a:	fbe0 e503 	umlal	lr, r5, r0, r3
 800067e:	f04f 0600 	mov.w	r6, #0
 8000682:	fbe1 5603 	umlal	r5, r6, r1, r3
 8000686:	f09c 0f00 	teq	ip, #0
 800068a:	bf18      	it	ne
 800068c:	f04e 0e01 	orrne.w	lr, lr, #1
 8000690:	f1a4 04ff 	sub.w	r4, r4, #255	@ 0xff
 8000694:	f5b6 7f00 	cmp.w	r6, #512	@ 0x200
 8000698:	f564 7440 	sbc.w	r4, r4, #768	@ 0x300
 800069c:	d204      	bcs.n	80006a8 <__aeabi_dmul+0x80>
 800069e:	ea5f 0e4e 	movs.w	lr, lr, lsl #1
 80006a2:	416d      	adcs	r5, r5
 80006a4:	eb46 0606 	adc.w	r6, r6, r6
 80006a8:	ea42 21c6 	orr.w	r1, r2, r6, lsl #11
 80006ac:	ea41 5155 	orr.w	r1, r1, r5, lsr #21
 80006b0:	ea4f 20c5 	mov.w	r0, r5, lsl #11
 80006b4:	ea40 505e 	orr.w	r0, r0, lr, lsr #21
 80006b8:	ea4f 2ece 	mov.w	lr, lr, lsl #11
 80006bc:	f1b4 0cfd 	subs.w	ip, r4, #253	@ 0xfd
 80006c0:	bf88      	it	hi
 80006c2:	f5bc 6fe0 	cmphi.w	ip, #1792	@ 0x700
 80006c6:	d81e      	bhi.n	8000706 <__aeabi_dmul+0xde>
 80006c8:	f1be 4f00 	cmp.w	lr, #2147483648	@ 0x80000000
 80006cc:	bf08      	it	eq
 80006ce:	ea5f 0e50 	movseq.w	lr, r0, lsr #1
 80006d2:	f150 0000 	adcs.w	r0, r0, #0
 80006d6:	eb41 5104 	adc.w	r1, r1, r4, lsl #20
 80006da:	bd70      	pop	{r4, r5, r6, pc}
 80006dc:	f006 4600 	and.w	r6, r6, #2147483648	@ 0x80000000
 80006e0:	ea46 0101 	orr.w	r1, r6, r1
 80006e4:	ea40 0002 	orr.w	r0, r0, r2
 80006e8:	ea81 0103 	eor.w	r1, r1, r3
 80006ec:	ebb4 045c 	subs.w	r4, r4, ip, lsr #1
 80006f0:	bfc2      	ittt	gt
 80006f2:	ebd4 050c 	rsbsgt	r5, r4, ip
 80006f6:	ea41 5104 	orrgt.w	r1, r1, r4, lsl #20
 80006fa:	bd70      	popgt	{r4, r5, r6, pc}
 80006fc:	f441 1180 	orr.w	r1, r1, #1048576	@ 0x100000
 8000700:	f04f 0e00 	mov.w	lr, #0
 8000704:	3c01      	subs	r4, #1
 8000706:	f300 80ab 	bgt.w	8000860 <__aeabi_dmul+0x238>
 800070a:	f114 0f36 	cmn.w	r4, #54	@ 0x36
 800070e:	bfde      	ittt	le
 8000710:	2000      	movle	r0, #0
 8000712:	f001 4100 	andle.w	r1, r1, #2147483648	@ 0x80000000
 8000716:	bd70      	pople	{r4, r5, r6, pc}
 8000718:	f1c4 0400 	rsb	r4, r4, #0
 800071c:	3c20      	subs	r4, #32
 800071e:	da35      	bge.n	800078c <__aeabi_dmul+0x164>
 8000720:	340c      	adds	r4, #12
 8000722:	dc1b      	bgt.n	800075c <__aeabi_dmul+0x134>
 8000724:	f104 0414 	add.w	r4, r4, #20
 8000728:	f1c4 0520 	rsb	r5, r4, #32
 800072c:	fa00 f305 	lsl.w	r3, r0, r5
 8000730:	fa20 f004 	lsr.w	r0, r0, r4
 8000734:	fa01 f205 	lsl.w	r2, r1, r5
 8000738:	ea40 0002 	orr.w	r0, r0, r2
 800073c:	f001 4200 	and.w	r2, r1, #2147483648	@ 0x80000000
 8000740:	f021 4100 	bic.w	r1, r1, #2147483648	@ 0x80000000
 8000744:	eb10 70d3 	adds.w	r0, r0, r3, lsr #31
 8000748:	fa21 f604 	lsr.w	r6, r1, r4
 800074c:	eb42 0106 	adc.w	r1, r2, r6
 8000750:	ea5e 0e43 	orrs.w	lr, lr, r3, lsl #1
 8000754:	bf08      	it	eq
 8000756:	ea20 70d3 	biceq.w	r0, r0, r3, lsr #31
 800075a:	bd70      	pop	{r4, r5, r6, pc}
 800075c:	f1c4 040c 	rsb	r4, r4, #12
 8000760:	f1c4 0520 	rsb	r5, r4, #32
 8000764:	fa00 f304 	lsl.w	r3, r0, r4
 8000768:	fa20 f005 	lsr.w	r0, r0, r5
 800076c:	fa01 f204 	lsl.w	r2, r1, r4
 8000770:	ea40 0002 	orr.w	r0, r0, r2
 8000774:	f001 4100 	and.w	r1, r1, #2147483648	@ 0x80000000
 8000778:	eb10 70d3 	adds.w	r0, r0, r3, lsr #31
 800077c:	f141 0100 	adc.w	r1, r1, #0
 8000780:	ea5e 0e43 	orrs.w	lr, lr, r3, lsl #1
 8000784:	bf08      	it	eq
 8000786:	ea20 70d3 	biceq.w	r0, r0, r3, lsr #31
 800078a:	bd70      	pop	{r4, r5, r6, pc}
 800078c:	f1c4 0520 	rsb	r5, r4, #32
 8000790:	fa00 f205 	lsl.w	r2, r0, r5
 8000794:	ea4e 0e02 	orr.w	lr, lr, r2
 8000798:	fa20 f304 	lsr.w	r3, r0, r4
 800079c:	fa01 f205 	lsl.w	r2, r1, r5
 80007a0:	ea43 0302 	orr.w	r3, r3, r2
 80007a4:	fa21 f004 	lsr.w	r0, r1, r4
 80007a8:	f001 4100 	and.w	r1, r1, #2147483648	@ 0x80000000
 80007ac:	fa21 f204 	lsr.w	r2, r1, r4
 80007b0:	ea20 0002 	bic.w	r0, r0, r2
 80007b4:	eb00 70d3 	add.w	r0, r0, r3, lsr #31
 80007b8:	ea5e 0e43 	orrs.w	lr, lr, r3, lsl #1
 80007bc:	bf08      	it	eq
 80007be:	ea20 70d3 	biceq.w	r0, r0, r3, lsr #31
 80007c2:	bd70      	pop	{r4, r5, r6, pc}
 80007c4:	f094 0f00 	teq	r4, #0
 80007c8:	d10f      	bne.n	80007ea <__aeabi_dmul+0x1c2>
 80007ca:	f001 4600 	and.w	r6, r1, #2147483648	@ 0x80000000
 80007ce:	0040      	lsls	r0, r0, #1
 80007d0:	eb41 0101 	adc.w	r1, r1, r1
 80007d4:	f411 1f80 	tst.w	r1, #1048576	@ 0x100000
 80007d8:	bf08      	it	eq
 80007da:	3c01      	subeq	r4, #1
 80007dc:	d0f7      	beq.n	80007ce <__aeabi_dmul+0x1a6>
 80007de:	ea41 0106 	orr.w	r1, r1, r6
 80007e2:	f095 0f00 	teq	r5, #0
 80007e6:	bf18      	it	ne
 80007e8:	4770      	bxne	lr
 80007ea:	f003 4600 	and.w	r6, r3, #2147483648	@ 0x80000000
 80007ee:	0052      	lsls	r2, r2, #1
 80007f0:	eb43 0303 	adc.w	r3, r3, r3
 80007f4:	f413 1f80 	tst.w	r3, #1048576	@ 0x100000
 80007f8:	bf08      	it	eq
 80007fa:	3d01      	subeq	r5, #1
 80007fc:	d0f7      	beq.n	80007ee <__aeabi_dmul+0x1c6>
 80007fe:	ea43 0306 	orr.w	r3, r3, r6
 8000802:	4770      	bx	lr
 8000804:	ea94 0f0c 	teq	r4, ip
 8000808:	ea0c 5513 	and.w	r5, ip, r3, lsr #20
 800080c:	bf18      	it	ne
 800080e:	ea95 0f0c 	teqne	r5, ip
 8000812:	d00c      	beq.n	800082e <__aeabi_dmul+0x206>
 8000814:	ea50 0641 	orrs.w	r6, r0, r1, lsl #1
 8000818:	bf18      	it	ne
 800081a:	ea52 0643 	orrsne.w	r6, r2, r3, lsl #1
 800081e:	d1d1      	bne.n	80007c4 <__aeabi_dmul+0x19c>
 8000820:	ea81 0103 	eor.w	r1, r1, r3
 8000824:	f001 4100 	and.w	r1, r1, #2147483648	@ 0x80000000
 8000828:	f04f 0000 	mov.w	r0, #0
 800082c:	bd70      	pop	{r4, r5, r6, pc}
 800082e:	ea50 0641 	orrs.w	r6, r0, r1, lsl #1
 8000832:	bf06      	itte	eq
 8000834:	4610      	moveq	r0, r2
 8000836:	4619      	moveq	r1, r3
 8000838:	ea52 0643 	orrsne.w	r6, r2, r3, lsl #1
 800083c:	d019      	beq.n	8000872 <__aeabi_dmul+0x24a>
 800083e:	ea94 0f0c 	teq	r4, ip
 8000842:	d102      	bne.n	800084a <__aeabi_dmul+0x222>
 8000844:	ea50 3601 	orrs.w	r6, r0, r1, lsl #12
 8000848:	d113      	bne.n	8000872 <__aeabi_dmul+0x24a>
 800084a:	ea95 0f0c 	teq	r5, ip
 800084e:	d105      	bne.n	800085c <__aeabi_dmul+0x234>
 8000850:	ea52 3603 	orrs.w	r6, r2, r3, lsl #12
 8000854:	bf1c      	itt	ne
 8000856:	4610      	movne	r0, r2
 8000858:	4619      	movne	r1, r3
 800085a:	d10a      	bne.n	8000872 <__aeabi_dmul+0x24a>
 800085c:	ea81 0103 	eor.w	r1, r1, r3
 8000860:	f001 4100 	and.w	r1, r1, #2147483648	@ 0x80000000
 8000864:	f041 41fe 	orr.w	r1, r1, #2130706432	@ 0x7f000000
 8000868:	f441 0170 	orr.w	r1, r1, #15728640	@ 0xf00000
 800086c:	f04f 0000 	mov.w	r0, #0
 8000870:	bd70      	pop	{r4, r5, r6, pc}
 8000872:	f041 41fe 	orr.w	r1, r1, #2130706432	@ 0x7f000000
 8000876:	f441 0178 	orr.w	r1, r1, #16252928	@ 0xf80000
 800087a:	bd70      	pop	{r4, r5, r6, pc}

0800087c <__aeabi_ddiv>:
 800087c:	b570      	push	{r4, r5, r6, lr}
 800087e:	f04f 0cff 	mov.w	ip, #255	@ 0xff
 8000882:	f44c 6ce0 	orr.w	ip, ip, #1792	@ 0x700
 8000886:	ea1c 5411 	ands.w	r4, ip, r1, lsr #20
 800088a:	bf1d      	ittte	ne
 800088c:	ea1c 5513 	andsne.w	r5, ip, r3, lsr #20
 8000890:	ea94 0f0c 	teqne	r4, ip
 8000894:	ea95 0f0c 	teqne	r5, ip
 8000898:	f000 f8a7 	bleq	80009ea <__aeabi_ddiv+0x16e>
 800089c:	eba4 0405 	sub.w	r4, r4, r5
 80008a0:	ea81 0e03 	eor.w	lr, r1, r3
 80008a4:	ea52 3503 	orrs.w	r5, r2, r3, lsl #12
 80008a8:	ea4f 3101 	mov.w	r1, r1, lsl #12
 80008ac:	f000 8088 	beq.w	80009c0 <__aeabi_ddiv+0x144>
 80008b0:	ea4f 3303 	mov.w	r3, r3, lsl #12
 80008b4:	f04f 5580 	mov.w	r5, #268435456	@ 0x10000000
 80008b8:	ea45 1313 	orr.w	r3, r5, r3, lsr #4
 80008bc:	ea43 6312 	orr.w	r3, r3, r2, lsr #24
 80008c0:	ea4f 2202 	mov.w	r2, r2, lsl #8
 80008c4:	ea45 1511 	orr.w	r5, r5, r1, lsr #4
 80008c8:	ea45 6510 	orr.w	r5, r5, r0, lsr #24
 80008cc:	ea4f 2600 	mov.w	r6, r0, lsl #8
 80008d0:	f00e 4100 	and.w	r1, lr, #2147483648	@ 0x80000000
 80008d4:	429d      	cmp	r5, r3
 80008d6:	bf08      	it	eq
 80008d8:	4296      	cmpeq	r6, r2
 80008da:	f144 04fd 	adc.w	r4, r4, #253	@ 0xfd
 80008de:	f504 7440 	add.w	r4, r4, #768	@ 0x300
 80008e2:	d202      	bcs.n	80008ea <__aeabi_ddiv+0x6e>
 80008e4:	085b      	lsrs	r3, r3, #1
 80008e6:	ea4f 0232 	mov.w	r2, r2, rrx
 80008ea:	1ab6      	subs	r6, r6, r2
 80008ec:	eb65 0503 	sbc.w	r5, r5, r3
 80008f0:	085b      	lsrs	r3, r3, #1
 80008f2:	ea4f 0232 	mov.w	r2, r2, rrx
 80008f6:	f44f 1080 	mov.w	r0, #1048576	@ 0x100000
 80008fa:	f44f 2c00 	mov.w	ip, #524288	@ 0x80000
 80008fe:	ebb6 0e02 	subs.w	lr, r6, r2
 8000902:	eb75 0e03 	sbcs.w	lr, r5, r3
 8000906:	bf22      	ittt	cs
 8000908:	1ab6      	subcs	r6, r6, r2
 800090a:	4675      	movcs	r5, lr
 800090c:	ea40 000c 	orrcs.w	r0, r0, ip
 8000910:	085b      	lsrs	r3, r3, #1
 8000912:	ea4f 0232 	mov.w	r2, r2, rrx
 8000916:	ebb6 0e02 	subs.w	lr, r6, r2
 800091a:	eb75 0e03 	sbcs.w	lr, r5, r3
 800091e:	bf22      	ittt	cs
 8000920:	1ab6      	subcs	r6, r6, r2
 8000922:	4675      	movcs	r5, lr
 8000924:	ea40 005c 	orrcs.w	r0, r0, ip, lsr #1
 8000928:	085b      	lsrs	r3, r3, #1
 800092a:	ea4f 0232 	mov.w	r2, r2, rrx
 800092e:	ebb6 0e02 	subs.w	lr, r6, r2
 8000932:	eb75 0e03 	sbcs.w	lr, r5, r3
 8000936:	bf22      	ittt	cs
 8000938:	1ab6      	subcs	r6, r6, r2
 800093a:	4675      	movcs	r5, lr
 800093c:	ea40 009c 	orrcs.w	r0, r0, ip, lsr #2
 8000940:	085b      	lsrs	r3, r3, #1
 8000942:	ea4f 0232 	mov.w	r2, r2, rrx
 8000946:	ebb6 0e02 	subs.w	lr, r6, r2
 800094a:	eb75 0e03 	sbcs.w	lr, r5, r3
 800094e:	bf22      	ittt	cs
 8000950:	1ab6      	subcs	r6, r6, r2
 8000952:	4675      	movcs	r5, lr
 8000954:	ea40 00dc 	orrcs.w	r0, r0, ip, lsr #3
 8000958:	ea55 0e06 	orrs.w	lr, r5, r6
 800095c:	d018      	beq.n	8000990 <__aeabi_ddiv+0x114>
 800095e:	ea4f 1505 	mov.w	r5, r5, lsl #4
 8000962:	ea45 7516 	orr.w	r5, r5, r6, lsr #28
 8000966:	ea4f 1606 	mov.w	r6, r6, lsl #4
 800096a:	ea4f 03c3 	mov.w	r3, r3, lsl #3
 800096e:	ea43 7352 	orr.w	r3, r3, r2, lsr #29
 8000972:	ea4f 02c2 	mov.w	r2, r2, lsl #3
 8000976:	ea5f 1c1c 	movs.w	ip, ip, lsr #4
 800097a:	d1c0      	bne.n	80008fe <__aeabi_ddiv+0x82>
 800097c:	f411 1f80 	tst.w	r1, #1048576	@ 0x100000
 8000980:	d10b      	bne.n	800099a <__aeabi_ddiv+0x11e>
 8000982:	ea41 0100 	orr.w	r1, r1, r0
 8000986:	f04f 0000 	mov.w	r0, #0
 800098a:	f04f 4c00 	mov.w	ip, #2147483648	@ 0x80000000
 800098e:	e7b6      	b.n	80008fe <__aeabi_ddiv+0x82>
 8000990:	f411 1f80 	tst.w	r1, #1048576	@ 0x100000
 8000994:	bf04      	itt	eq
 8000996:	4301      	orreq	r1, r0
 8000998:	2000      	moveq	r0, #0
 800099a:	f1b4 0cfd 	subs.w	ip, r4, #253	@ 0xfd
 800099e:	bf88      	it	hi
 80009a0:	f5bc 6fe0 	cmphi.w	ip, #1792	@ 0x700
 80009a4:	f63f aeaf 	bhi.w	8000706 <__aeabi_dmul+0xde>
 80009a8:	ebb5 0c03 	subs.w	ip, r5, r3
 80009ac:	bf04      	itt	eq
 80009ae:	ebb6 0c02 	subseq.w	ip, r6, r2
 80009b2:	ea5f 0c50 	movseq.w	ip, r0, lsr #1
 80009b6:	f150 0000 	adcs.w	r0, r0, #0
 80009ba:	eb41 5104 	adc.w	r1, r1, r4, lsl #20
 80009be:	bd70      	pop	{r4, r5, r6, pc}
 80009c0:	f00e 4e00 	and.w	lr, lr, #2147483648	@ 0x80000000
 80009c4:	ea4e 3111 	orr.w	r1, lr, r1, lsr #12
 80009c8:	eb14 045c 	adds.w	r4, r4, ip, lsr #1
 80009cc:	bfc2      	ittt	gt
 80009ce:	ebd4 050c 	rsbsgt	r5, r4, ip
 80009d2:	ea41 5104 	orrgt.w	r1, r1, r4, lsl #20
 80009d6:	bd70      	popgt	{r4, r5, r6, pc}
 80009d8:	f441 1180 	orr.w	r1, r1, #1048576	@ 0x100000
 80009dc:	f04f 0e00 	mov.w	lr, #0
 80009e0:	3c01      	subs	r4, #1
 80009e2:	e690      	b.n	8000706 <__aeabi_dmul+0xde>
 80009e4:	ea45 0e06 	orr.w	lr, r5, r6
 80009e8:	e68d      	b.n	8000706 <__aeabi_dmul+0xde>
 80009ea:	ea0c 5513 	and.w	r5, ip, r3, lsr #20
 80009ee:	ea94 0f0c 	teq	r4, ip
 80009f2:	bf08      	it	eq
 80009f4:	ea95 0f0c 	teqeq	r5, ip
 80009f8:	f43f af3b 	beq.w	8000872 <__aeabi_dmul+0x24a>
 80009fc:	ea94 0f0c 	teq	r4, ip
 8000a00:	d10a      	bne.n	8000a18 <__aeabi_ddiv+0x19c>
 8000a02:	ea50 3401 	orrs.w	r4, r0, r1, lsl #12
 8000a06:	f47f af34 	bne.w	8000872 <__aeabi_dmul+0x24a>
 8000a0a:	ea95 0f0c 	teq	r5, ip
 8000a0e:	f47f af25 	bne.w	800085c <__aeabi_dmul+0x234>
 8000a12:	4610      	mov	r0, r2
 8000a14:	4619      	mov	r1, r3
 8000a16:	e72c      	b.n	8000872 <__aeabi_dmul+0x24a>
 8000a18:	ea95 0f0c 	teq	r5, ip
 8000a1c:	d106      	bne.n	8000a2c <__aeabi_ddiv+0x1b0>
 8000a1e:	ea52 3503 	orrs.w	r5, r2, r3, lsl #12
 8000a22:	f43f aefd 	beq.w	8000820 <__aeabi_dmul+0x1f8>
 8000a26:	4610      	mov	r0, r2
 8000a28:	4619      	mov	r1, r3
 8000a2a:	e722      	b.n	8000872 <__aeabi_dmul+0x24a>
 8000a2c:	ea50 0641 	orrs.w	r6, r0, r1, lsl #1
 8000a30:	bf18      	it	ne
 8000a32:	ea52 0643 	orrsne.w	r6, r2, r3, lsl #1
 8000a36:	f47f aec5 	bne.w	80007c4 <__aeabi_dmul+0x19c>
 8000a3a:	ea50 0441 	orrs.w	r4, r0, r1, lsl #1
 8000a3e:	f47f af0d 	bne.w	800085c <__aeabi_dmul+0x234>
 8000a42:	ea52 0543 	orrs.w	r5, r2, r3, lsl #1
 8000a46:	f47f aeeb 	bne.w	8000820 <__aeabi_dmul+0x1f8>
 8000a4a:	e712      	b.n	8000872 <__aeabi_dmul+0x24a>

08000a4c <__gedf2>:
 8000a4c:	f04f 3cff 	mov.w	ip, #4294967295
 8000a50:	e006      	b.n	8000a60 <__cmpdf2+0x4>
 8000a52:	bf00      	nop

08000a54 <__ledf2>:
 8000a54:	f04f 0c01 	mov.w	ip, #1
 8000a58:	e002      	b.n	8000a60 <__cmpdf2+0x4>
 8000a5a:	bf00      	nop

08000a5c <__cmpdf2>:
 8000a5c:	f04f 0c01 	mov.w	ip, #1
 8000a60:	f84d cd04 	str.w	ip, [sp, #-4]!
 8000a64:	ea4f 0c41 	mov.w	ip, r1, lsl #1
 8000a68:	ea7f 5c6c 	mvns.w	ip, ip, asr #21
 8000a6c:	ea4f 0c43 	mov.w	ip, r3, lsl #1
 8000a70:	bf18      	it	ne
 8000a72:	ea7f 5c6c 	mvnsne.w	ip, ip, asr #21
 8000a76:	d01b      	beq.n	8000ab0 <__cmpdf2+0x54>
 8000a78:	b001      	add	sp, #4
 8000a7a:	ea50 0c41 	orrs.w	ip, r0, r1, lsl #1
 8000a7e:	bf0c      	ite	eq
 8000a80:	ea52 0c43 	orrseq.w	ip, r2, r3, lsl #1
 8000a84:	ea91 0f03 	teqne	r1, r3
 8000a88:	bf02      	ittt	eq
 8000a8a:	ea90 0f02 	teqeq	r0, r2
 8000a8e:	2000      	moveq	r0, #0
 8000a90:	4770      	bxeq	lr
 8000a92:	f110 0f00 	cmn.w	r0, #0
 8000a96:	ea91 0f03 	teq	r1, r3
 8000a9a:	bf58      	it	pl
 8000a9c:	4299      	cmppl	r1, r3
 8000a9e:	bf08      	it	eq
 8000aa0:	4290      	cmpeq	r0, r2
 8000aa2:	bf2c      	ite	cs
 8000aa4:	17d8      	asrcs	r0, r3, #31
 8000aa6:	ea6f 70e3 	mvncc.w	r0, r3, asr #31
 8000aaa:	f040 0001 	orr.w	r0, r0, #1
 8000aae:	4770      	bx	lr
 8000ab0:	ea4f 0c41 	mov.w	ip, r1, lsl #1
 8000ab4:	ea7f 5c6c 	mvns.w	ip, ip, asr #21
 8000ab8:	d102      	bne.n	8000ac0 <__cmpdf2+0x64>
 8000aba:	ea50 3c01 	orrs.w	ip, r0, r1, lsl #12
 8000abe:	d107      	bne.n	8000ad0 <__cmpdf2+0x74>
 8000ac0:	ea4f 0c43 	mov.w	ip, r3, lsl #1
 8000ac4:	ea7f 5c6c 	mvns.w	ip, ip, asr #21
 8000ac8:	d1d6      	bne.n	8000a78 <__cmpdf2+0x1c>
 8000aca:	ea52 3c03 	orrs.w	ip, r2, r3, lsl #12
 8000ace:	d0d3      	beq.n	8000a78 <__cmpdf2+0x1c>
 8000ad0:	f85d 0b04 	ldr.w	r0, [sp], #4
 8000ad4:	4770      	bx	lr
 8000ad6:	bf00      	nop

08000ad8 <__aeabi_cdrcmple>:
 8000ad8:	4684      	mov	ip, r0
 8000ada:	4610      	mov	r0, r2
 8000adc:	4662      	mov	r2, ip
 8000ade:	468c      	mov	ip, r1
 8000ae0:	4619      	mov	r1, r3
 8000ae2:	4663      	mov	r3, ip
 8000ae4:	e000      	b.n	8000ae8 <__aeabi_cdcmpeq>
 8000ae6:	bf00      	nop

08000ae8 <__aeabi_cdcmpeq>:
 8000ae8:	b501      	push	{r0, lr}
 8000aea:	f7ff ffb7 	bl	8000a5c <__cmpdf2>
 8000aee:	2800      	cmp	r0, #0
 8000af0:	bf48      	it	mi
 8000af2:	f110 0f00 	cmnmi.w	r0, #0
 8000af6:	bd01      	pop	{r0, pc}

08000af8 <__aeabi_dcmpeq>:
 8000af8:	f84d ed08 	str.w	lr, [sp, #-8]!
 8000afc:	f7ff fff4 	bl	8000ae8 <__aeabi_cdcmpeq>
 8000b00:	bf0c      	ite	eq
 8000b02:	2001      	moveq	r0, #1
 8000b04:	2000      	movne	r0, #0
 8000b06:	f85d fb08 	ldr.w	pc, [sp], #8
 8000b0a:	bf00      	nop

08000b0c <__aeabi_dcmplt>:
 8000b0c:	f84d ed08 	str.w	lr, [sp, #-8]!
 8000b10:	f7ff ffea 	bl	8000ae8 <__aeabi_cdcmpeq>
 8000b14:	bf34      	ite	cc
 8000b16:	2001      	movcc	r0, #1
 8000b18:	2000      	movcs	r0, #0
 8000b1a:	f85d fb08 	ldr.w	pc, [sp], #8
 8000b1e:	bf00      	nop

08000b20 <__aeabi_dcmple>:
 8000b20:	f84d ed08 	str.w	lr, [sp, #-8]!
 8000b24:	f7ff ffe0 	bl	8000ae8 <__aeabi_cdcmpeq>
 8000b28:	bf94      	ite	ls
 8000b2a:	2001      	movls	r0, #1
 8000b2c:	2000      	movhi	r0, #0
 8000b2e:	f85d fb08 	ldr.w	pc, [sp], #8
 8000b32:	bf00      	nop

08000b34 <__aeabi_dcmpge>:
 8000b34:	f84d ed08 	str.w	lr, [sp, #-8]!
 8000b38:	f7ff ffce 	bl	8000ad8 <__aeabi_cdrcmple>
 8000b3c:	bf94      	ite	ls
 8000b3e:	2001      	movls	r0, #1
 8000b40:	2000      	movhi	r0, #0
 8000b42:	f85d fb08 	ldr.w	pc, [sp], #8
 8000b46:	bf00      	nop

08000b48 <__aeabi_dcmpgt>:
 8000b48:	f84d ed08 	str.w	lr, [sp, #-8]!
 8000b4c:	f7ff ffc4 	bl	8000ad8 <__aeabi_cdrcmple>
 8000b50:	bf34      	ite	cc
 8000b52:	2001      	movcc	r0, #1
 8000b54:	2000      	movcs	r0, #0
 8000b56:	f85d fb08 	ldr.w	pc, [sp], #8
 8000b5a:	bf00      	nop

08000b5c <__aeabi_dcmpun>:
 8000b5c:	ea4f 0c41 	mov.w	ip, r1, lsl #1
 8000b60:	ea7f 5c6c 	mvns.w	ip, ip, asr #21
 8000b64:	d102      	bne.n	8000b6c <__aeabi_dcmpun+0x10>
 8000b66:	ea50 3c01 	orrs.w	ip, r0, r1, lsl #12
 8000b6a:	d10a      	bne.n	8000b82 <__aeabi_dcmpun+0x26>
 8000b6c:	ea4f 0c43 	mov.w	ip, r3, lsl #1
 8000b70:	ea7f 5c6c 	mvns.w	ip, ip, asr #21
 8000b74:	d102      	bne.n	8000b7c <__aeabi_dcmpun+0x20>
 8000b76:	ea52 3c03 	orrs.w	ip, r2, r3, lsl #12
 8000b7a:	d102      	bne.n	8000b82 <__aeabi_dcmpun+0x26>
 8000b7c:	f04f 0000 	mov.w	r0, #0
 8000b80:	4770      	bx	lr
 8000b82:	f04f 0001 	mov.w	r0, #1
 8000b86:	4770      	bx	lr

08000b88 <__aeabi_d2uiz>:
 8000b88:	004a      	lsls	r2, r1, #1
 8000b8a:	d211      	bcs.n	8000bb0 <__aeabi_d2uiz+0x28>
 8000b8c:	f512 1200 	adds.w	r2, r2, #2097152	@ 0x200000
 8000b90:	d211      	bcs.n	8000bb6 <__aeabi_d2uiz+0x2e>
 8000b92:	d50d      	bpl.n	8000bb0 <__aeabi_d2uiz+0x28>
 8000b94:	f46f 7378 	mvn.w	r3, #992	@ 0x3e0
 8000b98:	ebb3 5262 	subs.w	r2, r3, r2, asr #21
 8000b9c:	d40e      	bmi.n	8000bbc <__aeabi_d2uiz+0x34>
 8000b9e:	ea4f 23c1 	mov.w	r3, r1, lsl #11
 8000ba2:	f043 4300 	orr.w	r3, r3, #2147483648	@ 0x80000000
 8000ba6:	ea43 5350 	orr.w	r3, r3, r0, lsr #21
 8000baa:	fa23 f002 	lsr.w	r0, r3, r2
 8000bae:	4770      	bx	lr
 8000bb0:	f04f 0000 	mov.w	r0, #0
 8000bb4:	4770      	bx	lr
 8000bb6:	ea50 3001 	orrs.w	r0, r0, r1, lsl #12
 8000bba:	d102      	bne.n	8000bc2 <__aeabi_d2uiz+0x3a>
 8000bbc:	f04f 30ff 	mov.w	r0, #4294967295
 8000bc0:	4770      	bx	lr
 8000bc2:	f04f 0000 	mov.w	r0, #0
 8000bc6:	4770      	bx	lr

08000bc8 <__aeabi_d2f>:
 8000bc8:	ea4f 0241 	mov.w	r2, r1, lsl #1
 8000bcc:	f1b2 43e0 	subs.w	r3, r2, #1879048192	@ 0x70000000
 8000bd0:	bf24      	itt	cs
 8000bd2:	f5b3 1c00 	subscs.w	ip, r3, #2097152	@ 0x200000
 8000bd6:	f1dc 5cfe 	rsbscs	ip, ip, #532676608	@ 0x1fc00000
 8000bda:	d90d      	bls.n	8000bf8 <__aeabi_d2f+0x30>
 8000bdc:	f001 4c00 	and.w	ip, r1, #2147483648	@ 0x80000000
 8000be0:	ea4f 02c0 	mov.w	r2, r0, lsl #3
 8000be4:	ea4c 7050 	orr.w	r0, ip, r0, lsr #29
 8000be8:	f1b2 4f00 	cmp.w	r2, #2147483648	@ 0x80000000
 8000bec:	eb40 0083 	adc.w	r0, r0, r3, lsl #2
 8000bf0:	bf08      	it	eq
 8000bf2:	f020 0001 	biceq.w	r0, r0, #1
 8000bf6:	4770      	bx	lr
 8000bf8:	f011 4f80 	tst.w	r1, #1073741824	@ 0x40000000
 8000bfc:	d121      	bne.n	8000c42 <__aeabi_d2f+0x7a>
 8000bfe:	f113 7238 	adds.w	r2, r3, #48234496	@ 0x2e00000
 8000c02:	bfbc      	itt	lt
 8000c04:	f001 4000 	andlt.w	r0, r1, #2147483648	@ 0x80000000
 8000c08:	4770      	bxlt	lr
 8000c0a:	f441 1180 	orr.w	r1, r1, #1048576	@ 0x100000
 8000c0e:	ea4f 5252 	mov.w	r2, r2, lsr #21
 8000c12:	f1c2 0218 	rsb	r2, r2, #24
 8000c16:	f1c2 0c20 	rsb	ip, r2, #32
 8000c1a:	fa10 f30c 	lsls.w	r3, r0, ip
 8000c1e:	fa20 f002 	lsr.w	r0, r0, r2
 8000c22:	bf18      	it	ne
 8000c24:	f040 0001 	orrne.w	r0, r0, #1
 8000c28:	ea4f 23c1 	mov.w	r3, r1, lsl #11
 8000c2c:	ea4f 23d3 	mov.w	r3, r3, lsr #11
 8000c30:	fa03 fc0c 	lsl.w	ip, r3, ip
 8000c34:	ea40 000c 	orr.w	r0, r0, ip
 8000c38:	fa23 f302 	lsr.w	r3, r3, r2
 8000c3c:	ea4f 0343 	mov.w	r3, r3, lsl #1
 8000c40:	e7cc      	b.n	8000bdc <__aeabi_d2f+0x14>
 8000c42:	ea7f 5362 	mvns.w	r3, r2, asr #21
 8000c46:	d107      	bne.n	8000c58 <__aeabi_d2f+0x90>
 8000c48:	ea50 3301 	orrs.w	r3, r0, r1, lsl #12
 8000c4c:	bf1e      	ittt	ne
 8000c4e:	f04f 40fe 	movne.w	r0, #2130706432	@ 0x7f000000
 8000c52:	f440 0040 	orrne.w	r0, r0, #12582912	@ 0xc00000
 8000c56:	4770      	bxne	lr
 8000c58:	f001 4000 	and.w	r0, r1, #2147483648	@ 0x80000000
 8000c5c:	f040 40fe 	orr.w	r0, r0, #2130706432	@ 0x7f000000
 8000c60:	f440 0000 	orr.w	r0, r0, #8388608	@ 0x800000
 8000c64:	4770      	bx	lr
 8000c66:	bf00      	nop

08000c68 <__aeabi_uldivmod>:
 8000c68:	b953      	cbnz	r3, 8000c80 <__aeabi_uldivmod+0x18>
 8000c6a:	b94a      	cbnz	r2, 8000c80 <__aeabi_uldivmod+0x18>
 8000c6c:	2900      	cmp	r1, #0
 8000c6e:	bf08      	it	eq
 8000c70:	2800      	cmpeq	r0, #0
 8000c72:	bf1c      	itt	ne
 8000c74:	f04f 31ff 	movne.w	r1, #4294967295
 8000c78:	f04f 30ff 	movne.w	r0, #4294967295
 8000c7c:	f000 b9be 	b.w	8000ffc <__aeabi_idiv0>
 8000c80:	f1ad 0c08 	sub.w	ip, sp, #8
 8000c84:	e96d ce04 	strd	ip, lr, [sp, #-16]!
 8000c88:	f000 f83c 	bl	8000d04 <__udivmoddi4>
 8000c8c:	f8dd e004 	ldr.w	lr, [sp, #4]
 8000c90:	e9dd 2302 	ldrd	r2, r3, [sp, #8]
 8000c94:	b004      	add	sp, #16
 8000c96:	4770      	bx	lr

08000c98 <__aeabi_d2lz>:
 8000c98:	b538      	push	{r3, r4, r5, lr}
 8000c9a:	2200      	movs	r2, #0
 8000c9c:	2300      	movs	r3, #0
 8000c9e:	4604      	mov	r4, r0
 8000ca0:	460d      	mov	r5, r1
 8000ca2:	f7ff ff33 	bl	8000b0c <__aeabi_dcmplt>
 8000ca6:	b928      	cbnz	r0, 8000cb4 <__aeabi_d2lz+0x1c>
 8000ca8:	4620      	mov	r0, r4
 8000caa:	4629      	mov	r1, r5
 8000cac:	e8bd 4038 	ldmia.w	sp!, {r3, r4, r5, lr}
 8000cb0:	f000 b80a 	b.w	8000cc8 <__aeabi_d2ulz>
 8000cb4:	4620      	mov	r0, r4
 8000cb6:	f105 4100 	add.w	r1, r5, #2147483648	@ 0x80000000
 8000cba:	f000 f805 	bl	8000cc8 <__aeabi_d2ulz>
 8000cbe:	4240      	negs	r0, r0
 8000cc0:	eb61 0141 	sbc.w	r1, r1, r1, lsl #1
 8000cc4:	bd38      	pop	{r3, r4, r5, pc}
 8000cc6:	bf00      	nop

08000cc8 <__aeabi_d2ulz>:
 8000cc8:	b5d0      	push	{r4, r6, r7, lr}
 8000cca:	4b0c      	ldr	r3, [pc, #48]	@ (8000cfc <__aeabi_d2ulz+0x34>)
 8000ccc:	2200      	movs	r2, #0
 8000cce:	4606      	mov	r6, r0
 8000cd0:	460f      	mov	r7, r1
 8000cd2:	f7ff fca9 	bl	8000628 <__aeabi_dmul>
 8000cd6:	f7ff ff57 	bl	8000b88 <__aeabi_d2uiz>
 8000cda:	4604      	mov	r4, r0
 8000cdc:	f7ff fc2a 	bl	8000534 <__aeabi_ui2d>
 8000ce0:	4b07      	ldr	r3, [pc, #28]	@ (8000d00 <__aeabi_d2ulz+0x38>)
 8000ce2:	2200      	movs	r2, #0
 8000ce4:	f7ff fca0 	bl	8000628 <__aeabi_dmul>
 8000ce8:	4602      	mov	r2, r0
 8000cea:	460b      	mov	r3, r1
 8000cec:	4630      	mov	r0, r6
 8000cee:	4639      	mov	r1, r7
 8000cf0:	f7ff fae2 	bl	80002b8 <__aeabi_dsub>
 8000cf4:	f7ff ff48 	bl	8000b88 <__aeabi_d2uiz>
 8000cf8:	4621      	mov	r1, r4
 8000cfa:	bdd0      	pop	{r4, r6, r7, pc}
 8000cfc:	3df00000 	.word	0x3df00000
 8000d00:	41f00000 	.word	0x41f00000

08000d04 <__udivmoddi4>:
 8000d04:	e92d 47f0 	stmdb	sp!, {r4, r5, r6, r7, r8, r9, sl, lr}
 8000d08:	9d08      	ldr	r5, [sp, #32]
 8000d0a:	468e      	mov	lr, r1
 8000d0c:	4604      	mov	r4, r0
 8000d0e:	4688      	mov	r8, r1
 8000d10:	2b00      	cmp	r3, #0
 8000d12:	d14a      	bne.n	8000daa <__udivmoddi4+0xa6>
 8000d14:	428a      	cmp	r2, r1
 8000d16:	4617      	mov	r7, r2
 8000d18:	d962      	bls.n	8000de0 <__udivmoddi4+0xdc>
 8000d1a:	fab2 f682 	clz	r6, r2
 8000d1e:	b14e      	cbz	r6, 8000d34 <__udivmoddi4+0x30>
 8000d20:	f1c6 0320 	rsb	r3, r6, #32
 8000d24:	fa01 f806 	lsl.w	r8, r1, r6
 8000d28:	fa20 f303 	lsr.w	r3, r0, r3
 8000d2c:	40b7      	lsls	r7, r6
 8000d2e:	ea43 0808 	orr.w	r8, r3, r8
 8000d32:	40b4      	lsls	r4, r6
 8000d34:	ea4f 4e17 	mov.w	lr, r7, lsr #16
 8000d38:	fa1f fc87 	uxth.w	ip, r7
 8000d3c:	fbb8 f1fe 	udiv	r1, r8, lr
 8000d40:	0c23      	lsrs	r3, r4, #16
 8000d42:	fb0e 8811 	mls	r8, lr, r1, r8
 8000d46:	ea43 4308 	orr.w	r3, r3, r8, lsl #16
 8000d4a:	fb01 f20c 	mul.w	r2, r1, ip
 8000d4e:	429a      	cmp	r2, r3
 8000d50:	d909      	bls.n	8000d66 <__udivmoddi4+0x62>
 8000d52:	18fb      	adds	r3, r7, r3
 8000d54:	f101 30ff 	add.w	r0, r1, #4294967295
 8000d58:	f080 80ea 	bcs.w	8000f30 <__udivmoddi4+0x22c>
 8000d5c:	429a      	cmp	r2, r3
 8000d5e:	f240 80e7 	bls.w	8000f30 <__udivmoddi4+0x22c>
 8000d62:	3902      	subs	r1, #2
 8000d64:	443b      	add	r3, r7
 8000d66:	1a9a      	subs	r2, r3, r2
 8000d68:	b2a3      	uxth	r3, r4
 8000d6a:	fbb2 f0fe 	udiv	r0, r2, lr
 8000d6e:	fb0e 2210 	mls	r2, lr, r0, r2
 8000d72:	ea43 4302 	orr.w	r3, r3, r2, lsl #16
 8000d76:	fb00 fc0c 	mul.w	ip, r0, ip
 8000d7a:	459c      	cmp	ip, r3
 8000d7c:	d909      	bls.n	8000d92 <__udivmoddi4+0x8e>
 8000d7e:	18fb      	adds	r3, r7, r3
 8000d80:	f100 32ff 	add.w	r2, r0, #4294967295
 8000d84:	f080 80d6 	bcs.w	8000f34 <__udivmoddi4+0x230>
 8000d88:	459c      	cmp	ip, r3
 8000d8a:	f240 80d3 	bls.w	8000f34 <__udivmoddi4+0x230>
 8000d8e:	443b      	add	r3, r7
 8000d90:	3802      	subs	r0, #2
 8000d92:	ea40 4001 	orr.w	r0, r0, r1, lsl #16
 8000d96:	eba3 030c 	sub.w	r3, r3, ip
 8000d9a:	2100      	movs	r1, #0
 8000d9c:	b11d      	cbz	r5, 8000da6 <__udivmoddi4+0xa2>
 8000d9e:	40f3      	lsrs	r3, r6
 8000da0:	2200      	movs	r2, #0
 8000da2:	e9c5 3200 	strd	r3, r2, [r5]
 8000da6:	e8bd 87f0 	ldmia.w	sp!, {r4, r5, r6, r7, r8, r9, sl, pc}
 8000daa:	428b      	cmp	r3, r1
 8000dac:	d905      	bls.n	8000dba <__udivmoddi4+0xb6>
 8000dae:	b10d      	cbz	r5, 8000db4 <__udivmoddi4+0xb0>
 8000db0:	e9c5 0100 	strd	r0, r1, [r5]
 8000db4:	2100      	movs	r1, #0
 8000db6:	4608      	mov	r0, r1
 8000db8:	e7f5      	b.n	8000da6 <__udivmoddi4+0xa2>
 8000dba:	fab3 f183 	clz	r1, r3
 8000dbe:	2900      	cmp	r1, #0
 8000dc0:	d146      	bne.n	8000e50 <__udivmoddi4+0x14c>
 8000dc2:	4573      	cmp	r3, lr
 8000dc4:	d302      	bcc.n	8000dcc <__udivmoddi4+0xc8>
 8000dc6:	4282      	cmp	r2, r0
 8000dc8:	f200 8105 	bhi.w	8000fd6 <__udivmoddi4+0x2d2>
 8000dcc:	1a84      	subs	r4, r0, r2
 8000dce:	eb6e 0203 	sbc.w	r2, lr, r3
 8000dd2:	2001      	movs	r0, #1
 8000dd4:	4690      	mov	r8, r2
 8000dd6:	2d00      	cmp	r5, #0
 8000dd8:	d0e5      	beq.n	8000da6 <__udivmoddi4+0xa2>
 8000dda:	e9c5 4800 	strd	r4, r8, [r5]
 8000dde:	e7e2      	b.n	8000da6 <__udivmoddi4+0xa2>
 8000de0:	2a00      	cmp	r2, #0
 8000de2:	f000 8090 	beq.w	8000f06 <__udivmoddi4+0x202>
 8000de6:	fab2 f682 	clz	r6, r2
 8000dea:	2e00      	cmp	r6, #0
 8000dec:	f040 80a4 	bne.w	8000f38 <__udivmoddi4+0x234>
 8000df0:	1a8a      	subs	r2, r1, r2
 8000df2:	0c03      	lsrs	r3, r0, #16
 8000df4:	ea4f 4e17 	mov.w	lr, r7, lsr #16
 8000df8:	b280      	uxth	r0, r0
 8000dfa:	b2bc      	uxth	r4, r7
 8000dfc:	2101      	movs	r1, #1
 8000dfe:	fbb2 fcfe 	udiv	ip, r2, lr
 8000e02:	fb0e 221c 	mls	r2, lr, ip, r2
 8000e06:	ea43 4302 	orr.w	r3, r3, r2, lsl #16
 8000e0a:	fb04 f20c 	mul.w	r2, r4, ip
 8000e0e:	429a      	cmp	r2, r3
 8000e10:	d907      	bls.n	8000e22 <__udivmoddi4+0x11e>
 8000e12:	18fb      	adds	r3, r7, r3
 8000e14:	f10c 38ff 	add.w	r8, ip, #4294967295
 8000e18:	d202      	bcs.n	8000e20 <__udivmoddi4+0x11c>
 8000e1a:	429a      	cmp	r2, r3
 8000e1c:	f200 80e0 	bhi.w	8000fe0 <__udivmoddi4+0x2dc>
 8000e20:	46c4      	mov	ip, r8
 8000e22:	1a9b      	subs	r3, r3, r2
 8000e24:	fbb3 f2fe 	udiv	r2, r3, lr
 8000e28:	fb0e 3312 	mls	r3, lr, r2, r3
 8000e2c:	ea40 4303 	orr.w	r3, r0, r3, lsl #16
 8000e30:	fb02 f404 	mul.w	r4, r2, r4
 8000e34:	429c      	cmp	r4, r3
 8000e36:	d907      	bls.n	8000e48 <__udivmoddi4+0x144>
 8000e38:	18fb      	adds	r3, r7, r3
 8000e3a:	f102 30ff 	add.w	r0, r2, #4294967295
 8000e3e:	d202      	bcs.n	8000e46 <__udivmoddi4+0x142>
 8000e40:	429c      	cmp	r4, r3
 8000e42:	f200 80ca 	bhi.w	8000fda <__udivmoddi4+0x2d6>
 8000e46:	4602      	mov	r2, r0
 8000e48:	1b1b      	subs	r3, r3, r4
 8000e4a:	ea42 400c 	orr.w	r0, r2, ip, lsl #16
 8000e4e:	e7a5      	b.n	8000d9c <__udivmoddi4+0x98>
 8000e50:	f1c1 0620 	rsb	r6, r1, #32
 8000e54:	408b      	lsls	r3, r1
 8000e56:	fa22 f706 	lsr.w	r7, r2, r6
 8000e5a:	431f      	orrs	r7, r3
 8000e5c:	fa0e f401 	lsl.w	r4, lr, r1
 8000e60:	fa20 f306 	lsr.w	r3, r0, r6
 8000e64:	fa2e fe06 	lsr.w	lr, lr, r6
 8000e68:	ea4f 4917 	mov.w	r9, r7, lsr #16
 8000e6c:	4323      	orrs	r3, r4
 8000e6e:	fa00 f801 	lsl.w	r8, r0, r1
 8000e72:	fa1f fc87 	uxth.w	ip, r7
 8000e76:	fbbe f0f9 	udiv	r0, lr, r9
 8000e7a:	0c1c      	lsrs	r4, r3, #16
 8000e7c:	fb09 ee10 	mls	lr, r9, r0, lr
 8000e80:	ea44 440e 	orr.w	r4, r4, lr, lsl #16
 8000e84:	fb00 fe0c 	mul.w	lr, r0, ip
 8000e88:	45a6      	cmp	lr, r4
 8000e8a:	fa02 f201 	lsl.w	r2, r2, r1
 8000e8e:	d909      	bls.n	8000ea4 <__udivmoddi4+0x1a0>
 8000e90:	193c      	adds	r4, r7, r4
 8000e92:	f100 3aff 	add.w	sl, r0, #4294967295
 8000e96:	f080 809c 	bcs.w	8000fd2 <__udivmoddi4+0x2ce>
 8000e9a:	45a6      	cmp	lr, r4
 8000e9c:	f240 8099 	bls.w	8000fd2 <__udivmoddi4+0x2ce>
 8000ea0:	3802      	subs	r0, #2
 8000ea2:	443c      	add	r4, r7
 8000ea4:	eba4 040e 	sub.w	r4, r4, lr
 8000ea8:	fa1f fe83 	uxth.w	lr, r3
 8000eac:	fbb4 f3f9 	udiv	r3, r4, r9
 8000eb0:	fb09 4413 	mls	r4, r9, r3, r4
 8000eb4:	ea4e 4404 	orr.w	r4, lr, r4, lsl #16
 8000eb8:	fb03 fc0c 	mul.w	ip, r3, ip
 8000ebc:	45a4      	cmp	ip, r4
 8000ebe:	d908      	bls.n	8000ed2 <__udivmoddi4+0x1ce>
 8000ec0:	193c      	adds	r4, r7, r4
 8000ec2:	f103 3eff 	add.w	lr, r3, #4294967295
 8000ec6:	f080 8082 	bcs.w	8000fce <__udivmoddi4+0x2ca>
 8000eca:	45a4      	cmp	ip, r4
 8000ecc:	d97f      	bls.n	8000fce <__udivmoddi4+0x2ca>
 8000ece:	3b02      	subs	r3, #2
 8000ed0:	443c      	add	r4, r7
 8000ed2:	ea43 4000 	orr.w	r0, r3, r0, lsl #16
 8000ed6:	eba4 040c 	sub.w	r4, r4, ip
 8000eda:	fba0 ec02 	umull	lr, ip, r0, r2
 8000ede:	4564      	cmp	r4, ip
 8000ee0:	4673      	mov	r3, lr
 8000ee2:	46e1      	mov	r9, ip
 8000ee4:	d362      	bcc.n	8000fac <__udivmoddi4+0x2a8>
 8000ee6:	d05f      	beq.n	8000fa8 <__udivmoddi4+0x2a4>
 8000ee8:	b15d      	cbz	r5, 8000f02 <__udivmoddi4+0x1fe>
 8000eea:	ebb8 0203 	subs.w	r2, r8, r3
 8000eee:	eb64 0409 	sbc.w	r4, r4, r9
 8000ef2:	fa04 f606 	lsl.w	r6, r4, r6
 8000ef6:	fa22 f301 	lsr.w	r3, r2, r1
 8000efa:	431e      	orrs	r6, r3
 8000efc:	40cc      	lsrs	r4, r1
 8000efe:	e9c5 6400 	strd	r6, r4, [r5]
 8000f02:	2100      	movs	r1, #0
 8000f04:	e74f      	b.n	8000da6 <__udivmoddi4+0xa2>
 8000f06:	fbb1 fcf2 	udiv	ip, r1, r2
 8000f0a:	0c01      	lsrs	r1, r0, #16
 8000f0c:	ea41 410e 	orr.w	r1, r1, lr, lsl #16
 8000f10:	b280      	uxth	r0, r0
 8000f12:	ea40 4201 	orr.w	r2, r0, r1, lsl #16
 8000f16:	463b      	mov	r3, r7
 8000f18:	4638      	mov	r0, r7
 8000f1a:	463c      	mov	r4, r7
 8000f1c:	46b8      	mov	r8, r7
 8000f1e:	46be      	mov	lr, r7
 8000f20:	2620      	movs	r6, #32
 8000f22:	fbb1 f1f7 	udiv	r1, r1, r7
 8000f26:	eba2 0208 	sub.w	r2, r2, r8
 8000f2a:	ea41 410c 	orr.w	r1, r1, ip, lsl #16
 8000f2e:	e766      	b.n	8000dfe <__udivmoddi4+0xfa>
 8000f30:	4601      	mov	r1, r0
 8000f32:	e718      	b.n	8000d66 <__udivmoddi4+0x62>
 8000f34:	4610      	mov	r0, r2
 8000f36:	e72c      	b.n	8000d92 <__udivmoddi4+0x8e>
 8000f38:	f1c6 0220 	rsb	r2, r6, #32
 8000f3c:	fa2e f302 	lsr.w	r3, lr, r2
 8000f40:	40b7      	lsls	r7, r6
 8000f42:	40b1      	lsls	r1, r6
 8000f44:	fa20 f202 	lsr.w	r2, r0, r2
 8000f48:	ea4f 4e17 	mov.w	lr, r7, lsr #16
 8000f4c:	430a      	orrs	r2, r1
 8000f4e:	fbb3 f8fe 	udiv	r8, r3, lr
 8000f52:	b2bc      	uxth	r4, r7
 8000f54:	fb0e 3318 	mls	r3, lr, r8, r3
 8000f58:	0c11      	lsrs	r1, r2, #16
 8000f5a:	ea41 4103 	orr.w	r1, r1, r3, lsl #16
 8000f5e:	fb08 f904 	mul.w	r9, r8, r4
 8000f62:	40b0      	lsls	r0, r6
 8000f64:	4589      	cmp	r9, r1
 8000f66:	ea4f 4310 	mov.w	r3, r0, lsr #16
 8000f6a:	b280      	uxth	r0, r0
 8000f6c:	d93e      	bls.n	8000fec <__udivmoddi4+0x2e8>
 8000f6e:	1879      	adds	r1, r7, r1
 8000f70:	f108 3cff 	add.w	ip, r8, #4294967295
 8000f74:	d201      	bcs.n	8000f7a <__udivmoddi4+0x276>
 8000f76:	4589      	cmp	r9, r1
 8000f78:	d81f      	bhi.n	8000fba <__udivmoddi4+0x2b6>
 8000f7a:	eba1 0109 	sub.w	r1, r1, r9
 8000f7e:	fbb1 f9fe 	udiv	r9, r1, lr
 8000f82:	fb09 f804 	mul.w	r8, r9, r4
 8000f86:	fb0e 1119 	mls	r1, lr, r9, r1
 8000f8a:	b292      	uxth	r2, r2
 8000f8c:	ea42 4201 	orr.w	r2, r2, r1, lsl #16
 8000f90:	4542      	cmp	r2, r8
 8000f92:	d229      	bcs.n	8000fe8 <__udivmoddi4+0x2e4>
 8000f94:	18ba      	adds	r2, r7, r2
 8000f96:	f109 31ff 	add.w	r1, r9, #4294967295
 8000f9a:	d2c4      	bcs.n	8000f26 <__udivmoddi4+0x222>
 8000f9c:	4542      	cmp	r2, r8
 8000f9e:	d2c2      	bcs.n	8000f26 <__udivmoddi4+0x222>
 8000fa0:	f1a9 0102 	sub.w	r1, r9, #2
 8000fa4:	443a      	add	r2, r7
 8000fa6:	e7be      	b.n	8000f26 <__udivmoddi4+0x222>
 8000fa8:	45f0      	cmp	r8, lr
 8000faa:	d29d      	bcs.n	8000ee8 <__udivmoddi4+0x1e4>
 8000fac:	ebbe 0302 	subs.w	r3, lr, r2
 8000fb0:	eb6c 0c07 	sbc.w	ip, ip, r7
 8000fb4:	3801      	subs	r0, #1
 8000fb6:	46e1      	mov	r9, ip
 8000fb8:	e796      	b.n	8000ee8 <__udivmoddi4+0x1e4>
 8000fba:	eba7 0909 	sub.w	r9, r7, r9
 8000fbe:	4449      	add	r1, r9
 8000fc0:	f1a8 0c02 	sub.w	ip, r8, #2
 8000fc4:	fbb1 f9fe 	udiv	r9, r1, lr
 8000fc8:	fb09 f804 	mul.w	r8, r9, r4
 8000fcc:	e7db      	b.n	8000f86 <__udivmoddi4+0x282>
 8000fce:	4673      	mov	r3, lr
 8000fd0:	e77f      	b.n	8000ed2 <__udivmoddi4+0x1ce>
 8000fd2:	4650      	mov	r0, sl
 8000fd4:	e766      	b.n	8000ea4 <__udivmoddi4+0x1a0>
 8000fd6:	4608      	mov	r0, r1
 8000fd8:	e6fd      	b.n	8000dd6 <__udivmoddi4+0xd2>
 8000fda:	443b      	add	r3, r7
 8000fdc:	3a02      	subs	r2, #2
 8000fde:	e733      	b.n	8000e48 <__udivmoddi4+0x144>
 8000fe0:	f1ac 0c02 	sub.w	ip, ip, #2
 8000fe4:	443b      	add	r3, r7
 8000fe6:	e71c      	b.n	8000e22 <__udivmoddi4+0x11e>
 8000fe8:	4649      	mov	r1, r9
 8000fea:	e79c      	b.n	8000f26 <__udivmoddi4+0x222>
 8000fec:	eba1 0109 	sub.w	r1, r1, r9
 8000ff0:	46c4      	mov	ip, r8
 8000ff2:	fbb1 f9fe 	udiv	r9, r1, lr
 8000ff6:	fb09 f804 	mul.w	r8, r9, r4
 8000ffa:	e7c4      	b.n	8000f86 <__udivmoddi4+0x282>

08000ffc <__aeabi_idiv0>:
 8000ffc:	4770      	bx	lr
 8000ffe:	bf00      	nop

08001000 <apInit>:

void cliBoot(cli_args_t *args);
// Cli boot    

void apInit(void)
{
 8001000:	b508      	push	{r3, lr}
  cliOpen(_DEF_UART1, 57600);
 8001002:	f44f 4161 	mov.w	r1, #57600	@ 0xe100
 8001006:	2000      	movs	r0, #0
 8001008:	f000 fb0a 	bl	8001620 <cliOpen>

  cliAdd("boot",cliBoot);
}
 800100c:	e8bd 4008 	ldmia.w	sp!, {r3, lr}
  cliAdd("boot",cliBoot);
 8001010:	4901      	ldr	r1, [pc, #4]	@ (8001018 <apInit+0x18>)
 8001012:	4802      	ldr	r0, [pc, #8]	@ (800101c <apInit+0x1c>)
 8001014:	f000 be00 	b.w	8001c18 <cliAdd>
 8001018:	08001119 	.word	0x08001119
 800101c:	080088f8 	.word	0x080088f8

08001020 <apMain>:

void apMain(void)
{
 8001020:	b510      	push	{r4, lr}
  uint32_t pre_time;

  pre_time = millis();
 8001022:	f000 f8b7 	bl	8001194 <millis>
 8001026:	4604      	mov	r4, r0
  while(1)
  {
    if (millis()-pre_time >= 500)
 8001028:	f000 f8b4 	bl	8001194 <millis>
 800102c:	1b00      	subs	r0, r0, r4
 800102e:	f5b0 7ffa 	cmp.w	r0, #500	@ 0x1f4
 8001032:	d305      	bcc.n	8001040 <apMain+0x20>
    {
      pre_time = millis();
 8001034:	f000 f8ae 	bl	8001194 <millis>
 8001038:	4604      	mov	r4, r0
      ledToggle(_DEF_LED1);
 800103a:	2000      	movs	r0, #0
 800103c:	f000 ff92 	bl	8001f64 <ledToggle>
    }

    cliMain();
 8001040:	f000 fc00 	bl	8001844 <cliMain>
    if (millis()-pre_time >= 500)
 8001044:	e7f0      	b.n	8001028 <apMain+0x8>
	...

08001048 <bootDownload>:
  }
}


bool bootDownload(void)
{
 8001048:	e92d 43f0 	stmdb	sp!, {r4, r5, r6, r7, r8, r9, lr}
 800104c:	f2ad 4dcc 	subw	sp, sp, #1228	@ 0x4cc
  uint8_t err_code = 0;
  uint32_t pre_time;
  ymodem_t ymodem; //  


  ymodemOpen(&ymodem, _DEF_UART1); // 
 8001050:	2100      	movs	r1, #0
 8001052:	4668      	mov	r0, sp
 8001054:	f001 f834 	bl	80020c0 <ymodemOpen>


  cliPrintf("download ..."); // download 
 8001058:	482b      	ldr	r0, [pc, #172]	@ (8001108 <bootDownload+0xc0>)
 800105a:	f000 fb47 	bl	80016ec <cliPrintf>
  pre_time = millis();
 800105e:	f000 f899 	bl	8001194 <millis>
  uint8_t err_code = 0;
 8001062:	2500      	movs	r5, #0
  pre_time = millis();
 8001064:	4606      	mov	r6, r0
  bool ret = false;
 8001066:	46a8      	mov	r8, r5
          break;
      }

      ymodemAck(&ymodem); // ACK ymodem    
    }
    if (millis()-pre_time >= 10*1000)
 8001068:	f242 790f 	movw	r9, #9999	@ 0x270f
    if (ymodemReceive(&ymodem) == true)
 800106c:	4668      	mov	r0, sp
 800106e:	f001 f89f 	bl	80021b0 <ymodemReceive>
 8001072:	4607      	mov	r7, r0
 8001074:	2800      	cmp	r0, #0
 8001076:	d03d      	beq.n	80010f4 <bootDownload+0xac>
      pre_time = millis();
 8001078:	f000 f88c 	bl	8001194 <millis>
      switch(ymodem.type)
 800107c:	f89d 3008 	ldrb.w	r3, [sp, #8]
      pre_time = millis();
 8001080:	4606      	mov	r6, r0
      switch(ymodem.type)
 8001082:	2b04      	cmp	r3, #4
 8001084:	d80a      	bhi.n	800109c <bootDownload+0x54>
 8001086:	e8df f003 	tbb	[pc, r3]
 800108a:	1f03      	.short	0x1f03
 800108c:	2e31      	.short	0x2e31
 800108e:	2e          	.byte	0x2e
 800108f:	00          	.byte	0x00
          if (flashErase(FLASH_ADDR_FW, ymodem.file_length) != true)
 8001090:	9928      	ldr	r1, [sp, #160]	@ 0xa0
 8001092:	481e      	ldr	r0, [pc, #120]	@ (800110c <bootDownload+0xc4>)
 8001094:	f000 fe22 	bl	8001cdc <flashErase>
 8001098:	4604      	mov	r4, r0
 800109a:	b348      	cbz	r0, 80010f0 <bootDownload+0xa8>
          keep_loop = false;
 800109c:	463c      	mov	r4, r7
      ymodemAck(&ymodem); // ACK ymodem    
 800109e:	4668      	mov	r0, sp
 80010a0:	f001 f85d 	bl	800215e <ymodemAck>
    if (millis()-pre_time >= 10*1000)
 80010a4:	f000 f876 	bl	8001194 <millis>
 80010a8:	1b80      	subs	r0, r0, r6
 80010aa:	4548      	cmp	r0, r9
 80010ac:	d824      	bhi.n	80010f8 <bootDownload+0xb0>
  while(keep_loop)
 80010ae:	2c00      	cmp	r4, #0
 80010b0:	d1dc      	bne.n	800106c <bootDownload+0x24>
      err_code = 5;
    }
  }


  if (ret == true)
 80010b2:	f1b8 0f00 	cmp.w	r8, #0
 80010b6:	d021      	beq.n	80010fc <bootDownload+0xb4>
  {
    cliPrintf("OK\n");
 80010b8:	4815      	ldr	r0, [pc, #84]	@ (8001110 <bootDownload+0xc8>)
 80010ba:	f000 fb17 	bl	80016ec <cliPrintf>
  {
    cliPrintf("Fail %d\n", err_code);
  }

  return ret;
}
 80010be:	4640      	mov	r0, r8
 80010c0:	f20d 4dcc 	addw	sp, sp, #1228	@ 0x4cc
 80010c4:	e8bd 83f0 	ldmia.w	sp!, {r4, r5, r6, r7, r8, r9, pc}
          if (flashWrite(FLASH_ADDR_FW + ymodem.file_addr, ymodem.file_buf, ymodem.file_buf_length) != true)
 80010c8:	9827      	ldr	r0, [sp, #156]	@ 0x9c
 80010ca:	f8bd 20ac 	ldrh.w	r2, [sp, #172]	@ 0xac
 80010ce:	992a      	ldr	r1, [sp, #168]	@ 0xa8
 80010d0:	f100 6000 	add.w	r0, r0, #134217728	@ 0x8000000
 80010d4:	f500 3080 	add.w	r0, r0, #65536	@ 0x10000
 80010d8:	f000 fe50 	bl	8001d7c <flashWrite>
 80010dc:	4604      	mov	r4, r0
 80010de:	2800      	cmp	r0, #0
 80010e0:	d1dc      	bne.n	800109c <bootDownload+0x54>
            err_code = 2;
 80010e2:	2502      	movs	r5, #2
 80010e4:	e7db      	b.n	800109e <bootDownload+0x56>
          err_code = 4;
 80010e6:	461d      	mov	r5, r3
      switch(ymodem.type)
 80010e8:	2400      	movs	r4, #0
 80010ea:	e7d8      	b.n	800109e <bootDownload+0x56>
 80010ec:	46b8      	mov	r8, r7
 80010ee:	e7fb      	b.n	80010e8 <bootDownload+0xa0>
            err_code = 1;
 80010f0:	2501      	movs	r5, #1
 80010f2:	e7d4      	b.n	800109e <bootDownload+0x56>
 80010f4:	2401      	movs	r4, #1
 80010f6:	e7d5      	b.n	80010a4 <bootDownload+0x5c>
      err_code = 5;
 80010f8:	2505      	movs	r5, #5
 80010fa:	e7da      	b.n	80010b2 <bootDownload+0x6a>
    cliPrintf("Fail %d\n", err_code);
 80010fc:	4805      	ldr	r0, [pc, #20]	@ (8001114 <bootDownload+0xcc>)
 80010fe:	4629      	mov	r1, r5
 8001100:	f000 faf4 	bl	80016ec <cliPrintf>
 8001104:	e7db      	b.n	80010be <bootDownload+0x76>
 8001106:	bf00      	nop
 8001108:	080088fd 	.word	0x080088fd
 800110c:	08010000 	.word	0x08010000
 8001110:	08008acf 	.word	0x08008acf
 8001114:	0800890a 	.word	0x0800890a

08001118 <cliBoot>:


void cliBoot(cli_args_t *args)
{
 8001118:	b538      	push	{r3, r4, r5, lr}
	bool ret = false;

	  if (args->argc == 1 && args->isStr(0, "info"))
 800111a:	8803      	ldrh	r3, [r0, #0]
 800111c:	2b01      	cmp	r3, #1
{
 800111e:	4604      	mov	r4, r0
	  if (args->argc == 1 && args->isStr(0, "info"))
 8001120:	d00c      	beq.n	800113c <cliBoot+0x24>
	bool ret = false;
 8001122:	2500      	movs	r5, #0
	    cliPrintf("Flash Start : 0x%X\n", FLASH_ADDR_FW);
	    cliPrintf("Flash End   : 0x%X\n", FLASH_ADDR_END);
	    ret = true;
	  }

	  if (args->argc == 1 && args->isStr(0, "down_fw"))
 8001124:	8823      	ldrh	r3, [r4, #0]
 8001126:	2b01      	cmp	r3, #1
 8001128:	d118      	bne.n	800115c <cliBoot+0x44>
 800112a:	6963      	ldr	r3, [r4, #20]
 800112c:	4910      	ldr	r1, [pc, #64]	@ (8001170 <cliBoot+0x58>)
 800112e:	2000      	movs	r0, #0
 8001130:	4798      	blx	r3
 8001132:	b198      	cbz	r0, 800115c <cliBoot+0x44>
	  {
	    cliPrintf("boot info\n");
	    cliPrintf("boot down_fw\n");
	  }

}
 8001134:	e8bd 4038 	ldmia.w	sp!, {r3, r4, r5, lr}
	    bootDownload();
 8001138:	f7ff bf86 	b.w	8001048 <bootDownload>
	  if (args->argc == 1 && args->isStr(0, "info"))
 800113c:	6943      	ldr	r3, [r0, #20]
 800113e:	490d      	ldr	r1, [pc, #52]	@ (8001174 <cliBoot+0x5c>)
 8001140:	2000      	movs	r0, #0
 8001142:	4798      	blx	r3
 8001144:	4605      	mov	r5, r0
 8001146:	2800      	cmp	r0, #0
 8001148:	d0eb      	beq.n	8001122 <cliBoot+0xa>
	    cliPrintf("Flash Start : 0x%X\n", FLASH_ADDR_FW);
 800114a:	490b      	ldr	r1, [pc, #44]	@ (8001178 <cliBoot+0x60>)
 800114c:	480b      	ldr	r0, [pc, #44]	@ (800117c <cliBoot+0x64>)
 800114e:	f000 facd 	bl	80016ec <cliPrintf>
	    cliPrintf("Flash End   : 0x%X\n", FLASH_ADDR_END);
 8001152:	490b      	ldr	r1, [pc, #44]	@ (8001180 <cliBoot+0x68>)
 8001154:	480b      	ldr	r0, [pc, #44]	@ (8001184 <cliBoot+0x6c>)
 8001156:	f000 fac9 	bl	80016ec <cliPrintf>
	    ret = true;
 800115a:	e7e3      	b.n	8001124 <cliBoot+0xc>
	  if (ret != true)
 800115c:	b93d      	cbnz	r5, 800116e <cliBoot+0x56>
	    cliPrintf("boot info\n");
 800115e:	480a      	ldr	r0, [pc, #40]	@ (8001188 <cliBoot+0x70>)
 8001160:	f000 fac4 	bl	80016ec <cliPrintf>
}
 8001164:	e8bd 4038 	ldmia.w	sp!, {r3, r4, r5, lr}
	    cliPrintf("boot down_fw\n");
 8001168:	4808      	ldr	r0, [pc, #32]	@ (800118c <cliBoot+0x74>)
 800116a:	f000 babf 	b.w	80016ec <cliPrintf>
}
 800116e:	bd38      	pop	{r3, r4, r5, pc}
 8001170:	08008940 	.word	0x08008940
 8001174:	08008913 	.word	0x08008913
 8001178:	08010000 	.word	0x08010000
 800117c:	08008918 	.word	0x08008918
 8001180:	08080000 	.word	0x08080000
 8001184:	0800892c 	.word	0x0800892c
 8001188:	08008948 	.word	0x08008948
 800118c:	08008953 	.word	0x08008953

08001190 <delay>:
  else
  {
    HAL_Delay(ms);
  }
#else
  HAL_Delay(ms);
 8001190:	f002 baec 	b.w	800376c <HAL_Delay>

08001194 <millis>:
#endif
}

uint32_t millis(void)
{
  return HAL_GetTick();
 8001194:	f002 bae4 	b.w	8003760 <HAL_GetTick>

08001198 <__io_putchar>:

int __io_putchar(int ch)
{
  //uartWrite(_DEF_UART2, (uint8_t *)&ch, 1);
  return 1;
}
 8001198:	2001      	movs	r0, #1
 800119a:	4770      	bx	lr

0800119c <SystemClock_Config>:



void SystemClock_Config(void)
{
 800119c:	b530      	push	{r4, r5, lr}
 800119e:	b095      	sub	sp, #84	@ 0x54
  RCC_OscInitTypeDef RCC_OscInitStruct = {0};
 80011a0:	2210      	movs	r2, #16
 80011a2:	2100      	movs	r1, #0
 80011a4:	a80a      	add	r0, sp, #40	@ 0x28
 80011a6:	f005 fafb 	bl	80067a0 <memset>
  RCC_ClkInitTypeDef RCC_ClkInitStruct = {0};
 80011aa:	2214      	movs	r2, #20
 80011ac:	2100      	movs	r1, #0
 80011ae:	a803      	add	r0, sp, #12
 80011b0:	f005 faf6 	bl	80067a0 <memset>

  /** Configure the main internal regulator output voltage
  */
  __HAL_RCC_PWR_CLK_ENABLE();
 80011b4:	2400      	movs	r4, #0
 80011b6:	4b1c      	ldr	r3, [pc, #112]	@ (8001228 <SystemClock_Config+0x8c>)
 80011b8:	9401      	str	r4, [sp, #4]
 80011ba:	6c1a      	ldr	r2, [r3, #64]	@ 0x40
 80011bc:	f042 5280 	orr.w	r2, r2, #268435456	@ 0x10000000
 80011c0:	641a      	str	r2, [r3, #64]	@ 0x40
 80011c2:	6c1b      	ldr	r3, [r3, #64]	@ 0x40
 80011c4:	f003 5380 	and.w	r3, r3, #268435456	@ 0x10000000
 80011c8:	9301      	str	r3, [sp, #4]
 80011ca:	9b01      	ldr	r3, [sp, #4]
  __HAL_PWR_VOLTAGESCALING_CONFIG(PWR_REGULATOR_VOLTAGE_SCALE1);
 80011cc:	4b17      	ldr	r3, [pc, #92]	@ (800122c <SystemClock_Config+0x90>)
 80011ce:	9402      	str	r4, [sp, #8]
 80011d0:	681a      	ldr	r2, [r3, #0]
 80011d2:	f442 4240 	orr.w	r2, r2, #49152	@ 0xc000
 80011d6:	601a      	str	r2, [r3, #0]
 80011d8:	681b      	ldr	r3, [r3, #0]
 80011da:	f403 4340 	and.w	r3, r3, #49152	@ 0xc000
 80011de:	9302      	str	r3, [sp, #8]
  /** Initializes the RCC Oscillators according to the specified parameters
  * in the RCC_OscInitTypeDef structure.
  */
  RCC_OscInitStruct.OscillatorType = RCC_OSCILLATORTYPE_HSE;
  RCC_OscInitStruct.HSEState = RCC_HSE_ON;
 80011e0:	2201      	movs	r2, #1
  __HAL_PWR_VOLTAGESCALING_CONFIG(PWR_REGULATOR_VOLTAGE_SCALE1);
 80011e2:	9b02      	ldr	r3, [sp, #8]
  RCC_OscInitStruct.HSEState = RCC_HSE_ON;
 80011e4:	f44f 3380 	mov.w	r3, #65536	@ 0x10000
 80011e8:	e9cd 2308 	strd	r2, r3, [sp, #32]
  RCC_OscInitStruct.PLL.PLLState = RCC_PLL_ON;
  RCC_OscInitStruct.PLL.PLLSource = RCC_PLLSOURCE_HSE;
 80011ec:	2502      	movs	r5, #2
 80011ee:	f44f 0380 	mov.w	r3, #4194304	@ 0x400000
 80011f2:	e9cd 530e 	strd	r5, r3, [sp, #56]	@ 0x38
  RCC_OscInitStruct.PLL.PLLM = 25;
  RCC_OscInitStruct.PLL.PLLN = 192;
 80011f6:	2119      	movs	r1, #25
 80011f8:	23c0      	movs	r3, #192	@ 0xc0
 80011fa:	e9cd 1310 	strd	r1, r3, [sp, #64]	@ 0x40
  RCC_OscInitStruct.PLL.PLLP = RCC_PLLP_DIV2;
  RCC_OscInitStruct.PLL.PLLQ = 4;
  if (HAL_RCC_OscConfig(&RCC_OscInitStruct) != HAL_OK)
 80011fe:	a808      	add	r0, sp, #32
  RCC_OscInitStruct.PLL.PLLQ = 4;
 8001200:	2304      	movs	r3, #4
 8001202:	9313      	str	r3, [sp, #76]	@ 0x4c
  RCC_OscInitStruct.PLL.PLLP = RCC_PLLP_DIV2;
 8001204:	9512      	str	r5, [sp, #72]	@ 0x48
  if (HAL_RCC_OscConfig(&RCC_OscInitStruct) != HAL_OK)
 8001206:	f003 faed 	bl	80047e4 <HAL_RCC_OscConfig>
  {
    Error_Handler();
  }
  /** Initializes the CPU, AHB and APB buses clocks
  */
  RCC_ClkInitStruct.ClockType = RCC_CLOCKTYPE_HCLK|RCC_CLOCKTYPE_SYSCLK
 800120a:	230f      	movs	r3, #15
                              |RCC_CLOCKTYPE_PCLK1|RCC_CLOCKTYPE_PCLK2;
  RCC_ClkInitStruct.SYSCLKSource = RCC_SYSCLKSOURCE_PLLCLK;
 800120c:	e9cd 3503 	strd	r3, r5, [sp, #12]
  RCC_ClkInitStruct.AHBCLKDivider = RCC_SYSCLK_DIV1;
  RCC_ClkInitStruct.APB1CLKDivider = RCC_HCLK_DIV2;
  RCC_ClkInitStruct.APB2CLKDivider = RCC_HCLK_DIV1;

  if (HAL_RCC_ClockConfig(&RCC_ClkInitStruct, FLASH_LATENCY_3) != HAL_OK)
 8001210:	2103      	movs	r1, #3
  RCC_ClkInitStruct.APB1CLKDivider = RCC_HCLK_DIV2;
 8001212:	f44f 5380 	mov.w	r3, #4096	@ 0x1000
  if (HAL_RCC_ClockConfig(&RCC_ClkInitStruct, FLASH_LATENCY_3) != HAL_OK)
 8001216:	a803      	add	r0, sp, #12
  RCC_ClkInitStruct.APB2CLKDivider = RCC_HCLK_DIV1;
 8001218:	e9cd 3406 	strd	r3, r4, [sp, #24]
  RCC_ClkInitStruct.AHBCLKDivider = RCC_SYSCLK_DIV1;
 800121c:	9405      	str	r4, [sp, #20]
  if (HAL_RCC_ClockConfig(&RCC_ClkInitStruct, FLASH_LATENCY_3) != HAL_OK)
 800121e:	f003 fcbd 	bl	8004b9c <HAL_RCC_ClockConfig>
  {
    Error_Handler();
  }
}
 8001222:	b015      	add	sp, #84	@ 0x54
 8001224:	bd30      	pop	{r4, r5, pc}
 8001226:	bf00      	nop
 8001228:	40023800 	.word	0x40023800
 800122c:	40007000 	.word	0x40007000

08001230 <bspInit>:
{
 8001230:	b507      	push	{r0, r1, r2, lr}
  HAL_Init();
 8001232:	f002 fa6f 	bl	8003714 <HAL_Init>
  SystemClock_Config();
 8001236:	f7ff ffb1 	bl	800119c <SystemClock_Config>
  __HAL_RCC_GPIOC_CLK_ENABLE();
 800123a:	4b0c      	ldr	r3, [pc, #48]	@ (800126c <bspInit+0x3c>)
 800123c:	2100      	movs	r1, #0
 800123e:	9100      	str	r1, [sp, #0]
 8001240:	6b1a      	ldr	r2, [r3, #48]	@ 0x30
 8001242:	f042 0204 	orr.w	r2, r2, #4
 8001246:	631a      	str	r2, [r3, #48]	@ 0x30
 8001248:	6b1a      	ldr	r2, [r3, #48]	@ 0x30
 800124a:	f002 0204 	and.w	r2, r2, #4
 800124e:	9200      	str	r2, [sp, #0]
 8001250:	9a00      	ldr	r2, [sp, #0]
  __HAL_RCC_GPIOH_CLK_ENABLE();
 8001252:	9101      	str	r1, [sp, #4]
 8001254:	6b1a      	ldr	r2, [r3, #48]	@ 0x30
 8001256:	f042 0280 	orr.w	r2, r2, #128	@ 0x80
 800125a:	631a      	str	r2, [r3, #48]	@ 0x30
 800125c:	6b1b      	ldr	r3, [r3, #48]	@ 0x30
 800125e:	f003 0380 	and.w	r3, r3, #128	@ 0x80
 8001262:	9301      	str	r3, [sp, #4]
 8001264:	9b01      	ldr	r3, [sp, #4]
}
 8001266:	b003      	add	sp, #12
 8001268:	f85d fb04 	ldr.w	pc, [sp], #4
 800126c:	40023800 	.word	0x40023800

08001270 <Error_Handler>:
{
  /* USER CODE BEGIN Error_Handler_Debug */
  /* User can add his own implementation to report the HAL error return state */

  /* USER CODE END Error_Handler_Debug */
}
 8001270:	4770      	bx	lr
	...

08001274 <HAL_MspInit>:
/* USER CODE END 0 */
/**
  * Initializes the Global MSP.
  */
void HAL_MspInit(void)
{
 8001274:	b082      	sub	sp, #8
  /* USER CODE BEGIN MspInit 0 */

  /* USER CODE END MspInit 0 */

  __HAL_RCC_SYSCFG_CLK_ENABLE();
 8001276:	4b0c      	ldr	r3, [pc, #48]	@ (80012a8 <HAL_MspInit+0x34>)
 8001278:	2100      	movs	r1, #0
 800127a:	9100      	str	r1, [sp, #0]
 800127c:	6c5a      	ldr	r2, [r3, #68]	@ 0x44
 800127e:	f442 4280 	orr.w	r2, r2, #16384	@ 0x4000
 8001282:	645a      	str	r2, [r3, #68]	@ 0x44
 8001284:	6c5a      	ldr	r2, [r3, #68]	@ 0x44
 8001286:	f402 4280 	and.w	r2, r2, #16384	@ 0x4000
 800128a:	9200      	str	r2, [sp, #0]
 800128c:	9a00      	ldr	r2, [sp, #0]
  __HAL_RCC_PWR_CLK_ENABLE();
 800128e:	9101      	str	r1, [sp, #4]
 8001290:	6c1a      	ldr	r2, [r3, #64]	@ 0x40
 8001292:	f042 5280 	orr.w	r2, r2, #268435456	@ 0x10000000
 8001296:	641a      	str	r2, [r3, #64]	@ 0x40
 8001298:	6c1b      	ldr	r3, [r3, #64]	@ 0x40
 800129a:	f003 5380 	and.w	r3, r3, #268435456	@ 0x10000000
 800129e:	9301      	str	r3, [sp, #4]
 80012a0:	9b01      	ldr	r3, [sp, #4]
  /* System interrupt init*/

  /* USER CODE BEGIN MspInit 1 */

  /* USER CODE END MspInit 1 */
}
 80012a2:	b002      	add	sp, #8
 80012a4:	4770      	bx	lr
 80012a6:	bf00      	nop
 80012a8:	40023800 	.word	0x40023800

080012ac <NMI_Handler>:

  /* USER CODE END NonMaskableInt_IRQn 0 */
  /* USER CODE BEGIN NonMaskableInt_IRQn 1 */

  /* USER CODE END NonMaskableInt_IRQn 1 */
}
 80012ac:	4770      	bx	lr

080012ae <HardFault_Handler>:
void HardFault_Handler(void)
{
  /* USER CODE BEGIN HardFault_IRQn 0 */

  /* USER CODE END HardFault_IRQn 0 */
  while (1)
 80012ae:	e7fe      	b.n	80012ae <HardFault_Handler>

080012b0 <MemManage_Handler>:
void MemManage_Handler(void)
{
  /* USER CODE BEGIN MemoryManagement_IRQn 0 */

  /* USER CODE END MemoryManagement_IRQn 0 */
  while (1)
 80012b0:	e7fe      	b.n	80012b0 <MemManage_Handler>

080012b2 <BusFault_Handler>:
void BusFault_Handler(void)
{
  /* USER CODE BEGIN BusFault_IRQn 0 */

  /* USER CODE END BusFault_IRQn 0 */
  while (1)
 80012b2:	e7fe      	b.n	80012b2 <BusFault_Handler>

080012b4 <UsageFault_Handler>:
void UsageFault_Handler(void)
{
  /* USER CODE BEGIN UsageFault_IRQn 0 */

  /* USER CODE END UsageFault_IRQn 0 */
  while (1)
 80012b4:	e7fe      	b.n	80012b4 <UsageFault_Handler>

080012b6 <SVC_Handler>:
}

/**
  * @brief This function handles System service call via SWI instruction.
  */
void SVC_Handler(void)
 80012b6:	4770      	bx	lr

080012b8 <DebugMon_Handler>:
}

/**
  * @brief This function handles Debug monitor.
  */
void DebugMon_Handler(void)
 80012b8:	4770      	bx	lr

080012ba <PendSV_Handler>:
}

/**
  * @brief This function handles Pendable request for system service.
  */
void PendSV_Handler(void)
 80012ba:	4770      	bx	lr

080012bc <SysTick_Handler>:
void SysTick_Handler(void)
{
  /* USER CODE BEGIN SysTick_IRQn 0 */

  /* USER CODE END SysTick_IRQn 0 */
  HAL_IncTick();
 80012bc:	f002 ba44 	b.w	8003748 <HAL_IncTick>

080012c0 <OTG_FS_IRQHandler>:
void OTG_FS_IRQHandler(void)
{
  /* USER CODE BEGIN OTG_FS_IRQn 0 */

  /* USER CODE END OTG_FS_IRQn 0 */
  HAL_PCD_IRQHandler(&hpcd_USB_OTG_FS);
 80012c0:	4801      	ldr	r0, [pc, #4]	@ (80012c8 <OTG_FS_IRQHandler+0x8>)
 80012c2:	f002 bf23 	b.w	800410c <HAL_PCD_IRQHandler>
 80012c6:	bf00      	nop
 80012c8:	20001a50 	.word	0x20001a50

080012cc <_getpid>:
}

int _getpid(void)
{
	return 1;
}
 80012cc:	2001      	movs	r0, #1
 80012ce:	4770      	bx	lr

080012d0 <_kill>:

int _kill(int pid, int sig)
{
 80012d0:	b508      	push	{r3, lr}
	errno = EINVAL;
 80012d2:	f005 faf1 	bl	80068b8 <__errno>
 80012d6:	2316      	movs	r3, #22
 80012d8:	6003      	str	r3, [r0, #0]
	return -1;
}
 80012da:	f04f 30ff 	mov.w	r0, #4294967295
 80012de:	bd08      	pop	{r3, pc}

080012e0 <_exit>:

void _exit (int status)
{
 80012e0:	b508      	push	{r3, lr}
	errno = EINVAL;
 80012e2:	f005 fae9 	bl	80068b8 <__errno>
 80012e6:	2316      	movs	r3, #22
 80012e8:	6003      	str	r3, [r0, #0]
	_kill(status, -1);
	while (1) {}		/* Make sure we hang here */
 80012ea:	e7fe      	b.n	80012ea <_exit+0xa>

080012ec <_read>:
}

__attribute__((weak)) int _read(int file, char *ptr, int len)
{
 80012ec:	b570      	push	{r4, r5, r6, lr}
 80012ee:	460d      	mov	r5, r1
 80012f0:	4614      	mov	r4, r2
	int DataIdx;

	for (DataIdx = 0; DataIdx < len; DataIdx++)
 80012f2:	460e      	mov	r6, r1
 80012f4:	1b73      	subs	r3, r6, r5
 80012f6:	429c      	cmp	r4, r3
 80012f8:	dc01      	bgt.n	80012fe <_read+0x12>
	{
		*ptr++ = __io_getchar();
	}

return len;
}
 80012fa:	4620      	mov	r0, r4
 80012fc:	bd70      	pop	{r4, r5, r6, pc}
		*ptr++ = __io_getchar();
 80012fe:	f3af 8000 	nop.w
 8001302:	f806 0b01 	strb.w	r0, [r6], #1
	for (DataIdx = 0; DataIdx < len; DataIdx++)
 8001306:	e7f5      	b.n	80012f4 <_read+0x8>

08001308 <_write>:

__attribute__((weak)) int _write(int file, char *ptr, int len)
{
 8001308:	b570      	push	{r4, r5, r6, lr}
 800130a:	460d      	mov	r5, r1
 800130c:	4614      	mov	r4, r2
	int DataIdx;

	for (DataIdx = 0; DataIdx < len; DataIdx++)
 800130e:	460e      	mov	r6, r1
 8001310:	1b73      	subs	r3, r6, r5
 8001312:	429c      	cmp	r4, r3
 8001314:	dc01      	bgt.n	800131a <_write+0x12>
	{
		__io_putchar(*ptr++);
	}
	return len;
}
 8001316:	4620      	mov	r0, r4
 8001318:	bd70      	pop	{r4, r5, r6, pc}
		__io_putchar(*ptr++);
 800131a:	f816 0b01 	ldrb.w	r0, [r6], #1
 800131e:	f7ff ff3b 	bl	8001198 <__io_putchar>
	for (DataIdx = 0; DataIdx < len; DataIdx++)
 8001322:	e7f5      	b.n	8001310 <_write+0x8>

08001324 <_close>:

int _close(int file)
{
	return -1;
}
 8001324:	f04f 30ff 	mov.w	r0, #4294967295
 8001328:	4770      	bx	lr

0800132a <_fstat>:


int _fstat(int file, struct stat *st)
{
	st->st_mode = S_IFCHR;
 800132a:	f44f 5300 	mov.w	r3, #8192	@ 0x2000
 800132e:	604b      	str	r3, [r1, #4]
	return 0;
}
 8001330:	2000      	movs	r0, #0
 8001332:	4770      	bx	lr

08001334 <_isatty>:

int _isatty(int file)
{
	return 1;
}
 8001334:	2001      	movs	r0, #1
 8001336:	4770      	bx	lr

08001338 <_lseek>:

int _lseek(int file, int ptr, int dir)
{
	return 0;
}
 8001338:	2000      	movs	r0, #0
 800133a:	4770      	bx	lr

0800133c <_sbrk>:
  const uint32_t stack_limit = (uint32_t)&_estack - (uint32_t)&_Min_Stack_Size;
  const uint8_t *max_heap = (uint8_t *)stack_limit;
  uint8_t *prev_heap_end;

  /* Initalize heap end at first call */
  if (NULL == __sbrk_heap_end)
 800133c:	4a0b      	ldr	r2, [pc, #44]	@ (800136c <_sbrk+0x30>)
 800133e:	6811      	ldr	r1, [r2, #0]
{
 8001340:	b510      	push	{r4, lr}
 8001342:	4603      	mov	r3, r0
  if (NULL == __sbrk_heap_end)
 8001344:	b909      	cbnz	r1, 800134a <_sbrk+0xe>
  {
    __sbrk_heap_end = &_end;
 8001346:	490a      	ldr	r1, [pc, #40]	@ (8001370 <_sbrk+0x34>)
 8001348:	6011      	str	r1, [r2, #0]
  }

  /* Protect heap from growing into the reserved MSP stack */
  if (__sbrk_heap_end + incr > max_heap)
 800134a:	6810      	ldr	r0, [r2, #0]
 800134c:	4909      	ldr	r1, [pc, #36]	@ (8001374 <_sbrk+0x38>)
 800134e:	4c0a      	ldr	r4, [pc, #40]	@ (8001378 <_sbrk+0x3c>)
 8001350:	4403      	add	r3, r0
 8001352:	1b09      	subs	r1, r1, r4
 8001354:	428b      	cmp	r3, r1
 8001356:	d906      	bls.n	8001366 <_sbrk+0x2a>
  {
    errno = ENOMEM;
 8001358:	f005 faae 	bl	80068b8 <__errno>
 800135c:	230c      	movs	r3, #12
 800135e:	6003      	str	r3, [r0, #0]
    return (void *)-1;
 8001360:	f04f 30ff 	mov.w	r0, #4294967295

  prev_heap_end = __sbrk_heap_end;
  __sbrk_heap_end += incr;

  return (void *)prev_heap_end;
}
 8001364:	bd10      	pop	{r4, pc}
  __sbrk_heap_end += incr;
 8001366:	6013      	str	r3, [r2, #0]
  return (void *)prev_heap_end;
 8001368:	e7fc      	b.n	8001364 <_sbrk+0x28>
 800136a:	bf00      	nop
 800136c:	200002fc 	.word	0x200002fc
 8001370:	200020a8 	.word	0x200020a8
 8001374:	20020000 	.word	0x20020000
 8001378:	00000400 	.word	0x00000400

0800137c <SystemInit>:
  */
void SystemInit(void)
{
  /* FPU settings ------------------------------------------------------------*/
  #if (__FPU_PRESENT == 1) && (__FPU_USED == 1)
    SCB->CPACR |= ((3UL << 10*2)|(3UL << 11*2));  /* set CP10 and CP11 Full Access */
 800137c:	4b05      	ldr	r3, [pc, #20]	@ (8001394 <SystemInit+0x18>)
 800137e:	f8d3 2088 	ldr.w	r2, [r3, #136]	@ 0x88
 8001382:	f442 0270 	orr.w	r2, r2, #15728640	@ 0xf00000
 8001386:	f8c3 2088 	str.w	r2, [r3, #136]	@ 0x88

  /* Configure the Vector Table location add offset address ------------------*/
#ifdef VECT_TAB_SRAM
  SCB->VTOR = SRAM_BASE | VECT_TAB_OFFSET; /* Vector Table Relocation in Internal SRAM */
#else
  SCB->VTOR = FLASH_BASE | VECT_TAB_OFFSET; /* Vector Table Relocation in Internal FLASH */
 800138a:	f04f 6200 	mov.w	r2, #134217728	@ 0x8000000
 800138e:	609a      	str	r2, [r3, #8]
#endif
}
 8001390:	4770      	bx	lr
 8001392:	bf00      	nop
 8001394:	e000ed00 	.word	0xe000ed00

08001398 <Reset_Handler>:

    .section  .text.Reset_Handler
  .weak  Reset_Handler
  .type  Reset_Handler, %function
Reset_Handler:  
  ldr   sp, =_estack    		 /* set stack pointer */
 8001398:	f8df d034 	ldr.w	sp, [pc, #52]	@ 80013d0 <LoopFillZerobss+0x14>

/* Copy the data segment initializers from flash to SRAM */  
  movs  r1, #0
 800139c:	2100      	movs	r1, #0
  b  LoopCopyDataInit
 800139e:	e003      	b.n	80013a8 <LoopCopyDataInit>

080013a0 <CopyDataInit>:

CopyDataInit:
  ldr  r3, =_sidata
 80013a0:	4b0c      	ldr	r3, [pc, #48]	@ (80013d4 <LoopFillZerobss+0x18>)
  ldr  r3, [r3, r1]
 80013a2:	585b      	ldr	r3, [r3, r1]
  str  r3, [r0, r1]
 80013a4:	5043      	str	r3, [r0, r1]
  adds  r1, r1, #4
 80013a6:	3104      	adds	r1, #4

080013a8 <LoopCopyDataInit>:
    
LoopCopyDataInit:
  ldr  r0, =_sdata
 80013a8:	480b      	ldr	r0, [pc, #44]	@ (80013d8 <LoopFillZerobss+0x1c>)
  ldr  r3, =_edata
 80013aa:	4b0c      	ldr	r3, [pc, #48]	@ (80013dc <LoopFillZerobss+0x20>)
  adds  r2, r0, r1
 80013ac:	1842      	adds	r2, r0, r1
  cmp  r2, r3
 80013ae:	429a      	cmp	r2, r3
  bcc  CopyDataInit
 80013b0:	d3f6      	bcc.n	80013a0 <CopyDataInit>
  ldr  r2, =_sbss
 80013b2:	4a0b      	ldr	r2, [pc, #44]	@ (80013e0 <LoopFillZerobss+0x24>)
  b  LoopFillZerobss
 80013b4:	e002      	b.n	80013bc <LoopFillZerobss>

080013b6 <FillZerobss>:
/* Zero fill the bss segment. */  
FillZerobss:
  movs  r3, #0
 80013b6:	2300      	movs	r3, #0
  str  r3, [r2], #4
 80013b8:	f842 3b04 	str.w	r3, [r2], #4

080013bc <LoopFillZerobss>:
    
LoopFillZerobss:
  ldr  r3, = _ebss
 80013bc:	4b09      	ldr	r3, [pc, #36]	@ (80013e4 <LoopFillZerobss+0x28>)
  cmp  r2, r3
 80013be:	429a      	cmp	r2, r3
  bcc  FillZerobss
 80013c0:	d3f9      	bcc.n	80013b6 <FillZerobss>

/* Call the clock system intitialization function.*/
  bl  SystemInit   
 80013c2:	f7ff ffdb 	bl	800137c <SystemInit>
/* Call static constructors */
    bl __libc_init_array
 80013c6:	f005 fa7d 	bl	80068c4 <__libc_init_array>
/* Call the application's entry point.*/
  bl  main
 80013ca:	f004 f9a3 	bl	8005714 <main>
  bx  lr    
 80013ce:	4770      	bx	lr
  ldr   sp, =_estack    		 /* set stack pointer */
 80013d0:	20020000 	.word	0x20020000
  ldr  r3, =_sidata
 80013d4:	08009058 	.word	0x08009058
  ldr  r0, =_sdata
 80013d8:	20000000 	.word	0x20000000
  ldr  r3, =_edata
 80013dc:	200002e0 	.word	0x200002e0
  ldr  r2, =_sbss
 80013e0:	200002e0 	.word	0x200002e0
  ldr  r3, = _ebss
 80013e4:	200020a4 	.word	0x200020a4

080013e8 <ADC_IRQHandler>:
 * @retval None       
*/
    .section  .text.Default_Handler,"ax",%progbits
Default_Handler:
Infinite_Loop:
  b  Infinite_Loop
 80013e8:	e7fe      	b.n	80013e8 <ADC_IRQHandler>
	...

080013ec <buttonInit>:
#ifdef _USE_HW_CLI
static void cliButton(cli_args_t *arg);
#endif

bool buttonInit(void)
{
 80013ec:	b510      	push	{r4, lr}
 80013ee:	b086      	sub	sp, #24
	bool ret = true;

	GPIO_InitTypeDef GPIO_InitStruct = {0};
 80013f0:	2210      	movs	r2, #16
 80013f2:	2100      	movs	r1, #0
 80013f4:	a802      	add	r0, sp, #8
 80013f6:	f005 f9d3 	bl	80067a0 <memset>

	/* GPIO Ports Clock Enable */
	__HAL_RCC_GPIOA_CLK_ENABLE();
 80013fa:	2300      	movs	r3, #0
 80013fc:	9300      	str	r3, [sp, #0]
 80013fe:	4b0d      	ldr	r3, [pc, #52]	@ (8001434 <buttonInit+0x48>)
 8001400:	6b1a      	ldr	r2, [r3, #48]	@ 0x30
 8001402:	f042 0201 	orr.w	r2, r2, #1
 8001406:	631a      	str	r2, [r3, #48]	@ 0x30
 8001408:	6b1b      	ldr	r3, [r3, #48]	@ 0x30
 800140a:	f003 0301 	and.w	r3, r3, #1
 800140e:	9300      	str	r3, [sp, #0]
 8001410:	9b00      	ldr	r3, [sp, #0]
	GPIO_InitStruct.Mode = GPIO_MODE_INPUT;
	GPIO_InitStruct.Pull = GPIO_PULLUP;

	for(int i = 0; i < BUTTON_MAX_CH; i++)
	{
		GPIO_InitStruct.Pin = button_tbl[i].pin;
 8001412:	4b09      	ldr	r3, [pc, #36]	@ (8001438 <buttonInit+0x4c>)
	GPIO_InitStruct.Pull = GPIO_PULLUP;
 8001414:	2401      	movs	r4, #1
		GPIO_InitStruct.Pin = button_tbl[i].pin;
 8001416:	685a      	ldr	r2, [r3, #4]
		HAL_GPIO_Init(button_tbl[i].port, &GPIO_InitStruct);
 8001418:	6818      	ldr	r0, [r3, #0]
		GPIO_InitStruct.Pin = button_tbl[i].pin;
 800141a:	9201      	str	r2, [sp, #4]
		HAL_GPIO_Init(button_tbl[i].port, &GPIO_InitStruct);
 800141c:	a901      	add	r1, sp, #4
	GPIO_InitStruct.Pull = GPIO_PULLUP;
 800141e:	9403      	str	r4, [sp, #12]
		HAL_GPIO_Init(button_tbl[i].port, &GPIO_InitStruct);
 8001420:	f002 fbd4 	bl	8003bcc <HAL_GPIO_Init>
	}

#ifdef _USE_HW_CLI
	cliAdd("button",cliButton);
 8001424:	4905      	ldr	r1, [pc, #20]	@ (800143c <buttonInit+0x50>)
 8001426:	4806      	ldr	r0, [pc, #24]	@ (8001440 <buttonInit+0x54>)
 8001428:	f000 fbf6 	bl	8001c18 <cliAdd>
#endif
	return ret;
}
 800142c:	4620      	mov	r0, r4
 800142e:	b006      	add	sp, #24
 8001430:	bd10      	pop	{r4, pc}
 8001432:	bf00      	nop
 8001434:	40023800 	.word	0x40023800
 8001438:	20000004 	.word	0x20000004
 800143c:	08001465 	.word	0x08001465
 8001440:	08008961 	.word	0x08008961

08001444 <buttonGetPressed>:
bool buttonGetPressed(uint8_t ch)
{
 8001444:	b510      	push	{r4, lr}
	bool ret = false;

	if( ch >= BUTTON_MAX_CH )
 8001446:	b948      	cbnz	r0, 800145c <buttonGetPressed+0x18>
	{
		return false;
	}

	if(HAL_GPIO_ReadPin(button_tbl[ch].port, button_tbl[ch].pin) == button_tbl[ch].on_state)
 8001448:	4c05      	ldr	r4, [pc, #20]	@ (8001460 <buttonGetPressed+0x1c>)
 800144a:	88a1      	ldrh	r1, [r4, #4]
 800144c:	6820      	ldr	r0, [r4, #0]
 800144e:	f002 fc83 	bl	8003d58 <HAL_GPIO_ReadPin>
 8001452:	7a23      	ldrb	r3, [r4, #8]
 8001454:	1a1b      	subs	r3, r3, r0
 8001456:	4258      	negs	r0, r3
 8001458:	4158      	adcs	r0, r3
	{
		ret = true;
	}
	return ret;
}
 800145a:	bd10      	pop	{r4, pc}
		return false;
 800145c:	2000      	movs	r0, #0
 800145e:	e7fc      	b.n	800145a <buttonGetPressed+0x16>
 8001460:	20000004 	.word	0x20000004

08001464 <cliButton>:



#ifdef _USE_HW_CLI
void cliButton(cli_args_t * args)
{
 8001464:	b538      	push	{r3, r4, r5, lr}
	bool ret = false;

	if(args->argc == 1 && args->isStr(0,"show") == true)
 8001466:	8803      	ldrh	r3, [r0, #0]
 8001468:	2b01      	cmp	r3, #1
 800146a:	d118      	bne.n	800149e <cliButton+0x3a>
 800146c:	6943      	ldr	r3, [r0, #20]
 800146e:	490e      	ldr	r1, [pc, #56]	@ (80014a8 <cliButton+0x44>)
 8001470:	2000      	movs	r0, #0
 8001472:	4798      	blx	r3
 8001474:	b198      	cbz	r0, 800149e <cliButton+0x3a>
	{
		while(cliKeepLoop())
		{
			for(int i =0; i<BUTTON_MAX_CH; i++)
			{
				cliPrintf("%d", buttonGetPressed(i));
 8001476:	4c0d      	ldr	r4, [pc, #52]	@ (80014ac <cliButton+0x48>)
			}
			cliPrintf("\r\n");
 8001478:	4d0d      	ldr	r5, [pc, #52]	@ (80014b0 <cliButton+0x4c>)
		while(cliKeepLoop())
 800147a:	f000 fbc1 	bl	8001c00 <cliKeepLoop>
 800147e:	b900      	cbnz	r0, 8001482 <cliButton+0x1e>
	}
	if(ret != true)
	{
		cliPrintf("button show\n");
	}
}
 8001480:	bd38      	pop	{r3, r4, r5, pc}
				cliPrintf("%d", buttonGetPressed(i));
 8001482:	2000      	movs	r0, #0
 8001484:	f7ff ffde 	bl	8001444 <buttonGetPressed>
 8001488:	4601      	mov	r1, r0
 800148a:	4620      	mov	r0, r4
 800148c:	f000 f92e 	bl	80016ec <cliPrintf>
			cliPrintf("\r\n");
 8001490:	4628      	mov	r0, r5
 8001492:	f000 f92b 	bl	80016ec <cliPrintf>
			delay(100);
 8001496:	2064      	movs	r0, #100	@ 0x64
 8001498:	f7ff fe7a 	bl	8001190 <delay>
 800149c:	e7ed      	b.n	800147a <cliButton+0x16>
}
 800149e:	e8bd 4038 	ldmia.w	sp!, {r3, r4, r5, lr}
		cliPrintf("button show\n");
 80014a2:	4804      	ldr	r0, [pc, #16]	@ (80014b4 <cliButton+0x50>)
 80014a4:	f000 b922 	b.w	80016ec <cliPrintf>
 80014a8:	08008968 	.word	0x08008968
 80014ac:	0800896d 	.word	0x0800896d
 80014b0:	08008a17 	.word	0x08008a17
 80014b4:	08008970 	.word	0x08008970

080014b8 <cdcInit>:

bool cdcInit(void)
{
  bool ret = true;

  is_init = true;
 80014b8:	4b01      	ldr	r3, [pc, #4]	@ (80014c0 <cdcInit+0x8>)
 80014ba:	2001      	movs	r0, #1
 80014bc:	7018      	strb	r0, [r3, #0]

  return ret;
}
 80014be:	4770      	bx	lr
 80014c0:	20000300 	.word	0x20000300

080014c4 <cdcIsInit>:

//    
bool cdcIsInit(void)
{
	return is_init;
}
 80014c4:	4b01      	ldr	r3, [pc, #4]	@ (80014cc <cdcIsInit+0x8>)
 80014c6:	7818      	ldrb	r0, [r3, #0]
 80014c8:	4770      	bx	lr
 80014ca:	bf00      	nop
 80014cc:	20000300 	.word	0x20000300

080014d0 <cliToUpper>:

  uartWrite(p_cli->ch, (uint8_t *)p_cli->print_buffer, len);
}

void cliToUpper(char *str)
{
 80014d0:	b510      	push	{r4, lr}
 80014d2:	1e41      	subs	r1, r0, #1
 80014d4:	2200      	movs	r2, #0
  uint16_t i;
  uint8_t  str_ch;

  for (i=0; i<CLI_CMD_NAME_MAX; i++)
  {
    str_ch = str[i];
 80014d6:	f811 3f01 	ldrb.w	r3, [r1, #1]!

    if (str_ch == 0)
 80014da:	b16b      	cbz	r3, 80014f8 <cliToUpper+0x28>
    {
      break;
    }

    if ((str_ch >= 'a') && (str_ch <= 'z'))
 80014dc:	f1a3 0461 	sub.w	r4, r3, #97	@ 0x61
 80014e0:	2c19      	cmp	r4, #25
    {
      str_ch = str_ch - 'a' + 'A';
 80014e2:	bf98      	it	ls
 80014e4:	3b20      	subls	r3, #32
  for (i=0; i<CLI_CMD_NAME_MAX; i++)
 80014e6:	f102 0201 	add.w	r2, r2, #1
      str_ch = str_ch - 'a' + 'A';
 80014ea:	bf98      	it	ls
 80014ec:	b2db      	uxtbls	r3, r3
  for (i=0; i<CLI_CMD_NAME_MAX; i++)
 80014ee:	2a10      	cmp	r2, #16
    }
    str[i] = str_ch;
 80014f0:	700b      	strb	r3, [r1, #0]
  for (i=0; i<CLI_CMD_NAME_MAX; i++)
 80014f2:	d1f0      	bne.n	80014d6 <cliToUpper+0x6>
  }

  if (i == CLI_CMD_NAME_MAX)
  {
    str[i-1] = 0;
 80014f4:	2300      	movs	r3, #0
 80014f6:	73c3      	strb	r3, [r0, #15]
  }
}
 80014f8:	bd10      	pop	{r4, pc}
	...

080014fc <cliArgsGetStr>:
{
  char *ret = NULL;
  cli_t *p_cli = &cli_node;


  if (index >= p_cli->cmd_args.argc)
 80014fc:	4b05      	ldr	r3, [pc, #20]	@ (8001514 <cliArgsGetStr+0x18>)
 80014fe:	f8b3 242c 	ldrh.w	r2, [r3, #1068]	@ 0x42c
 8001502:	4282      	cmp	r2, r0
  {
    return 0;
  }

  ret = p_cli->cmd_args.argv[index];
 8001504:	bf86      	itte	hi
 8001506:	f8d3 3430 	ldrhi.w	r3, [r3, #1072]	@ 0x430
 800150a:	f853 0020 	ldrhi.w	r0, [r3, r0, lsl #2]
    return 0;
 800150e:	2000      	movls	r0, #0

  return ret;
}
 8001510:	4770      	bx	lr
 8001512:	bf00      	nop
 8001514:	20000304 	.word	0x20000304

08001518 <cliArgsIsStr>:
{
  bool ret = false;
  cli_t *p_cli = &cli_node;


  if (index >= p_cli->cmd_args.argc)
 8001518:	4a09      	ldr	r2, [pc, #36]	@ (8001540 <cliArgsIsStr+0x28>)
{
 800151a:	b508      	push	{r3, lr}
 800151c:	4603      	mov	r3, r0
 800151e:	4608      	mov	r0, r1
  if (index >= p_cli->cmd_args.argc)
 8001520:	f8b2 142c 	ldrh.w	r1, [r2, #1068]	@ 0x42c
 8001524:	4299      	cmp	r1, r3
 8001526:	d909      	bls.n	800153c <cliArgsIsStr+0x24>
  {
    return 0;
  }

  if(strcmp(p_str, p_cli->cmd_args.argv[index]) == 0)
 8001528:	f8d2 2430 	ldr.w	r2, [r2, #1072]	@ 0x430
 800152c:	f852 1023 	ldr.w	r1, [r2, r3, lsl #2]
 8001530:	f7fe fe56 	bl	80001e0 <strcmp>
 8001534:	fab0 f080 	clz	r0, r0
 8001538:	0940      	lsrs	r0, r0, #5
  {
    ret = true;
  }

  return ret;
}
 800153a:	bd08      	pop	{r3, pc}
    return 0;
 800153c:	2000      	movs	r0, #0
 800153e:	e7fc      	b.n	800153a <cliArgsIsStr+0x22>
 8001540:	20000304 	.word	0x20000304

08001544 <cliArgsGetFloat>:
  if (index >= p_cli->cmd_args.argc)
 8001544:	4b07      	ldr	r3, [pc, #28]	@ (8001564 <cliArgsGetFloat+0x20>)
 8001546:	f8b3 242c 	ldrh.w	r2, [r3, #1068]	@ 0x42c
 800154a:	4282      	cmp	r2, r0
 800154c:	d906      	bls.n	800155c <cliArgsGetFloat+0x18>
  ret = (float)strtof((const char * ) p_cli->cmd_args.argv[index], (char **)NULL);
 800154e:	f8d3 3430 	ldr.w	r3, [r3, #1072]	@ 0x430
 8001552:	2100      	movs	r1, #0
 8001554:	f853 0020 	ldr.w	r0, [r3, r0, lsl #2]
 8001558:	f004 beea 	b.w	8006330 <strtof>
}
 800155c:	ed9f 0a02 	vldr	s0, [pc, #8]	@ 8001568 <cliArgsGetFloat+0x24>
 8001560:	4770      	bx	lr
 8001562:	bf00      	nop
 8001564:	20000304 	.word	0x20000304
 8001568:	00000000 	.word	0x00000000

0800156c <cliArgsGetData>:
  if (index >= p_cli->cmd_args.argc)
 800156c:	4b07      	ldr	r3, [pc, #28]	@ (800158c <cliArgsGetData+0x20>)
 800156e:	f8b3 242c 	ldrh.w	r2, [r3, #1068]	@ 0x42c
 8001572:	4282      	cmp	r2, r0
 8001574:	d907      	bls.n	8001586 <cliArgsGetData+0x1a>
  ret = (int32_t)strtoul((const char * ) p_cli->cmd_args.argv[index], (char **)NULL, (int) 0);
 8001576:	f8d3 3430 	ldr.w	r3, [r3, #1072]	@ 0x430
 800157a:	2200      	movs	r2, #0
 800157c:	f853 0020 	ldr.w	r0, [r3, r0, lsl #2]
 8001580:	4611      	mov	r1, r2
 8001582:	f004 bfa7 	b.w	80064d4 <strtoul>
}
 8001586:	2000      	movs	r0, #0
 8001588:	4770      	bx	lr
 800158a:	bf00      	nop
 800158c:	20000304 	.word	0x20000304

08001590 <cliLineChange.constprop.0>:
void cliLineChange(cli_t *p_cli, int8_t key_up)
 8001590:	b538      	push	{r3, r4, r5, lr}
  if (p_cli->hist_line_count == 0)
 8001592:	4c1f      	ldr	r4, [pc, #124]	@ (8001610 <cliLineChange.constprop.0+0x80>)
 8001594:	f894 3197 	ldrb.w	r3, [r4, #407]	@ 0x197
void cliLineChange(cli_t *p_cli, int8_t key_up)
 8001598:	4605      	mov	r5, r0
  if (p_cli->hist_line_count == 0)
 800159a:	b39b      	cbz	r3, 8001604 <cliLineChange.constprop.0+0x74>
  if (p_cli->line.cursor > 0)
 800159c:	f894 22e5 	ldrb.w	r2, [r4, #741]	@ 0x2e5
 80015a0:	b11a      	cbz	r2, 80015aa <cliLineChange.constprop.0+0x1a>
    uartPrintf(p_cli->ch, "\x1B[%dD", p_cli->line.cursor);
 80015a2:	491c      	ldr	r1, [pc, #112]	@ (8001614 <cliLineChange.constprop.0+0x84>)
 80015a4:	7820      	ldrb	r0, [r4, #0]
 80015a6:	f000 fd31 	bl	800200c <uartPrintf>
  if (p_cli->line.count > 0)
 80015aa:	f894 22e6 	ldrb.w	r2, [r4, #742]	@ 0x2e6
 80015ae:	b11a      	cbz	r2, 80015b8 <cliLineChange.constprop.0+0x28>
    uartPrintf(p_cli->ch, "\x1B[%dP", p_cli->line.count);
 80015b0:	4919      	ldr	r1, [pc, #100]	@ (8001618 <cliLineChange.constprop.0+0x88>)
 80015b2:	7820      	ldrb	r0, [r4, #0]
 80015b4:	f000 fd2a 	bl	800200c <uartPrintf>
  if (key_up == true)
 80015b8:	2d01      	cmp	r5, #1
    p_cli->hist_line_i = (p_cli->hist_line_i + p_cli->hist_line_count - 1) % p_cli->hist_line_count;
 80015ba:	f894 3197 	ldrb.w	r3, [r4, #407]	@ 0x197
  if (key_up == true)
 80015be:	d122      	bne.n	8001606 <cliLineChange.constprop.0+0x76>
    if (p_cli->hist_line_new == true)
 80015c0:	f894 2194 	ldrb.w	r2, [r4, #404]	@ 0x194
 80015c4:	b11a      	cbz	r2, 80015ce <cliLineChange.constprop.0+0x3e>
      p_cli->hist_line_i = p_cli->hist_line_last;
 80015c6:	f894 2196 	ldrb.w	r2, [r4, #406]	@ 0x196
 80015ca:	f884 2195 	strb.w	r2, [r4, #405]	@ 0x195
    p_cli->hist_line_i = (p_cli->hist_line_i + p_cli->hist_line_count - 1) % p_cli->hist_line_count;
 80015ce:	f994 1195 	ldrsb.w	r1, [r4, #405]	@ 0x195
 80015d2:	4419      	add	r1, r3
 80015d4:	3901      	subs	r1, #1
    p_cli->hist_line_i = (p_cli->hist_line_i + 1) % p_cli->hist_line_count;
 80015d6:	fb91 f2f3 	sdiv	r2, r1, r3
 80015da:	fb03 1112 	mls	r1, r3, r2, r1
 80015de:	b24b      	sxtb	r3, r1
  p_cli->line = p_cli->line_buf[change_i];
 80015e0:	2243      	movs	r2, #67	@ 0x43
    change_i = p_cli->hist_line_i;
 80015e2:	b2c9      	uxtb	r1, r1
  p_cli->line = p_cli->line_buf[change_i];
 80015e4:	fb02 4101 	mla	r1, r2, r1, r4
 80015e8:	480c      	ldr	r0, [pc, #48]	@ (800161c <cliLineChange.constprop.0+0x8c>)
    p_cli->hist_line_i = (p_cli->hist_line_i + p_cli->hist_line_count - 1) % p_cli->hist_line_count;
 80015ea:	f884 3195 	strb.w	r3, [r4, #405]	@ 0x195
  p_cli->line = p_cli->line_buf[change_i];
 80015ee:	f501 71cc 	add.w	r1, r1, #408	@ 0x198
 80015f2:	f005 f996 	bl	8006922 <memcpy>
  p_cli->line.cursor = p_cli->line.count;
 80015f6:	f894 32e6 	ldrb.w	r3, [r4, #742]	@ 0x2e6
 80015fa:	f884 32e5 	strb.w	r3, [r4, #741]	@ 0x2e5
  p_cli->hist_line_new = false;
 80015fe:	2300      	movs	r3, #0
 8001600:	f884 3194 	strb.w	r3, [r4, #404]	@ 0x194
}
 8001604:	bd38      	pop	{r3, r4, r5, pc}
    p_cli->hist_line_i = (p_cli->hist_line_i + 1) % p_cli->hist_line_count;
 8001606:	f994 1195 	ldrsb.w	r1, [r4, #405]	@ 0x195
 800160a:	3101      	adds	r1, #1
 800160c:	e7e3      	b.n	80015d6 <cliLineChange.constprop.0+0x46>
 800160e:	bf00      	nop
 8001610:	20000304 	.word	0x20000304
 8001614:	0800897d 	.word	0x0800897d
 8001618:	08008983 	.word	0x08008983
 800161c:	200005a8 	.word	0x200005a8

08001620 <cliOpen>:
{
 8001620:	b510      	push	{r4, lr}
  cli_node.ch = ch;
 8001622:	4c03      	ldr	r4, [pc, #12]	@ (8001630 <cliOpen+0x10>)
 8001624:	7020      	strb	r0, [r4, #0]
  cli_node.baud = baud;
 8001626:	6061      	str	r1, [r4, #4]
  cli_node.is_open = uartOpen(ch, baud);
 8001628:	f000 fcda 	bl	8001fe0 <uartOpen>
 800162c:	7220      	strb	r0, [r4, #8]
}
 800162e:	bd10      	pop	{r4, pc}
 8001630:	20000304 	.word	0x20000304

08001634 <cliShowLog>:
{
 8001634:	b5f8      	push	{r3, r4, r5, r6, r7, lr}
  if (cli_node.is_log == true)
 8001636:	4b23      	ldr	r3, [pc, #140]	@ (80016c4 <cliShowLog+0x90>)
 8001638:	7a5b      	ldrb	r3, [r3, #9]
{
 800163a:	4604      	mov	r4, r0
  if (cli_node.is_log == true)
 800163c:	2b00      	cmp	r3, #0
 800163e:	d03f      	beq.n	80016c0 <cliShowLog+0x8c>
    uartPrintf(p_cli->log_ch, "Cursor  : %d\n", p_cli->line.cursor);
 8001640:	f890 22e5 	ldrb.w	r2, [r0, #741]	@ 0x2e5
 8001644:	4920      	ldr	r1, [pc, #128]	@ (80016c8 <cliShowLog+0x94>)
 8001646:	7a80      	ldrb	r0, [r0, #10]
      uartPrintf(p_cli->log_ch, "buf %d   : %s\n", i, p_cli->line_buf[i].buf);
 8001648:	4f20      	ldr	r7, [pc, #128]	@ (80016cc <cliShowLog+0x98>)
    uartPrintf(p_cli->log_ch, "Cursor  : %d\n", p_cli->line.cursor);
 800164a:	f000 fcdf 	bl	800200c <uartPrintf>
    uartPrintf(p_cli->log_ch, "Count   : %d\n", p_cli->line.count);
 800164e:	f894 22e6 	ldrb.w	r2, [r4, #742]	@ 0x2e6
 8001652:	491f      	ldr	r1, [pc, #124]	@ (80016d0 <cliShowLog+0x9c>)
 8001654:	7aa0      	ldrb	r0, [r4, #10]
 8001656:	f000 fcd9 	bl	800200c <uartPrintf>
    uartPrintf(p_cli->log_ch, "buf_len : %d\n", p_cli->line.buf_len);
 800165a:	f894 22e4 	ldrb.w	r2, [r4, #740]	@ 0x2e4
 800165e:	491d      	ldr	r1, [pc, #116]	@ (80016d4 <cliShowLog+0xa0>)
 8001660:	7aa0      	ldrb	r0, [r4, #10]
 8001662:	f000 fcd3 	bl	800200c <uartPrintf>
    uartPrintf(p_cli->log_ch, "buf     : %s\n", p_cli->line.buf);
 8001666:	491c      	ldr	r1, [pc, #112]	@ (80016d8 <cliShowLog+0xa4>)
 8001668:	7aa0      	ldrb	r0, [r4, #10]
 800166a:	f504 7229 	add.w	r2, r4, #676	@ 0x2a4
 800166e:	f000 fccd 	bl	800200c <uartPrintf>
    uartPrintf(p_cli->log_ch, "line_i  : %d\n", p_cli->hist_line_i);
 8001672:	f994 2195 	ldrsb.w	r2, [r4, #405]	@ 0x195
 8001676:	4919      	ldr	r1, [pc, #100]	@ (80016dc <cliShowLog+0xa8>)
 8001678:	7aa0      	ldrb	r0, [r4, #10]
 800167a:	f000 fcc7 	bl	800200c <uartPrintf>
    uartPrintf(p_cli->log_ch, "line_lt : %d\n", p_cli->hist_line_last);
 800167e:	f894 2196 	ldrb.w	r2, [r4, #406]	@ 0x196
 8001682:	4917      	ldr	r1, [pc, #92]	@ (80016e0 <cliShowLog+0xac>)
 8001684:	7aa0      	ldrb	r0, [r4, #10]
 8001686:	f000 fcc1 	bl	800200c <uartPrintf>
    uartPrintf(p_cli->log_ch, "line_c  : %d\n", p_cli->hist_line_count);
 800168a:	f894 2197 	ldrb.w	r2, [r4, #407]	@ 0x197
 800168e:	4915      	ldr	r1, [pc, #84]	@ (80016e4 <cliShowLog+0xb0>)
 8001690:	7aa0      	ldrb	r0, [r4, #10]
 8001692:	f000 fcbb 	bl	800200c <uartPrintf>
    for (int i=0; i<p_cli->hist_line_count; i++)
 8001696:	f504 76cc 	add.w	r6, r4, #408	@ 0x198
 800169a:	2500      	movs	r5, #0
 800169c:	f894 3197 	ldrb.w	r3, [r4, #407]	@ 0x197
      uartPrintf(p_cli->log_ch, "buf %d   : %s\n", i, p_cli->line_buf[i].buf);
 80016a0:	7aa0      	ldrb	r0, [r4, #10]
    for (int i=0; i<p_cli->hist_line_count; i++)
 80016a2:	429d      	cmp	r5, r3
 80016a4:	db04      	blt.n	80016b0 <cliShowLog+0x7c>
}
 80016a6:	e8bd 40f8 	ldmia.w	sp!, {r3, r4, r5, r6, r7, lr}
    uartPrintf(p_cli->log_ch, "\n");
 80016aa:	490f      	ldr	r1, [pc, #60]	@ (80016e8 <cliShowLog+0xb4>)
 80016ac:	f000 bcae 	b.w	800200c <uartPrintf>
      uartPrintf(p_cli->log_ch, "buf %d   : %s\n", i, p_cli->line_buf[i].buf);
 80016b0:	4633      	mov	r3, r6
 80016b2:	462a      	mov	r2, r5
 80016b4:	4639      	mov	r1, r7
 80016b6:	f000 fca9 	bl	800200c <uartPrintf>
    for (int i=0; i<p_cli->hist_line_count; i++)
 80016ba:	3501      	adds	r5, #1
 80016bc:	3643      	adds	r6, #67	@ 0x43
 80016be:	e7ed      	b.n	800169c <cliShowLog+0x68>
}
 80016c0:	bdf8      	pop	{r3, r4, r5, r6, r7, pc}
 80016c2:	bf00      	nop
 80016c4:	20000304 	.word	0x20000304
 80016c8:	08008989 	.word	0x08008989
 80016cc:	080089eb 	.word	0x080089eb
 80016d0:	08008997 	.word	0x08008997
 80016d4:	080089a5 	.word	0x080089a5
 80016d8:	080089b3 	.word	0x080089b3
 80016dc:	080089c1 	.word	0x080089c1
 80016e0:	080089cf 	.word	0x080089cf
 80016e4:	080089dd 	.word	0x080089dd
 80016e8:	08008a18 	.word	0x08008a18

080016ec <cliPrintf>:
{
 80016ec:	b40f      	push	{r0, r1, r2, r3}
 80016ee:	b513      	push	{r0, r1, r4, lr}
  len = vsnprintf(p_cli->print_buffer, 256, fmt, arg);
 80016f0:	4c0a      	ldr	r4, [pc, #40]	@ (800171c <cliPrintf+0x30>)
{
 80016f2:	ab04      	add	r3, sp, #16
  len = vsnprintf(p_cli->print_buffer, 256, fmt, arg);
 80016f4:	f44f 7180 	mov.w	r1, #256	@ 0x100
{
 80016f8:	f853 2b04 	ldr.w	r2, [r3], #4
  va_start (arg, fmt);
 80016fc:	9301      	str	r3, [sp, #4]
  len = vsnprintf(p_cli->print_buffer, 256, fmt, arg);
 80016fe:	4620      	mov	r0, r4
 8001700:	f005 f826 	bl	8006750 <vsniprintf>
  uartWrite(p_cli->ch, (uint8_t *)p_cli->print_buffer, len);
 8001704:	4621      	mov	r1, r4
  len = vsnprintf(p_cli->print_buffer, 256, fmt, arg);
 8001706:	4602      	mov	r2, r0
  uartWrite(p_cli->ch, (uint8_t *)p_cli->print_buffer, len);
 8001708:	f814 0c11 	ldrb.w	r0, [r4, #-17]
 800170c:	f000 fc76 	bl	8001ffc <uartWrite>
}
 8001710:	b002      	add	sp, #8
 8001712:	e8bd 4010 	ldmia.w	sp!, {r4, lr}
 8001716:	b004      	add	sp, #16
 8001718:	4770      	bx	lr
 800171a:	bf00      	nop
 800171c:	20000315 	.word	0x20000315

08001720 <cliShowList>:

  return ret;
}

void cliShowList(cli_args_t *args)
{
 8001720:	b5f8      	push	{r3, r4, r5, r6, r7, lr}
  cli_t *p_cli = &cli_node;


  cliPrintf("\r\n");
 8001722:	480e      	ldr	r0, [pc, #56]	@ (800175c <cliShowList+0x3c>)
 8001724:	4c0e      	ldr	r4, [pc, #56]	@ (8001760 <cliShowList+0x40>)
  cliPrintf("---------- cmd list ---------\r\n");

  for (int i=0; i<p_cli->cmd_count; i++)
  {
    cliPrintf(p_cli->cmd_list[i].cmd_str);
    cliPrintf("\r\n");
 8001726:	4f0d      	ldr	r7, [pc, #52]	@ (800175c <cliShowList+0x3c>)
  cliPrintf("\r\n");
 8001728:	f7ff ffe0 	bl	80016ec <cliPrintf>
  cliPrintf("---------- cmd list ---------\r\n");
 800172c:	480d      	ldr	r0, [pc, #52]	@ (8001764 <cliShowList+0x44>)
 800172e:	f7ff ffdd 	bl	80016ec <cliPrintf>
  for (int i=0; i<p_cli->cmd_count; i++)
 8001732:	2500      	movs	r5, #0
 8001734:	f5a4 763b 	sub.w	r6, r4, #748	@ 0x2ec
 8001738:	f8b6 32e8 	ldrh.w	r3, [r6, #744]	@ 0x2e8
 800173c:	42ab      	cmp	r3, r5
 800173e:	dc04      	bgt.n	800174a <cliShowList+0x2a>
  }

  cliPrintf("-----------------------------\r\n");
}
 8001740:	e8bd 40f8 	ldmia.w	sp!, {r3, r4, r5, r6, r7, lr}
  cliPrintf("-----------------------------\r\n");
 8001744:	4808      	ldr	r0, [pc, #32]	@ (8001768 <cliShowList+0x48>)
 8001746:	f7ff bfd1 	b.w	80016ec <cliPrintf>
    cliPrintf(p_cli->cmd_list[i].cmd_str);
 800174a:	4620      	mov	r0, r4
 800174c:	f7ff ffce 	bl	80016ec <cliPrintf>
    cliPrintf("\r\n");
 8001750:	4638      	mov	r0, r7
 8001752:	f7ff ffcb 	bl	80016ec <cliPrintf>
  for (int i=0; i<p_cli->cmd_count; i++)
 8001756:	3501      	adds	r5, #1
 8001758:	3414      	adds	r4, #20
 800175a:	e7ed      	b.n	8001738 <cliShowList+0x18>
 800175c:	08008a17 	.word	0x08008a17
 8001760:	200005f0 	.word	0x200005f0
 8001764:	080089fa 	.word	0x080089fa
 8001768:	08008a1a 	.word	0x08008a1a

0800176c <cliMemoryDump>:
  unsigned int *addr;
  int idx1, i;
  unsigned int *ascptr;
  unsigned char asc[4];

  int    argc = args->argc;
 800176c:	8803      	ldrh	r3, [r0, #0]
{
 800176e:	e92d 4ff7 	stmdb	sp!, {r0, r1, r2, r4, r5, r6, r7, r8, r9, sl, fp, lr}
  char **argv = args->argv;
 8001772:	6844      	ldr	r4, [r0, #4]


  if(args->argc < 1)
 8001774:	b92b      	cbnz	r3, 8001782 <cliMemoryDump+0x16>
  {
    cliPrintf(">> md addr [size] \n");
 8001776:	482b      	ldr	r0, [pc, #172]	@ (8001824 <cliMemoryDump+0xb8>)
      }
      cliPrintf("|\n   ");
    }
    addr++;
  }
}
 8001778:	b003      	add	sp, #12
 800177a:	e8bd 4ff0 	ldmia.w	sp!, {r4, r5, r6, r7, r8, r9, sl, fp, lr}
    cliPrintf(">> md addr [size] \n");
 800177e:	f7ff bfb5 	b.w	80016ec <cliPrintf>
  if(argc > 1)
 8001782:	2b01      	cmp	r3, #1
 8001784:	d015      	beq.n	80017b2 <cliMemoryDump+0x46>
    size = (int)strtoul((const char * ) argv[1], (char **)NULL, (int) 0);
 8001786:	2200      	movs	r2, #0
 8001788:	6860      	ldr	r0, [r4, #4]
 800178a:	4611      	mov	r1, r2
 800178c:	f004 fea2 	bl	80064d4 <strtoul>
 8001790:	4606      	mov	r6, r0
  addr   = (unsigned int *)strtoul((const char * ) argv[0], (char **)NULL, (int) 0);
 8001792:	2200      	movs	r2, #0
 8001794:	6820      	ldr	r0, [r4, #0]
 8001796:	4611      	mov	r1, r2
 8001798:	f004 fe9c 	bl	80064d4 <strtoul>
 800179c:	4604      	mov	r4, r0
  cliPrintf("\n   ");
 800179e:	4822      	ldr	r0, [pc, #136]	@ (8001828 <cliMemoryDump+0xbc>)
 80017a0:	f7ff ffa4 	bl	80016ec <cliPrintf>
  addr   = (unsigned int *)strtoul((const char * ) argv[0], (char **)NULL, (int) 0);
 80017a4:	4627      	mov	r7, r4
  for (idx = 0; idx<size; idx++)
 80017a6:	2500      	movs	r5, #0
 80017a8:	42b5      	cmp	r5, r6
 80017aa:	db04      	blt.n	80017b6 <cliMemoryDump+0x4a>
}
 80017ac:	b003      	add	sp, #12
 80017ae:	e8bd 8ff0 	ldmia.w	sp!, {r4, r5, r6, r7, r8, r9, sl, fp, pc}
  int idx, size = 16;
 80017b2:	2610      	movs	r6, #16
 80017b4:	e7ed      	b.n	8001792 <cliMemoryDump+0x26>
    if((idx%4) == 0)
 80017b6:	f015 0803 	ands.w	r8, r5, #3
 80017ba:	d103      	bne.n	80017c4 <cliMemoryDump+0x58>
      cliPrintf(" 0x%08X: ", (unsigned int)addr);
 80017bc:	481b      	ldr	r0, [pc, #108]	@ (800182c <cliMemoryDump+0xc0>)
 80017be:	4639      	mov	r1, r7
 80017c0:	f7ff ff94 	bl	80016ec <cliPrintf>
    cliPrintf(" 0x%08X", *(addr));
 80017c4:	6839      	ldr	r1, [r7, #0]
 80017c6:	481a      	ldr	r0, [pc, #104]	@ (8001830 <cliMemoryDump+0xc4>)
 80017c8:	f7ff ff90 	bl	80016ec <cliPrintf>
    if ((idx%4) == 3)
 80017cc:	f1b8 0f03 	cmp.w	r8, #3
 80017d0:	d120      	bne.n	8001814 <cliMemoryDump+0xa8>
      cliPrintf ("  |");
 80017d2:	4818      	ldr	r0, [pc, #96]	@ (8001834 <cliMemoryDump+0xc8>)
            cliPrintf("%c", asc[i]);
 80017d4:	f8df b068 	ldr.w	fp, [pc, #104]	@ 8001840 <cliMemoryDump+0xd4>
      cliPrintf ("  |");
 80017d8:	f7ff ff88 	bl	80016ec <cliPrintf>
      for (idx1= 0; idx1< 4; idx1++)
 80017dc:	f104 0910 	add.w	r9, r4, #16
        memcpy((char *)asc, (char *)ascptr, 4);
 80017e0:	6823      	ldr	r3, [r4, #0]
 80017e2:	9301      	str	r3, [sp, #4]
        for (i=0;i<4;i++)
 80017e4:	f10d 0804 	add.w	r8, sp, #4
 80017e8:	f04f 0a00 	mov.w	sl, #0
          if (asc[i] > 0x1f && asc[i] < 0x7f)
 80017ec:	f818 1b01 	ldrb.w	r1, [r8], #1
 80017f0:	f1a1 0220 	sub.w	r2, r1, #32
 80017f4:	2a5e      	cmp	r2, #94	@ 0x5e
 80017f6:	d810      	bhi.n	800181a <cliMemoryDump+0xae>
            cliPrintf("%c", asc[i]);
 80017f8:	4658      	mov	r0, fp
 80017fa:	f7ff ff77 	bl	80016ec <cliPrintf>
        for (i=0;i<4;i++)
 80017fe:	f10a 0a01 	add.w	sl, sl, #1
 8001802:	f1ba 0f04 	cmp.w	sl, #4
 8001806:	d1f1      	bne.n	80017ec <cliMemoryDump+0x80>
        ascptr+=1;
 8001808:	3404      	adds	r4, #4
      for (idx1= 0; idx1< 4; idx1++)
 800180a:	454c      	cmp	r4, r9
 800180c:	d1e8      	bne.n	80017e0 <cliMemoryDump+0x74>
      cliPrintf("|\n   ");
 800180e:	480a      	ldr	r0, [pc, #40]	@ (8001838 <cliMemoryDump+0xcc>)
 8001810:	f7ff ff6c 	bl	80016ec <cliPrintf>
    addr++;
 8001814:	3704      	adds	r7, #4
  for (idx = 0; idx<size; idx++)
 8001816:	3501      	adds	r5, #1
 8001818:	e7c6      	b.n	80017a8 <cliMemoryDump+0x3c>
            cliPrintf(".");
 800181a:	4808      	ldr	r0, [pc, #32]	@ (800183c <cliMemoryDump+0xd0>)
 800181c:	f7ff ff66 	bl	80016ec <cliPrintf>
 8001820:	e7ed      	b.n	80017fe <cliMemoryDump+0x92>
 8001822:	bf00      	nop
 8001824:	08008a3a 	.word	0x08008a3a
 8001828:	08008a68 	.word	0x08008a68
 800182c:	08008a4e 	.word	0x08008a4e
 8001830:	08008a58 	.word	0x08008a58
 8001834:	08008a60 	.word	0x08008a60
 8001838:	08008a67 	.word	0x08008a67
 800183c:	08008908 	.word	0x08008908
 8001840:	08008a64 	.word	0x08008a64

08001844 <cliMain>:
{
 8001844:	e92d 43f0 	stmdb	sp!, {r4, r5, r6, r7, r8, r9, lr}
  if (cli_node.is_open != true)
 8001848:	4ca2      	ldr	r4, [pc, #648]	@ (8001ad4 <cliMain+0x290>)
 800184a:	7a27      	ldrb	r7, [r4, #8]
{
 800184c:	b085      	sub	sp, #20
  if (cli_node.is_open != true)
 800184e:	2f00      	cmp	r7, #0
 8001850:	f000 8139 	beq.w	8001ac6 <cliMain+0x282>
  if (uartAvailable(cli_node.ch) > 0)
 8001854:	7820      	ldrb	r0, [r4, #0]
 8001856:	f000 fbc7 	bl	8001fe8 <uartAvailable>
 800185a:	2800      	cmp	r0, #0
 800185c:	f000 8133 	beq.w	8001ac6 <cliMain+0x282>
    cliUpdate(&cli_node, uartRead(cli_node.ch));
 8001860:	7820      	ldrb	r0, [r4, #0]
 8001862:	f000 fbc6 	bl	8001ff2 <uartRead>
  if (p_cli->state == CLI_RX_IDLE)
 8001866:	7c22      	ldrb	r2, [r4, #16]
 8001868:	f88d 0007 	strb.w	r0, [sp, #7]
 800186c:	2a00      	cmp	r2, #0
 800186e:	f040 80e0 	bne.w	8001a32 <cliMain+0x1ee>
    switch(rx_data)
 8001872:	281b      	cmp	r0, #27
 8001874:	f000 8122 	beq.w	8001abc <cliMain+0x278>
 8001878:	d852      	bhi.n	8001920 <cliMain+0xdc>
 800187a:	2808      	cmp	r0, #8
 800187c:	f000 80f2 	beq.w	8001a64 <cliMain+0x220>
 8001880:	280d      	cmp	r0, #13
 8001882:	d069      	beq.n	8001958 <cliMain+0x114>
        if ((line->count + 1) < line->buf_len)
 8001884:	f894 32e6 	ldrb.w	r3, [r4, #742]	@ 0x2e6
 8001888:	f894 22e4 	ldrb.w	r2, [r4, #740]	@ 0x2e4
 800188c:	1c59      	adds	r1, r3, #1
 800188e:	4291      	cmp	r1, r2
 8001890:	f280 8116 	bge.w	8001ac0 <cliMain+0x27c>
          if (line->cursor == line->count)
 8001894:	f894 22e5 	ldrb.w	r2, [r4, #741]	@ 0x2e5
 8001898:	429a      	cmp	r2, r3
 800189a:	d119      	bne.n	80018d0 <cliMain+0x8c>
            uartWrite(p_cli->ch, &rx_data, 1);
 800189c:	2201      	movs	r2, #1
 800189e:	f10d 0107 	add.w	r1, sp, #7
 80018a2:	7820      	ldrb	r0, [r4, #0]
 80018a4:	f000 fbaa 	bl	8001ffc <uartWrite>
            line->buf[line->cursor] = rx_data;
 80018a8:	f894 22e5 	ldrb.w	r2, [r4, #741]	@ 0x2e5
 80018ac:	f89d 1007 	ldrb.w	r1, [sp, #7]
 80018b0:	18a3      	adds	r3, r4, r2
            line->cursor++;
 80018b2:	3201      	adds	r2, #1
            line->buf[line->cursor] = rx_data;
 80018b4:	f883 12a4 	strb.w	r1, [r3, #676]	@ 0x2a4
            line->count++;
 80018b8:	f894 32e6 	ldrb.w	r3, [r4, #742]	@ 0x2e6
            line->cursor++;
 80018bc:	f884 22e5 	strb.w	r2, [r4, #741]	@ 0x2e5
            line->count++;
 80018c0:	3301      	adds	r3, #1
 80018c2:	b2db      	uxtb	r3, r3
 80018c4:	f884 32e6 	strb.w	r3, [r4, #742]	@ 0x2e6
            line->buf[line->count] = 0;
 80018c8:	4423      	add	r3, r4
 80018ca:	2200      	movs	r2, #0
 80018cc:	f883 22a4 	strb.w	r2, [r3, #676]	@ 0x2a4
          if (line->cursor < line->count)
 80018d0:	f894 62e5 	ldrb.w	r6, [r4, #741]	@ 0x2e5
 80018d4:	f894 52e6 	ldrb.w	r5, [r4, #742]	@ 0x2e6
 80018d8:	42ae      	cmp	r6, r5
 80018da:	f080 80aa 	bcs.w	8001a32 <cliMain+0x1ee>
            mov_len = line->count - line->cursor;
 80018de:	1baa      	subs	r2, r5, r6
              line->buf[line->count - i] = line->buf[line->count - i - 1];
 80018e0:	b2d2      	uxtb	r2, r2
 80018e2:	f505 7129 	add.w	r1, r5, #676	@ 0x2a4
 80018e6:	f205 20a5 	addw	r0, r5, #677	@ 0x2a5
 80018ea:	1a89      	subs	r1, r1, r2
 80018ec:	1a80      	subs	r0, r0, r2
 80018ee:	4421      	add	r1, r4
 80018f0:	4420      	add	r0, r4
 80018f2:	f004 ff3b 	bl	800676c <memmove>
            line->buf[line->cursor] = rx_data;
 80018f6:	19a3      	adds	r3, r4, r6
 80018f8:	f89d 2007 	ldrb.w	r2, [sp, #7]
 80018fc:	f883 22a4 	strb.w	r2, [r3, #676]	@ 0x2a4
            line->count++;
 8001900:	1c6b      	adds	r3, r5, #1
 8001902:	b2db      	uxtb	r3, r3
 8001904:	f884 32e6 	strb.w	r3, [r4, #742]	@ 0x2e6
            line->buf[line->count] = 0;
 8001908:	4423      	add	r3, r4
 800190a:	2100      	movs	r1, #0
            line->cursor++;
 800190c:	3601      	adds	r6, #1
            line->buf[line->count] = 0;
 800190e:	f883 12a4 	strb.w	r1, [r3, #676]	@ 0x2a4
            uartPrintf(p_cli->ch, "\x1B[4h%c\x1B[4l", rx_data);
 8001912:	7820      	ldrb	r0, [r4, #0]
 8001914:	4970      	ldr	r1, [pc, #448]	@ (8001ad8 <cliMain+0x294>)
            line->cursor++;
 8001916:	f884 62e5 	strb.w	r6, [r4, #741]	@ 0x2e5
            uartPrintf(p_cli->ch, "\x1B[4h%c\x1B[4l", rx_data);
 800191a:	f000 fb77 	bl	800200c <uartPrintf>
 800191e:	e088      	b.n	8001a32 <cliMain+0x1ee>
    switch(rx_data)
 8001920:	287f      	cmp	r0, #127	@ 0x7f
 8001922:	d1af      	bne.n	8001884 <cliMain+0x40>
        if (line->cursor < line->count)
 8001924:	f894 22e5 	ldrb.w	r2, [r4, #741]	@ 0x2e5
 8001928:	f894 32e6 	ldrb.w	r3, [r4, #742]	@ 0x2e6
 800192c:	429a      	cmp	r2, r3
 800192e:	f080 80c7 	bcs.w	8001ac0 <cliMain+0x27c>
          mov_len = line->count - line->cursor;
 8001932:	1a99      	subs	r1, r3, r2
 8001934:	f502 7229 	add.w	r2, r2, #676	@ 0x2a4
 8001938:	b2c9      	uxtb	r1, r1
          for (int i=1; i<mov_len; i++)
 800193a:	4422      	add	r2, r4
 800193c:	2001      	movs	r0, #1
 800193e:	4288      	cmp	r0, r1
 8001940:	f2c0 808b 	blt.w	8001a5a <cliMain+0x216>
          line->count--;
 8001944:	3b01      	subs	r3, #1
 8001946:	b2db      	uxtb	r3, r3
 8001948:	f884 32e6 	strb.w	r3, [r4, #742]	@ 0x2e6
          line->buf[line->count] = 0;
 800194c:	4423      	add	r3, r4
 800194e:	2200      	movs	r2, #0
          uartPrintf(p_cli->ch, "\x1B[1P");
 8001950:	4962      	ldr	r1, [pc, #392]	@ (8001adc <cliMain+0x298>)
          line->buf[line->count] = 0;
 8001952:	f883 22a4 	strb.w	r2, [r3, #676]	@ 0x2a4
          uartPrintf(p_cli->ch, "\x1B[1P");
 8001956:	e069      	b.n	8001a2c <cliMain+0x1e8>
        if (line->count > 0)
 8001958:	f894 32e6 	ldrb.w	r3, [r4, #742]	@ 0x2e6
 800195c:	2b00      	cmp	r3, #0
 800195e:	d059      	beq.n	8001a14 <cliMain+0x1d0>
  p_cli->line_buf[p_cli->hist_line_last] = p_cli->line;
 8001960:	f894 5196 	ldrb.w	r5, [r4, #406]	@ 0x196
    argv[argc++] = tok;
 8001964:	f8df 8198 	ldr.w	r8, [pc, #408]	@ 8001b00 <cliMain+0x2bc>
  for (tok = strtok_r(cmdline, delim, &next_ptr); tok; tok = strtok_r(NULL, delim, &next_ptr))
 8001968:	f8df 9174 	ldr.w	r9, [pc, #372]	@ 8001ae0 <cliMain+0x29c>
  p_cli->line_buf[p_cli->hist_line_last] = p_cli->line;
 800196c:	2243      	movs	r2, #67	@ 0x43
 800196e:	fb02 4005 	mla	r0, r2, r5, r4
 8001972:	f504 7129 	add.w	r1, r4, #676	@ 0x2a4
 8001976:	f500 70cc 	add.w	r0, r0, #408	@ 0x198
 800197a:	f004 ffd2 	bl	8006922 <memcpy>
  if (p_cli->hist_line_count < CLI_LINE_HIS_MAX)
 800197e:	f894 3197 	ldrb.w	r3, [r4, #407]	@ 0x197
  p_cli->hist_line_i    = p_cli->hist_line_last;
 8001982:	f884 5195 	strb.w	r5, [r4, #405]	@ 0x195
  if (p_cli->hist_line_count < CLI_LINE_HIS_MAX)
 8001986:	2b03      	cmp	r3, #3
    p_cli->hist_line_count++;
 8001988:	bf98      	it	ls
 800198a:	3301      	addls	r3, #1
  p_cli->hist_line_last = (p_cli->hist_line_last + 1) % CLI_LINE_HIS_MAX;
 800198c:	f105 0501 	add.w	r5, r5, #1
  p_cli->argc = 0;
 8001990:	f04f 0600 	mov.w	r6, #0
    p_cli->hist_line_count++;
 8001994:	bf98      	it	ls
 8001996:	f884 3197 	strbls.w	r3, [r4, #407]	@ 0x197
  p_cli->hist_line_last = (p_cli->hist_line_last + 1) % CLI_LINE_HIS_MAX;
 800199a:	f005 0503 	and.w	r5, r5, #3
  p_cli->hist_line_new  = true;
 800199e:	2301      	movs	r3, #1
  for (tok = strtok_r(cmdline, delim, &next_ptr); tok; tok = strtok_r(NULL, delim, &next_ptr))
 80019a0:	494f      	ldr	r1, [pc, #316]	@ (8001ae0 <cliMain+0x29c>)
 80019a2:	4850      	ldr	r0, [pc, #320]	@ (8001ae4 <cliMain+0x2a0>)
  p_cli->hist_line_last = (p_cli->hist_line_last + 1) % CLI_LINE_HIS_MAX;
 80019a4:	f884 5196 	strb.w	r5, [r4, #406]	@ 0x196
  for (tok = strtok_r(cmdline, delim, &next_ptr); tok; tok = strtok_r(NULL, delim, &next_ptr))
 80019a8:	aa02      	add	r2, sp, #8
  p_cli->hist_line_new  = true;
 80019aa:	f884 3194 	strb.w	r3, [r4, #404]	@ 0x194
  p_cli->argc = 0;
 80019ae:	f8a4 6112 	strh.w	r6, [r4, #274]	@ 0x112
  argv[argc] = NULL;
 80019b2:	f8c4 6114 	str.w	r6, [r4, #276]	@ 0x114
  for (tok = strtok_r(cmdline, delim, &next_ptr); tok; tok = strtok_r(NULL, delim, &next_ptr))
 80019b6:	f004 ff35 	bl	8006824 <strtok_r>
 80019ba:	4633      	mov	r3, r6
 80019bc:	4605      	mov	r5, r0
 80019be:	1c5e      	adds	r6, r3, #1
    argv[argc++] = tok;
 80019c0:	b29b      	uxth	r3, r3
  for (tok = strtok_r(cmdline, delim, &next_ptr); tok; tok = strtok_r(NULL, delim, &next_ptr))
 80019c2:	2d00      	cmp	r5, #0
 80019c4:	d13d      	bne.n	8001a42 <cliMain+0x1fe>
  p_cli->argc = argc;
 80019c6:	f8a4 3112 	strh.w	r3, [r4, #274]	@ 0x112
  if (argc > 0)
 80019ca:	b31b      	cbz	r3, 8001a14 <cliMain+0x1d0>
    cliPrintf("\r\n");
 80019cc:	4846      	ldr	r0, [pc, #280]	@ (8001ae8 <cliMain+0x2a4>)
 80019ce:	4e47      	ldr	r6, [pc, #284]	@ (8001aec <cliMain+0x2a8>)
 80019d0:	f7ff fe8c 	bl	80016ec <cliPrintf>
    cliToUpper(p_cli->argv[0]);
 80019d4:	f8d4 0114 	ldr.w	r0, [r4, #276]	@ 0x114
 80019d8:	f7ff fd7a 	bl	80014d0 <cliToUpper>
    for (int i=0; i<p_cli->cmd_count; i++)
 80019dc:	f8b4 82e8 	ldrh.w	r8, [r4, #744]	@ 0x2e8
      if (strcmp(p_cli->argv[0], p_cli->cmd_list[i].cmd_str) == 0)
 80019e0:	f8d4 9114 	ldr.w	r9, [r4, #276]	@ 0x114
    for (int i=0; i<p_cli->cmd_count; i++)
 80019e4:	4545      	cmp	r5, r8
 80019e6:	da15      	bge.n	8001a14 <cliMain+0x1d0>
      if (strcmp(p_cli->argv[0], p_cli->cmd_list[i].cmd_str) == 0)
 80019e8:	4631      	mov	r1, r6
 80019ea:	4648      	mov	r0, r9
 80019ec:	f7fe fbf8 	bl	80001e0 <strcmp>
 80019f0:	3614      	adds	r6, #20
 80019f2:	bb80      	cbnz	r0, 8001a56 <cliMain+0x212>
        p_cli->cmd_args.argc =  p_cli->argc - 1;
 80019f4:	f8b4 3112 	ldrh.w	r3, [r4, #274]	@ 0x112
        p_cli->cmd_args.argv = &p_cli->argv[1];
 80019f8:	483d      	ldr	r0, [pc, #244]	@ (8001af0 <cliMain+0x2ac>)
 80019fa:	f8c4 0430 	str.w	r0, [r4, #1072]	@ 0x430
        p_cli->cmd_args.argc =  p_cli->argc - 1;
 80019fe:	3b01      	subs	r3, #1
 8001a00:	f8a4 342c 	strh.w	r3, [r4, #1068]	@ 0x42c
        p_cli->cmd_list[i].cmd_func(&p_cli->cmd_args);
 8001a04:	2314      	movs	r3, #20
 8001a06:	fb03 4305 	mla	r3, r3, r5, r4
 8001a0a:	f500 7045 	add.w	r0, r0, #788	@ 0x314
 8001a0e:	f8d3 32fc 	ldr.w	r3, [r3, #764]	@ 0x2fc
 8001a12:	4798      	blx	r3
        line->count = 0;
 8001a14:	2300      	movs	r3, #0
  uartPrintf(p_cli->ch, "\n\r");
 8001a16:	4937      	ldr	r1, [pc, #220]	@ (8001af4 <cliMain+0x2b0>)
 8001a18:	7820      	ldrb	r0, [r4, #0]
        line->count = 0;
 8001a1a:	f884 32e6 	strb.w	r3, [r4, #742]	@ 0x2e6
        line->cursor = 0;
 8001a1e:	f884 32e5 	strb.w	r3, [r4, #741]	@ 0x2e5
        line->buf[0] = 0;
 8001a22:	f884 32a4 	strb.w	r3, [r4, #676]	@ 0x2a4
  uartPrintf(p_cli->ch, "\n\r");
 8001a26:	f000 faf1 	bl	800200c <uartPrintf>
  uartPrintf(p_cli->ch, CLI_PROMPT_STR);
 8001a2a:	4933      	ldr	r1, [pc, #204]	@ (8001af8 <cliMain+0x2b4>)
          uartPrintf(p_cli->ch, "\b \b\x1B[1P");
 8001a2c:	7820      	ldrb	r0, [r4, #0]
 8001a2e:	f000 faed 	bl	800200c <uartPrintf>
  switch(p_cli->state)
 8001a32:	7c23      	ldrb	r3, [r4, #16]
 8001a34:	3b01      	subs	r3, #1
 8001a36:	2b03      	cmp	r3, #3
 8001a38:	d842      	bhi.n	8001ac0 <cliMain+0x27c>
 8001a3a:	e8df f003 	tbb	[pc, r3]
 8001a3e:	483f      	.short	0x483f
 8001a40:	d963      	.short	0xd963
    argv[argc++] = tok;
 8001a42:	f848 5023 	str.w	r5, [r8, r3, lsl #2]
  for (tok = strtok_r(cmdline, delim, &next_ptr); tok; tok = strtok_r(NULL, delim, &next_ptr))
 8001a46:	aa02      	add	r2, sp, #8
 8001a48:	4649      	mov	r1, r9
 8001a4a:	2000      	movs	r0, #0
 8001a4c:	f004 feea 	bl	8006824 <strtok_r>
 8001a50:	4633      	mov	r3, r6
 8001a52:	4605      	mov	r5, r0
 8001a54:	e7b3      	b.n	80019be <cliMain+0x17a>
    for (int i=0; i<p_cli->cmd_count; i++)
 8001a56:	3501      	adds	r5, #1
 8001a58:	e7c4      	b.n	80019e4 <cliMain+0x1a0>
            line->buf[line->cursor + i - 1] = line->buf[line->cursor + i];
 8001a5a:	7855      	ldrb	r5, [r2, #1]
 8001a5c:	f802 5b01 	strb.w	r5, [r2], #1
          for (int i=1; i<mov_len; i++)
 8001a60:	3001      	adds	r0, #1
 8001a62:	e76c      	b.n	800193e <cliMain+0xfa>
        if (line->count > 0 && line->cursor > 0)
 8001a64:	f894 32e6 	ldrb.w	r3, [r4, #742]	@ 0x2e6
        if (line->cursor < line->count)
 8001a68:	f894 62e5 	ldrb.w	r6, [r4, #741]	@ 0x2e5
        if (line->count > 0 && line->cursor > 0)
 8001a6c:	b92b      	cbnz	r3, 8001a7a <cliMain+0x236>
        if (line->cursor > 0)
 8001a6e:	b33e      	cbz	r6, 8001ac0 <cliMain+0x27c>
          line->cursor--;
 8001a70:	1e73      	subs	r3, r6, #1
          uartPrintf(p_cli->ch, "\b \b\x1B[1P");
 8001a72:	4922      	ldr	r1, [pc, #136]	@ (8001afc <cliMain+0x2b8>)
          line->cursor--;
 8001a74:	f884 32e5 	strb.w	r3, [r4, #741]	@ 0x2e5
          uartPrintf(p_cli->ch, "\b \b\x1B[1P");
 8001a78:	e7d8      	b.n	8001a2c <cliMain+0x1e8>
        if (line->count > 0 && line->cursor > 0)
 8001a7a:	b30e      	cbz	r6, 8001ac0 <cliMain+0x27c>
          if (line->cursor == line->count)
 8001a7c:	42b3      	cmp	r3, r6
 8001a7e:	d106      	bne.n	8001a8e <cliMain+0x24a>
            line->count--;
 8001a80:	1e73      	subs	r3, r6, #1
 8001a82:	b2db      	uxtb	r3, r3
 8001a84:	f884 32e6 	strb.w	r3, [r4, #742]	@ 0x2e6
            line->buf[line->count] = 0;
 8001a88:	4423      	add	r3, r4
 8001a8a:	f883 22a4 	strb.w	r2, [r3, #676]	@ 0x2a4
          if (line->cursor < line->count)
 8001a8e:	f894 52e6 	ldrb.w	r5, [r4, #742]	@ 0x2e6
 8001a92:	42b5      	cmp	r5, r6
 8001a94:	d9ec      	bls.n	8001a70 <cliMain+0x22c>
            mov_len = line->count - line->cursor;
 8001a96:	1baa      	subs	r2, r5, r6
              line->buf[line->cursor + i - 1] = line->buf[line->cursor + i];
 8001a98:	f506 7129 	add.w	r1, r6, #676	@ 0x2a4
 8001a9c:	f206 20a3 	addw	r0, r6, #675	@ 0x2a3
            line->count--;
 8001aa0:	3d01      	subs	r5, #1
 8001aa2:	b2ed      	uxtb	r5, r5
              line->buf[line->cursor + i - 1] = line->buf[line->cursor + i];
 8001aa4:	b2d2      	uxtb	r2, r2
 8001aa6:	4421      	add	r1, r4
 8001aa8:	4420      	add	r0, r4
 8001aaa:	f004 fe5f 	bl	800676c <memmove>
            line->count--;
 8001aae:	f884 52e6 	strb.w	r5, [r4, #742]	@ 0x2e6
            line->buf[line->count] = 0;
 8001ab2:	4425      	add	r5, r4
 8001ab4:	2300      	movs	r3, #0
 8001ab6:	f885 32a4 	strb.w	r3, [r5, #676]	@ 0x2a4
        if (line->cursor > 0)
 8001aba:	e7d9      	b.n	8001a70 <cliMain+0x22c>
      p_cli->state = CLI_RX_SP2;
 8001abc:	2302      	movs	r3, #2
      p_cli->state = CLI_RX_IDLE;
 8001abe:	7423      	strb	r3, [r4, #16]
  cliShowLog(p_cli);
 8001ac0:	4804      	ldr	r0, [pc, #16]	@ (8001ad4 <cliMain+0x290>)
 8001ac2:	f7ff fdb7 	bl	8001634 <cliShowLog>
}
 8001ac6:	4638      	mov	r0, r7
 8001ac8:	b005      	add	sp, #20
 8001aca:	e8bd 83f0 	ldmia.w	sp!, {r4, r5, r6, r7, r8, r9, pc}
      p_cli->state = CLI_RX_SP3;
 8001ace:	2303      	movs	r3, #3
 8001ad0:	e7f5      	b.n	8001abe <cliMain+0x27a>
 8001ad2:	bf00      	nop
 8001ad4:	20000304 	.word	0x20000304
 8001ad8:	08008a85 	.word	0x08008a85
 8001adc:	08008a80 	.word	0x08008a80
 8001ae0:	08008a6d 	.word	0x08008a6d
 8001ae4:	200005a8 	.word	0x200005a8
 8001ae8:	08008a17 	.word	0x08008a17
 8001aec:	200005f0 	.word	0x200005f0
 8001af0:	2000041c 	.word	0x2000041c
 8001af4:	08008a74 	.word	0x08008a74
 8001af8:	08008a77 	.word	0x08008a77
 8001afc:	08008a7d 	.word	0x08008a7d
 8001b00:	20000418 	.word	0x20000418
      if (rx_data == CLI_KEY_LEFT)
 8001b04:	f89d 2007 	ldrb.w	r2, [sp, #7]
      p_cli->state = CLI_RX_IDLE;
 8001b08:	2300      	movs	r3, #0
      if (rx_data == CLI_KEY_LEFT)
 8001b0a:	2a44      	cmp	r2, #68	@ 0x44
      p_cli->state = CLI_RX_IDLE;
 8001b0c:	7423      	strb	r3, [r4, #16]
      if (rx_data == CLI_KEY_LEFT)
 8001b0e:	d110      	bne.n	8001b32 <cliMain+0x2ee>
        if (line->cursor > 0)
 8001b10:	f894 32e5 	ldrb.w	r3, [r4, #741]	@ 0x2e5
 8001b14:	b383      	cbz	r3, 8001b78 <cliMain+0x334>
          line->cursor--;
 8001b16:	3b01      	subs	r3, #1
 8001b18:	f884 32e5 	strb.w	r3, [r4, #741]	@ 0x2e5
          tx_buf[2] = rx_data;
 8001b1c:	f88d 200a 	strb.w	r2, [sp, #10]
          tx_buf[0] = 0x1B;
 8001b20:	f645 331b 	movw	r3, #23323	@ 0x5b1b
          uartWrite(p_cli->ch, tx_buf, 3);
 8001b24:	7820      	ldrb	r0, [r4, #0]
          tx_buf[0] = 0x1B;
 8001b26:	f8ad 3008 	strh.w	r3, [sp, #8]
          uartWrite(p_cli->ch, tx_buf, 3);
 8001b2a:	2203      	movs	r2, #3
 8001b2c:	a902      	add	r1, sp, #8
 8001b2e:	f000 fa65 	bl	8001ffc <uartWrite>
      if (rx_data == CLI_KEY_RIGHT)
 8001b32:	f89d 2007 	ldrb.w	r2, [sp, #7]
 8001b36:	2a43      	cmp	r2, #67	@ 0x43
 8001b38:	d113      	bne.n	8001b62 <cliMain+0x31e>
        if (line->cursor < line->count)
 8001b3a:	f894 32e5 	ldrb.w	r3, [r4, #741]	@ 0x2e5
 8001b3e:	f894 12e6 	ldrb.w	r1, [r4, #742]	@ 0x2e6
 8001b42:	4299      	cmp	r1, r3
 8001b44:	d923      	bls.n	8001b8e <cliMain+0x34a>
          line->cursor++;
 8001b46:	3301      	adds	r3, #1
 8001b48:	f884 32e5 	strb.w	r3, [r4, #741]	@ 0x2e5
          tx_buf[2] = rx_data;
 8001b4c:	f88d 200a 	strb.w	r2, [sp, #10]
          tx_buf[0] = 0x1B;
 8001b50:	f645 331b 	movw	r3, #23323	@ 0x5b1b
          uartWrite(p_cli->ch, tx_buf, 3);
 8001b54:	7820      	ldrb	r0, [r4, #0]
          tx_buf[0] = 0x1B;
 8001b56:	f8ad 3008 	strh.w	r3, [sp, #8]
          uartWrite(p_cli->ch, tx_buf, 3);
 8001b5a:	2203      	movs	r2, #3
 8001b5c:	a902      	add	r1, sp, #8
 8001b5e:	f000 fa4d 	bl	8001ffc <uartWrite>
      if (rx_data == CLI_KEY_UP)
 8001b62:	f89d 3007 	ldrb.w	r3, [sp, #7]
 8001b66:	2b41      	cmp	r3, #65	@ 0x41
 8001b68:	d106      	bne.n	8001b78 <cliMain+0x334>
        cliLineChange(p_cli, true);
 8001b6a:	2001      	movs	r0, #1
 8001b6c:	f7ff fd10 	bl	8001590 <cliLineChange.constprop.0>
        uartPrintf(p_cli->ch, (char *)p_cli->line.buf);
 8001b70:	4920      	ldr	r1, [pc, #128]	@ (8001bf4 <cliMain+0x3b0>)
 8001b72:	7820      	ldrb	r0, [r4, #0]
 8001b74:	f000 fa4a 	bl	800200c <uartPrintf>
      if (rx_data == CLI_KEY_DOWN)
 8001b78:	f89d 3007 	ldrb.w	r3, [sp, #7]
 8001b7c:	2b42      	cmp	r3, #66	@ 0x42
 8001b7e:	d106      	bne.n	8001b8e <cliMain+0x34a>
        cliLineChange(p_cli, false);
 8001b80:	2000      	movs	r0, #0
 8001b82:	f7ff fd05 	bl	8001590 <cliLineChange.constprop.0>
        uartPrintf(p_cli->ch, (char *)p_cli->line.buf);
 8001b86:	491b      	ldr	r1, [pc, #108]	@ (8001bf4 <cliMain+0x3b0>)
 8001b88:	7820      	ldrb	r0, [r4, #0]
 8001b8a:	f000 fa3f 	bl	800200c <uartPrintf>
      if (rx_data == CLI_KEY_HOME)
 8001b8e:	f89d 3007 	ldrb.w	r3, [sp, #7]
 8001b92:	2b31      	cmp	r3, #49	@ 0x31
 8001b94:	d10a      	bne.n	8001bac <cliMain+0x368>
        uartPrintf(p_cli->ch, "\x1B[%dD", line->cursor);
 8001b96:	f894 22e5 	ldrb.w	r2, [r4, #741]	@ 0x2e5
 8001b9a:	4917      	ldr	r1, [pc, #92]	@ (8001bf8 <cliMain+0x3b4>)
 8001b9c:	7820      	ldrb	r0, [r4, #0]
 8001b9e:	f000 fa35 	bl	800200c <uartPrintf>
        line->cursor = 0;
 8001ba2:	2300      	movs	r3, #0
 8001ba4:	f884 32e5 	strb.w	r3, [r4, #741]	@ 0x2e5
        p_cli->state = CLI_RX_SP4;
 8001ba8:	2304      	movs	r3, #4
 8001baa:	7423      	strb	r3, [r4, #16]
      if (rx_data == CLI_KEY_END)
 8001bac:	f89d 3007 	ldrb.w	r3, [sp, #7]
 8001bb0:	2b34      	cmp	r3, #52	@ 0x34
 8001bb2:	d185      	bne.n	8001ac0 <cliMain+0x27c>
        if (line->cursor < line->count)
 8001bb4:	f894 32e5 	ldrb.w	r3, [r4, #741]	@ 0x2e5
 8001bb8:	f894 22e6 	ldrb.w	r2, [r4, #742]	@ 0x2e6
 8001bbc:	4293      	cmp	r3, r2
 8001bbe:	d205      	bcs.n	8001bcc <cliMain+0x388>
          mov_len = line->count - line->cursor;
 8001bc0:	1ad2      	subs	r2, r2, r3
          uartPrintf(p_cli->ch, "\x1B[%dC", mov_len);
 8001bc2:	490e      	ldr	r1, [pc, #56]	@ (8001bfc <cliMain+0x3b8>)
 8001bc4:	7820      	ldrb	r0, [r4, #0]
 8001bc6:	b292      	uxth	r2, r2
 8001bc8:	f000 fa20 	bl	800200c <uartPrintf>
        if (line->cursor > line->count)
 8001bcc:	f894 22e5 	ldrb.w	r2, [r4, #741]	@ 0x2e5
 8001bd0:	f894 32e6 	ldrb.w	r3, [r4, #742]	@ 0x2e6
 8001bd4:	429a      	cmp	r2, r3
 8001bd6:	d905      	bls.n	8001be4 <cliMain+0x3a0>
          mov_len = line->cursor - line->count;
 8001bd8:	1ad2      	subs	r2, r2, r3
          uartPrintf(p_cli->ch, "\x1B[%dD", mov_len);
 8001bda:	4907      	ldr	r1, [pc, #28]	@ (8001bf8 <cliMain+0x3b4>)
 8001bdc:	7820      	ldrb	r0, [r4, #0]
 8001bde:	b292      	uxth	r2, r2
 8001be0:	f000 fa14 	bl	800200c <uartPrintf>
        line->cursor = line->count;
 8001be4:	f894 32e6 	ldrb.w	r3, [r4, #742]	@ 0x2e6
 8001be8:	f884 32e5 	strb.w	r3, [r4, #741]	@ 0x2e5
        p_cli->state = CLI_RX_SP4;
 8001bec:	2304      	movs	r3, #4
 8001bee:	e766      	b.n	8001abe <cliMain+0x27a>
      p_cli->state = CLI_RX_IDLE;
 8001bf0:	2300      	movs	r3, #0
 8001bf2:	e764      	b.n	8001abe <cliMain+0x27a>
 8001bf4:	200005a8 	.word	0x200005a8
 8001bf8:	0800897d 	.word	0x0800897d
 8001bfc:	08008a90 	.word	0x08008a90

08001c00 <cliKeepLoop>:
{
 8001c00:	b508      	push	{r3, lr}
  if (uartAvailable(p_cli->ch) == 0)
 8001c02:	4b04      	ldr	r3, [pc, #16]	@ (8001c14 <cliKeepLoop+0x14>)
 8001c04:	7818      	ldrb	r0, [r3, #0]
 8001c06:	f000 f9ef 	bl	8001fe8 <uartAvailable>
}
 8001c0a:	fab0 f080 	clz	r0, r0
 8001c0e:	0940      	lsrs	r0, r0, #5
 8001c10:	bd08      	pop	{r3, pc}
 8001c12:	bf00      	nop
 8001c14:	20000304 	.word	0x20000304

08001c18 <cliAdd>:
{
 8001c18:	b570      	push	{r4, r5, r6, lr}
  if (p_cli->cmd_count >= CLI_CMD_LIST_MAX)
 8001c1a:	4d0e      	ldr	r5, [pc, #56]	@ (8001c54 <cliAdd+0x3c>)
 8001c1c:	f8b5 42e8 	ldrh.w	r4, [r5, #744]	@ 0x2e8
 8001c20:	2c0f      	cmp	r4, #15
{
 8001c22:	460e      	mov	r6, r1
  if (p_cli->cmd_count >= CLI_CMD_LIST_MAX)
 8001c24:	d814      	bhi.n	8001c50 <cliAdd+0x38>
  strcpy(p_cli->cmd_list[index].cmd_str, cmd_str);
 8001c26:	2314      	movs	r3, #20
 8001c28:	435c      	muls	r4, r3
 8001c2a:	f504 733b 	add.w	r3, r4, #748	@ 0x2ec
 8001c2e:	442b      	add	r3, r5
 8001c30:	4601      	mov	r1, r0
  p_cli->cmd_list[index].cmd_func = p_func;
 8001c32:	442c      	add	r4, r5
  strcpy(p_cli->cmd_list[index].cmd_str, cmd_str);
 8001c34:	4618      	mov	r0, r3
 8001c36:	f004 fe6c 	bl	8006912 <strcpy>
  p_cli->cmd_list[index].cmd_func = p_func;
 8001c3a:	f8c4 62fc 	str.w	r6, [r4, #764]	@ 0x2fc
  cliToUpper(p_cli->cmd_list[index].cmd_str);
 8001c3e:	f7ff fc47 	bl	80014d0 <cliToUpper>
  p_cli->cmd_count++;
 8001c42:	f8b5 32e8 	ldrh.w	r3, [r5, #744]	@ 0x2e8
 8001c46:	3301      	adds	r3, #1
 8001c48:	f8a5 32e8 	strh.w	r3, [r5, #744]	@ 0x2e8
  return ret;
 8001c4c:	2001      	movs	r0, #1
}
 8001c4e:	bd70      	pop	{r4, r5, r6, pc}
    return false;
 8001c50:	2000      	movs	r0, #0
 8001c52:	e7fc      	b.n	8001c4e <cliAdd+0x36>
 8001c54:	20000304 	.word	0x20000304

08001c58 <cliInit>:
{
 8001c58:	b508      	push	{r3, lr}
  cli_node.is_open = false;
 8001c5a:	4b11      	ldr	r3, [pc, #68]	@ (8001ca0 <cliInit+0x48>)
  cli_node.cmd_args.getData  = cliArgsGetData;
 8001c5c:	4911      	ldr	r1, [pc, #68]	@ (8001ca4 <cliInit+0x4c>)
 8001c5e:	f8c3 1434 	str.w	r1, [r3, #1076]	@ 0x434
  cli_node.cmd_args.getFloat = cliArgsGetFloat;
 8001c62:	4911      	ldr	r1, [pc, #68]	@ (8001ca8 <cliInit+0x50>)
 8001c64:	f8c3 1438 	str.w	r1, [r3, #1080]	@ 0x438
  cli_node.cmd_args.getStr   = cliArgsGetStr;
 8001c68:	4910      	ldr	r1, [pc, #64]	@ (8001cac <cliInit+0x54>)
 8001c6a:	f8c3 143c 	str.w	r1, [r3, #1084]	@ 0x43c
  cli_node.cmd_args.isStr    = cliArgsIsStr;
 8001c6e:	4910      	ldr	r1, [pc, #64]	@ (8001cb0 <cliInit+0x58>)
 8001c70:	f8c3 1440 	str.w	r1, [r3, #1088]	@ 0x440
  p_cli->line.buf_len = CLI_LINE_BUF_MAX - 1;
 8001c74:	213f      	movs	r1, #63	@ 0x3f
  cli_node.is_open = false;
 8001c76:	2200      	movs	r2, #0
  p_cli->line.buf_len = CLI_LINE_BUF_MAX - 1;
 8001c78:	f8a3 12e4 	strh.w	r1, [r3, #740]	@ 0x2e4
  cliAdd("help", cliShowList);
 8001c7c:	480d      	ldr	r0, [pc, #52]	@ (8001cb4 <cliInit+0x5c>)
 8001c7e:	490e      	ldr	r1, [pc, #56]	@ (8001cb8 <cliInit+0x60>)
  cli_node.is_open = false;
 8001c80:	811a      	strh	r2, [r3, #8]
  cli_node.state   = CLI_RX_IDLE;
 8001c82:	741a      	strb	r2, [r3, #16]
  cli_node.hist_line_new   = false;
 8001c84:	f8c3 2194 	str.w	r2, [r3, #404]	@ 0x194
  p_cli->line.count   = 0;
 8001c88:	f883 22e6 	strb.w	r2, [r3, #742]	@ 0x2e6
  p_cli->line.buf[0]  = 0;
 8001c8c:	f883 22a4 	strb.w	r2, [r3, #676]	@ 0x2a4
  cliAdd("help", cliShowList);
 8001c90:	f7ff ffc2 	bl	8001c18 <cliAdd>
  cliAdd("md"  , cliMemoryDump);
 8001c94:	4909      	ldr	r1, [pc, #36]	@ (8001cbc <cliInit+0x64>)
 8001c96:	480a      	ldr	r0, [pc, #40]	@ (8001cc0 <cliInit+0x68>)
 8001c98:	f7ff ffbe 	bl	8001c18 <cliAdd>
}
 8001c9c:	2001      	movs	r0, #1
 8001c9e:	bd08      	pop	{r3, pc}
 8001ca0:	20000304 	.word	0x20000304
 8001ca4:	0800156d 	.word	0x0800156d
 8001ca8:	08001545 	.word	0x08001545
 8001cac:	080014fd 	.word	0x080014fd
 8001cb0:	08001519 	.word	0x08001519
 8001cb4:	08008a96 	.word	0x08008a96
 8001cb8:	08001721 	.word	0x08001721
 8001cbc:	0800176d 	.word	0x0800176d
 8001cc0:	08008a9b 	.word	0x08008a9b

08001cc4 <flashInit>:
#ifdef _USE_HW_CLI
static void cliFlash(cli_args_t *args);
#endif

bool flashInit(void)
{
 8001cc4:	b508      	push	{r3, lr}
#ifdef _USE_HW_CLI
	cliAdd("flash",cliFlash);
 8001cc6:	4903      	ldr	r1, [pc, #12]	@ (8001cd4 <flashInit+0x10>)
 8001cc8:	4803      	ldr	r0, [pc, #12]	@ (8001cd8 <flashInit+0x14>)
 8001cca:	f7ff ffa5 	bl	8001c18 <cliAdd>
#endif
	// 8    
  return true;
}
 8001cce:	2001      	movs	r0, #1
 8001cd0:	bd08      	pop	{r3, pc}
 8001cd2:	bf00      	nop
 8001cd4:	08001db5 	.word	0x08001db5
 8001cd8:	08008a9e 	.word	0x08008a9e

08001cdc <flashErase>:

bool flashErase(uint32_t addr, uint32_t length) // 
{
 8001cdc:	b5f0      	push	{r4, r5, r6, r7, lr}
  bool ret = false;
  HAL_StatusTypeDef status;
  FLASH_EraseInitTypeDef init;
  uint32_t page_error;

  int16_t  start_sector_num = -1;
 8001cde:	f04f 36ff 	mov.w	r6, #4294967295
  uint32_t sector_count = 0;



  for (int i=0; i<FLASH_SECTOR_MAX; i++)
 8001ce2:	2700      	movs	r7, #0


  sector_start = flash_tbl[sector_num].addr;
  sector_end   = flash_tbl[sector_num].addr + flash_tbl[sector_num].length - 1;
  flash_start  = addr;
  flash_end    = addr + length - 1;
 8001ce4:	4431      	add	r1, r6
 8001ce6:	f8df c090 	ldr.w	ip, [pc, #144]	@ 8001d78 <flashErase+0x9c>
{
 8001cea:	b087      	sub	sp, #28
  uint32_t sector_count = 0;
 8001cec:	463c      	mov	r4, r7
  flash_end    = addr + length - 1;
 8001cee:	4401      	add	r1, r0
  sector_end   = flash_tbl[sector_num].addr + flash_tbl[sector_num].length - 1;
 8001cf0:	e9dc 2300 	ldrd	r2, r3, [ip]
 8001cf4:	4413      	add	r3, r2


  if (sector_start >= flash_start && sector_start <= flash_end)
 8001cf6:	4290      	cmp	r0, r2
  sector_end   = flash_tbl[sector_num].addr + flash_tbl[sector_num].length - 1;
 8001cf8:	f103 33ff 	add.w	r3, r3, #4294967295
  if (sector_start >= flash_start && sector_start <= flash_end)
 8001cfc:	d831      	bhi.n	8001d62 <flashErase+0x86>
 8001cfe:	428a      	cmp	r2, r1
 8001d00:	bf8c      	ite	hi
 8001d02:	2500      	movhi	r5, #0
 8001d04:	2501      	movls	r5, #1
  {
    ret = true;
  }

  if (sector_end >= flash_start && sector_end <= flash_end)
 8001d06:	4298      	cmp	r0, r3
 8001d08:	d802      	bhi.n	8001d10 <flashErase+0x34>
  {
    ret = true;
 8001d0a:	428b      	cmp	r3, r1
 8001d0c:	bf98      	it	ls
 8001d0e:	2501      	movls	r5, #1
  }

  if (flash_start >= sector_start && flash_start <= sector_end)
 8001d10:	4290      	cmp	r0, r2
 8001d12:	d301      	bcc.n	8001d18 <flashErase+0x3c>
 8001d14:	4298      	cmp	r0, r3
 8001d16:	d904      	bls.n	8001d22 <flashErase+0x46>
  {
    ret = true;
  }

  if (flash_end >= sector_start && flash_end <= sector_end)
 8001d18:	428a      	cmp	r2, r1
 8001d1a:	d801      	bhi.n	8001d20 <flashErase+0x44>
 8001d1c:	428b      	cmp	r3, r1
 8001d1e:	d200      	bcs.n	8001d22 <flashErase+0x46>
    if (flashInSector(i, addr, length) == true)
 8001d20:	b11d      	cbz	r5, 8001d2a <flashErase+0x4e>
      if (start_sector_num < 0)
 8001d22:	2e00      	cmp	r6, #0
        start_sector_num = i;
 8001d24:	bfb8      	it	lt
 8001d26:	b23e      	sxthlt	r6, r7
      sector_count++;
 8001d28:	3401      	adds	r4, #1
  for (int i=0; i<FLASH_SECTOR_MAX; i++)
 8001d2a:	3701      	adds	r7, #1
 8001d2c:	2f08      	cmp	r7, #8
 8001d2e:	f10c 0c08 	add.w	ip, ip, #8
 8001d32:	d1dd      	bne.n	8001cf0 <flashErase+0x14>
  if (sector_count > 0)
 8001d34:	b194      	cbz	r4, 8001d5c <flashErase+0x80>
    HAL_FLASH_Unlock();
 8001d36:	f001 fe13 	bl	8003960 <HAL_FLASH_Unlock>
    init.Banks       	= FLASH_BANK_1;
 8001d3a:	2200      	movs	r2, #0
 8001d3c:	2301      	movs	r3, #1
 8001d3e:	e9cd 2301 	strd	r2, r3, [sp, #4]
    status = HAL_FLASHEx_Erase(&init, &page_error);
 8001d42:	4669      	mov	r1, sp
    init.VoltageRange	= FLASH_VOLTAGE_RANGE_3; 			// 3,3V 
 8001d44:	2302      	movs	r3, #2
    status = HAL_FLASHEx_Erase(&init, &page_error);
 8001d46:	a801      	add	r0, sp, #4
    init.NbSectors   	= sector_count;
 8001d48:	e9cd 6403 	strd	r6, r4, [sp, #12]
    init.VoltageRange	= FLASH_VOLTAGE_RANGE_3; 			// 3,3V 
 8001d4c:	9305      	str	r3, [sp, #20]
    status = HAL_FLASHEx_Erase(&init, &page_error);
 8001d4e:	f001 feed 	bl	8003b2c <HAL_FLASHEx_Erase>
    if (status == HAL_OK)
 8001d52:	fab0 f480 	clz	r4, r0
 8001d56:	0964      	lsrs	r4, r4, #5
    HAL_FLASH_Lock();
 8001d58:	f001 fe14 	bl	8003984 <HAL_FLASH_Lock>
}
 8001d5c:	4620      	mov	r0, r4
 8001d5e:	b007      	add	sp, #28
 8001d60:	bdf0      	pop	{r4, r5, r6, r7, pc}
  if (sector_end >= flash_start && sector_end <= flash_end)
 8001d62:	4298      	cmp	r0, r3
 8001d64:	d903      	bls.n	8001d6e <flashErase+0x92>
  if (flash_end >= sector_start && flash_end <= sector_end)
 8001d66:	428a      	cmp	r2, r1
 8001d68:	d8df      	bhi.n	8001d2a <flashErase+0x4e>
  bool ret = false;
 8001d6a:	2500      	movs	r5, #0
 8001d6c:	e7d6      	b.n	8001d1c <flashErase+0x40>
  if (sector_end >= flash_start && sector_end <= flash_end)
 8001d6e:	428b      	cmp	r3, r1
 8001d70:	d9d7      	bls.n	8001d22 <flashErase+0x46>
  bool ret = false;
 8001d72:	2500      	movs	r5, #0
 8001d74:	e7cc      	b.n	8001d10 <flashErase+0x34>
 8001d76:	bf00      	nop
 8001d78:	08008db4 	.word	0x08008db4

08001d7c <flashWrite>:
{
 8001d7c:	b570      	push	{r4, r5, r6, lr}
 8001d7e:	4604      	mov	r4, r0
 8001d80:	460d      	mov	r5, r1
 8001d82:	4616      	mov	r6, r2
  HAL_FLASH_Unlock();
 8001d84:	f001 fdec 	bl	8003960 <HAL_FLASH_Unlock>
  for (int i=0; i<length; i+=1)
 8001d88:	3d01      	subs	r5, #1
 8001d8a:	4426      	add	r6, r4
 8001d8c:	42b4      	cmp	r4, r6
 8001d8e:	d104      	bne.n	8001d9a <flashWrite+0x1e>
  bool ret = true;
 8001d90:	2401      	movs	r4, #1
  HAL_FLASH_Lock();
 8001d92:	f001 fdf7 	bl	8003984 <HAL_FLASH_Lock>
}
 8001d96:	4620      	mov	r0, r4
 8001d98:	bd70      	pop	{r4, r5, r6, pc}
    status = HAL_FLASH_Program(FLASH_TYPEPROGRAM_BYTE, addr + i, (uint64_t)data);
 8001d9a:	2300      	movs	r3, #0
 8001d9c:	4621      	mov	r1, r4
 8001d9e:	f815 2f01 	ldrb.w	r2, [r5, #1]!
 8001da2:	4618      	mov	r0, r3
 8001da4:	f001 fe20 	bl	80039e8 <HAL_FLASH_Program>
    if (status != HAL_OK)
 8001da8:	3401      	adds	r4, #1
 8001daa:	2800      	cmp	r0, #0
 8001dac:	d0ee      	beq.n	8001d8c <flashWrite+0x10>
      ret = false;
 8001dae:	2400      	movs	r4, #0
 8001db0:	e7ef      	b.n	8001d92 <flashWrite+0x16>
	...

08001db4 <cliFlash>:
#ifdef _USE_HW_CLI
void cliFlash(cli_args_t *args)
	{
		bool ret = false;

		if(args -> argc == 1 && args -> isStr(0,"info") == true)
 8001db4:	8803      	ldrh	r3, [r0, #0]
 8001db6:	2b01      	cmp	r3, #1
	{
 8001db8:	e92d 41f3 	stmdb	sp!, {r0, r1, r4, r5, r6, r7, r8, lr}
 8001dbc:	4604      	mov	r4, r0
		if(args -> argc == 1 && args -> isStr(0,"info") == true)
 8001dbe:	d156      	bne.n	8001e6e <cliFlash+0xba>
 8001dc0:	6943      	ldr	r3, [r0, #20]
 8001dc2:	493f      	ldr	r1, [pc, #252]	@ (8001ec0 <cliFlash+0x10c>)
 8001dc4:	2000      	movs	r0, #0
 8001dc6:	4798      	blx	r3
 8001dc8:	4605      	mov	r5, r0
 8001dca:	2800      	cmp	r0, #0
 8001dcc:	d04f      	beq.n	8001e6e <cliFlash+0xba>
 8001dce:	4f3d      	ldr	r7, [pc, #244]	@ (8001ec4 <cliFlash+0x110>)
		{
			for(int i = 0; i < FLASH_SECTOR_MAX; i++)
			{
				cliPrintf("0x%X : %dKB\n", flash_tbl[i].addr, flash_tbl[i].length/1024);
 8001dd0:	f8df 8120 	ldr.w	r8, [pc, #288]	@ 8001ef4 <cliFlash+0x140>
			for(int i = 0; i < FLASH_SECTOR_MAX; i++)
 8001dd4:	2600      	movs	r6, #0
				cliPrintf("0x%X : %dKB\n", flash_tbl[i].addr, flash_tbl[i].length/1024);
 8001dd6:	687a      	ldr	r2, [r7, #4]
 8001dd8:	f857 1b08 	ldr.w	r1, [r7], #8
 8001ddc:	0a92      	lsrs	r2, r2, #10
 8001dde:	4640      	mov	r0, r8
			for(int i = 0; i < FLASH_SECTOR_MAX; i++)
 8001de0:	3601      	adds	r6, #1
				cliPrintf("0x%X : %dKB\n", flash_tbl[i].addr, flash_tbl[i].length/1024);
 8001de2:	f7ff fc83 	bl	80016ec <cliPrintf>
			for(int i = 0; i < FLASH_SECTOR_MAX; i++)
 8001de6:	2e08      	cmp	r6, #8
 8001de8:	d1f5      	bne.n	8001dd6 <cliFlash+0x22>
			}
			ret = true;
		}

		if (args -> argc == 3 && args -> isStr(0,"read") == true)
 8001dea:	8823      	ldrh	r3, [r4, #0]
 8001dec:	2b03      	cmp	r3, #3
 8001dee:	d106      	bne.n	8001dfe <cliFlash+0x4a>
 8001df0:	6963      	ldr	r3, [r4, #20]
 8001df2:	4935      	ldr	r1, [pc, #212]	@ (8001ec8 <cliFlash+0x114>)
 8001df4:	2000      	movs	r0, #0
 8001df6:	4798      	blx	r3
 8001df8:	4606      	mov	r6, r0
 8001dfa:	2800      	cmp	r0, #0
 8001dfc:	d139      	bne.n	8001e72 <cliFlash+0xbe>
		bool ret = false;
 8001dfe:	462e      	mov	r6, r5
				cliPrintf("0x%X : 0x%X\n", addr+i, *((uint8_t *)(addr+i)) );
			}
			ret = true;
		}

		if (args -> argc == 3 && args -> isStr(0,"erase") == true)
 8001e00:	8823      	ldrh	r3, [r4, #0]
 8001e02:	2b03      	cmp	r3, #3
 8001e04:	d14c      	bne.n	8001ea0 <cliFlash+0xec>
 8001e06:	6963      	ldr	r3, [r4, #20]
 8001e08:	4930      	ldr	r1, [pc, #192]	@ (8001ecc <cliFlash+0x118>)
 8001e0a:	2000      	movs	r0, #0
 8001e0c:	4798      	blx	r3
 8001e0e:	4605      	mov	r5, r0
 8001e10:	b180      	cbz	r0, 8001e34 <cliFlash+0x80>
		{
			uint32_t 	addr;
			uint32_t 	length;

			addr 	= (uint32_t)args->getData(1);
 8001e12:	68a3      	ldr	r3, [r4, #8]
 8001e14:	2001      	movs	r0, #1
 8001e16:	4798      	blx	r3
			length	= (uint32_t)args->getData(2);
 8001e18:	68a3      	ldr	r3, [r4, #8]
			addr 	= (uint32_t)args->getData(1);
 8001e1a:	4606      	mov	r6, r0
			length	= (uint32_t)args->getData(2);
 8001e1c:	2002      	movs	r0, #2
 8001e1e:	4798      	blx	r3
 8001e20:	4601      	mov	r1, r0

			if(flashErase(addr, length) == true)
 8001e22:	4630      	mov	r0, r6
 8001e24:	f7ff ff5a 	bl	8001cdc <flashErase>
 8001e28:	2800      	cmp	r0, #0
 8001e2a:	d035      	beq.n	8001e98 <cliFlash+0xe4>
			{
				cliPrintf("Erase OK\n");
 8001e2c:	4828      	ldr	r0, [pc, #160]	@ (8001ed0 <cliFlash+0x11c>)
 8001e2e:	f7ff fc5d 	bl	80016ec <cliPrintf>
			else
			{
				cliPrintf("Erase Fail\n");
			}

			ret = true;
 8001e32:	462e      	mov	r6, r5
		}
		if (args -> argc == 3 && args -> isStr(0,"write") == true)
 8001e34:	8823      	ldrh	r3, [r4, #0]
 8001e36:	2b03      	cmp	r3, #3
 8001e38:	d132      	bne.n	8001ea0 <cliFlash+0xec>
 8001e3a:	6963      	ldr	r3, [r4, #20]
 8001e3c:	4925      	ldr	r1, [pc, #148]	@ (8001ed4 <cliFlash+0x120>)
 8001e3e:	2000      	movs	r0, #0
 8001e40:	4798      	blx	r3
 8001e42:	b368      	cbz	r0, 8001ea0 <cliFlash+0xec>
				{
					uint32_t 	addr;
					uint32_t 	data;

					addr 	= (uint32_t)args->getData(1);
 8001e44:	68a3      	ldr	r3, [r4, #8]
 8001e46:	2001      	movs	r0, #1
 8001e48:	4798      	blx	r3
					data	= (uint32_t)args->getData(2);
 8001e4a:	68a3      	ldr	r3, [r4, #8]
					addr 	= (uint32_t)args->getData(1);
 8001e4c:	4605      	mov	r5, r0
					data	= (uint32_t)args->getData(2);
 8001e4e:	2002      	movs	r0, #2
 8001e50:	4798      	blx	r3

					if(flashWrite(addr, (uint8_t *) &data, 4) == true)
 8001e52:	2204      	movs	r2, #4
					data	= (uint32_t)args->getData(2);
 8001e54:	9001      	str	r0, [sp, #4]
					if(flashWrite(addr, (uint8_t *) &data, 4) == true)
 8001e56:	eb0d 0102 	add.w	r1, sp, r2
 8001e5a:	4628      	mov	r0, r5
 8001e5c:	f7ff ff8e 	bl	8001d7c <flashWrite>
 8001e60:	b1e0      	cbz	r0, 8001e9c <cliFlash+0xe8>
					{
						cliPrintf("Write OK\n");
 8001e62:	481d      	ldr	r0, [pc, #116]	@ (8001ed8 <cliFlash+0x124>)
			cliPrintf("flash info\n");
			cliPrintf("flash read addr length\n");
			cliPrintf("flash erase addr length\n");
			cliPrintf("flash write addr data\n");
		}
	}
 8001e64:	b002      	add	sp, #8
 8001e66:	e8bd 41f0 	ldmia.w	sp!, {r4, r5, r6, r7, r8, lr}
			cliPrintf("flash write addr data\n");
 8001e6a:	f7ff bc3f 	b.w	80016ec <cliPrintf>
		bool ret = false;
 8001e6e:	2500      	movs	r5, #0
 8001e70:	e7bb      	b.n	8001dea <cliFlash+0x36>
			addr 	= (uint32_t)args->getData(1);
 8001e72:	68a3      	ldr	r3, [r4, #8]
				cliPrintf("0x%X : 0x%X\n", addr+i, *((uint8_t *)(addr+i)) );
 8001e74:	f8df 8080 	ldr.w	r8, [pc, #128]	@ 8001ef8 <cliFlash+0x144>
			addr 	= (uint32_t)args->getData(1);
 8001e78:	2001      	movs	r0, #1
 8001e7a:	4798      	blx	r3
			length	= (uint32_t)args->getData(2);
 8001e7c:	68a3      	ldr	r3, [r4, #8]
			addr 	= (uint32_t)args->getData(1);
 8001e7e:	4605      	mov	r5, r0
			length	= (uint32_t)args->getData(2);
 8001e80:	2002      	movs	r0, #2
 8001e82:	4798      	blx	r3
			for (int i = 0 ; i < length; i++)
 8001e84:	1947      	adds	r7, r0, r5
 8001e86:	42bd      	cmp	r5, r7
 8001e88:	d0ba      	beq.n	8001e00 <cliFlash+0x4c>
				cliPrintf("0x%X : 0x%X\n", addr+i, *((uint8_t *)(addr+i)) );
 8001e8a:	782a      	ldrb	r2, [r5, #0]
 8001e8c:	4629      	mov	r1, r5
 8001e8e:	4640      	mov	r0, r8
 8001e90:	f7ff fc2c 	bl	80016ec <cliPrintf>
			for (int i = 0 ; i < length; i++)
 8001e94:	3501      	adds	r5, #1
 8001e96:	e7f6      	b.n	8001e86 <cliFlash+0xd2>
				cliPrintf("Erase Fail\n");
 8001e98:	4810      	ldr	r0, [pc, #64]	@ (8001edc <cliFlash+0x128>)
 8001e9a:	e7c8      	b.n	8001e2e <cliFlash+0x7a>
						cliPrintf("Write Fail\n");
 8001e9c:	4810      	ldr	r0, [pc, #64]	@ (8001ee0 <cliFlash+0x12c>)
 8001e9e:	e7e1      	b.n	8001e64 <cliFlash+0xb0>
		if(ret != true)
 8001ea0:	b956      	cbnz	r6, 8001eb8 <cliFlash+0x104>
			cliPrintf("flash info\n");
 8001ea2:	4810      	ldr	r0, [pc, #64]	@ (8001ee4 <cliFlash+0x130>)
 8001ea4:	f7ff fc22 	bl	80016ec <cliPrintf>
			cliPrintf("flash read addr length\n");
 8001ea8:	480f      	ldr	r0, [pc, #60]	@ (8001ee8 <cliFlash+0x134>)
 8001eaa:	f7ff fc1f 	bl	80016ec <cliPrintf>
			cliPrintf("flash erase addr length\n");
 8001eae:	480f      	ldr	r0, [pc, #60]	@ (8001eec <cliFlash+0x138>)
 8001eb0:	f7ff fc1c 	bl	80016ec <cliPrintf>
			cliPrintf("flash write addr data\n");
 8001eb4:	480e      	ldr	r0, [pc, #56]	@ (8001ef0 <cliFlash+0x13c>)
 8001eb6:	e7d5      	b.n	8001e64 <cliFlash+0xb0>
	}
 8001eb8:	b002      	add	sp, #8
 8001eba:	e8bd 81f0 	ldmia.w	sp!, {r4, r5, r6, r7, r8, pc}
 8001ebe:	bf00      	nop
 8001ec0:	08008913 	.word	0x08008913
 8001ec4:	08008db4 	.word	0x08008db4
 8001ec8:	08008ab1 	.word	0x08008ab1
 8001ecc:	08008ac3 	.word	0x08008ac3
 8001ed0:	08008ac9 	.word	0x08008ac9
 8001ed4:	08008adf 	.word	0x08008adf
 8001ed8:	08008ae5 	.word	0x08008ae5
 8001edc:	08008ad3 	.word	0x08008ad3
 8001ee0:	08008aef 	.word	0x08008aef
 8001ee4:	08008afb 	.word	0x08008afb
 8001ee8:	08008b07 	.word	0x08008b07
 8001eec:	08008b1f 	.word	0x08008b1f
 8001ef0:	08008b38 	.word	0x08008b38
 8001ef4:	08008aa4 	.word	0x08008aa4
 8001ef8:	08008ab6 	.word	0x08008ab6

08001efc <ledOff.part.0>:

void ledOff(uint8_t ch)
{
  if (ch >= LED_MAX_CH) return;

  HAL_GPIO_WritePin(led_tbl[ch].port, led_tbl[ch].pin, led_tbl[ch].off_state);
 8001efc:	4b02      	ldr	r3, [pc, #8]	@ (8001f08 <ledOff.part.0+0xc>)
 8001efe:	79da      	ldrb	r2, [r3, #7]
 8001f00:	8899      	ldrh	r1, [r3, #4]
 8001f02:	6818      	ldr	r0, [r3, #0]
 8001f04:	f001 bf2e 	b.w	8003d64 <HAL_GPIO_WritePin>
 8001f08:	20000010 	.word	0x20000010

08001f0c <ledInit>:
{
 8001f0c:	b510      	push	{r4, lr}
  GPIO_InitTypeDef GPIO_InitStruct = {0};
 8001f0e:	2300      	movs	r3, #0
{
 8001f10:	b086      	sub	sp, #24
  GPIO_InitTypeDef GPIO_InitStruct = {0};
 8001f12:	e9cd 3303 	strd	r3, r3, [sp, #12]
  __HAL_RCC_GPIOC_CLK_ENABLE();	// GPIO      
 8001f16:	9300      	str	r3, [sp, #0]
  GPIO_InitTypeDef GPIO_InitStruct = {0};
 8001f18:	9305      	str	r3, [sp, #20]
  __HAL_RCC_GPIOC_CLK_ENABLE();	// GPIO      
 8001f1a:	4b0e      	ldr	r3, [pc, #56]	@ (8001f54 <ledInit+0x48>)
 8001f1c:	6b1a      	ldr	r2, [r3, #48]	@ 0x30
 8001f1e:	f042 0204 	orr.w	r2, r2, #4
 8001f22:	631a      	str	r2, [r3, #48]	@ 0x30
 8001f24:	6b1b      	ldr	r3, [r3, #48]	@ 0x30
 8001f26:	f003 0304 	and.w	r3, r3, #4
 8001f2a:	9300      	str	r3, [sp, #0]
 8001f2c:	9b00      	ldr	r3, [sp, #0]
    GPIO_InitStruct.Pin = led_tbl[i].pin;
 8001f2e:	4b0a      	ldr	r3, [pc, #40]	@ (8001f58 <ledInit+0x4c>)
    HAL_GPIO_Init(led_tbl[i].port, &GPIO_InitStruct);
 8001f30:	a901      	add	r1, sp, #4
    GPIO_InitStruct.Pin = led_tbl[i].pin;
 8001f32:	889a      	ldrh	r2, [r3, #4]
    HAL_GPIO_Init(led_tbl[i].port, &GPIO_InitStruct);
 8001f34:	6818      	ldr	r0, [r3, #0]
    GPIO_InitStruct.Pin = led_tbl[i].pin;
 8001f36:	9201      	str	r2, [sp, #4]
  GPIO_InitStruct.Mode = GPIO_MODE_OUTPUT_PP;
 8001f38:	2401      	movs	r4, #1
 8001f3a:	9402      	str	r4, [sp, #8]
    HAL_GPIO_Init(led_tbl[i].port, &GPIO_InitStruct);
 8001f3c:	f001 fe46 	bl	8003bcc <HAL_GPIO_Init>
  if (ch >= LED_MAX_CH) return;
 8001f40:	f7ff ffdc 	bl	8001efc <ledOff.part.0>
  cliAdd("led", cliLed);
 8001f44:	4905      	ldr	r1, [pc, #20]	@ (8001f5c <ledInit+0x50>)
 8001f46:	4806      	ldr	r0, [pc, #24]	@ (8001f60 <ledInit+0x54>)
 8001f48:	f7ff fe66 	bl	8001c18 <cliAdd>
}
 8001f4c:	4620      	mov	r0, r4
 8001f4e:	b006      	add	sp, #24
 8001f50:	bd10      	pop	{r4, pc}
 8001f52:	bf00      	nop
 8001f54:	40023800 	.word	0x40023800
 8001f58:	20000010 	.word	0x20000010
 8001f5c:	08001f79 	.word	0x08001f79
 8001f60:	08008b4f 	.word	0x08008b4f

08001f64 <ledToggle>:
}

void ledToggle(uint8_t ch)
{
  if (ch >= LED_MAX_CH) return;
 8001f64:	b920      	cbnz	r0, 8001f70 <ledToggle+0xc>

  HAL_GPIO_TogglePin(led_tbl[ch].port, led_tbl[ch].pin);
 8001f66:	4b03      	ldr	r3, [pc, #12]	@ (8001f74 <ledToggle+0x10>)
 8001f68:	8899      	ldrh	r1, [r3, #4]
 8001f6a:	6818      	ldr	r0, [r3, #0]
 8001f6c:	f001 beff 	b.w	8003d6e <HAL_GPIO_TogglePin>
}
 8001f70:	4770      	bx	lr
 8001f72:	bf00      	nop
 8001f74:	20000010 	.word	0x20000010

08001f78 <cliLed>:
void cliLed(cli_args_t *args)
{
  bool ret = false;


  if (args->argc == 3 && args->isStr(0, "toggle") == true)
 8001f78:	8803      	ldrh	r3, [r0, #0]
 8001f7a:	2b03      	cmp	r3, #3
{
 8001f7c:	b570      	push	{r4, r5, r6, lr}
 8001f7e:	4605      	mov	r5, r0
  if (args->argc == 3 && args->isStr(0, "toggle") == true)
 8001f80:	d122      	bne.n	8001fc8 <cliLed+0x50>
 8001f82:	6943      	ldr	r3, [r0, #20]
 8001f84:	4913      	ldr	r1, [pc, #76]	@ (8001fd4 <cliLed+0x5c>)
 8001f86:	2000      	movs	r0, #0
 8001f88:	4798      	blx	r3
 8001f8a:	b1e8      	cbz	r0, 8001fc8 <cliLed+0x50>
  {
    uint8_t  led_ch;
    uint32_t toggle_time;
    uint32_t pre_time;

    led_ch      = (uint8_t)args->getData(1);
 8001f8c:	68ab      	ldr	r3, [r5, #8]
 8001f8e:	2001      	movs	r0, #1
 8001f90:	4798      	blx	r3
    toggle_time = (uint32_t)args->getData(2);
 8001f92:	68ab      	ldr	r3, [r5, #8]
    led_ch      = (uint8_t)args->getData(1);
 8001f94:	b2c4      	uxtb	r4, r0
    toggle_time = (uint32_t)args->getData(2);
 8001f96:	2002      	movs	r0, #2
 8001f98:	4798      	blx	r3
 8001f9a:	4606      	mov	r6, r0

    if (led_ch > 0)
 8001f9c:	b10c      	cbz	r4, 8001fa2 <cliLed+0x2a>
    {
      led_ch--;
 8001f9e:	3c01      	subs	r4, #1
 8001fa0:	b2e4      	uxtb	r4, r4
    }

    pre_time = millis();
 8001fa2:	f7ff f8f7 	bl	8001194 <millis>
 8001fa6:	4605      	mov	r5, r0
    while(cliKeepLoop())
 8001fa8:	f7ff fe2a 	bl	8001c00 <cliKeepLoop>
 8001fac:	b900      	cbnz	r0, 8001fb0 <cliLed+0x38>

  if (ret != true)
  {
    cliPrintf("led toggle ch[1~%d] time_ms\n", LED_MAX_CH);
  }
}
 8001fae:	bd70      	pop	{r4, r5, r6, pc}
      if (millis()-pre_time >= toggle_time)
 8001fb0:	f7ff f8f0 	bl	8001194 <millis>
 8001fb4:	1b40      	subs	r0, r0, r5
 8001fb6:	4286      	cmp	r6, r0
 8001fb8:	d8f6      	bhi.n	8001fa8 <cliLed+0x30>
        pre_time = millis();
 8001fba:	f7ff f8eb 	bl	8001194 <millis>
 8001fbe:	4605      	mov	r5, r0
        ledToggle(led_ch);
 8001fc0:	4620      	mov	r0, r4
 8001fc2:	f7ff ffcf 	bl	8001f64 <ledToggle>
 8001fc6:	e7ef      	b.n	8001fa8 <cliLed+0x30>
}
 8001fc8:	e8bd 4070 	ldmia.w	sp!, {r4, r5, r6, lr}
    cliPrintf("led toggle ch[1~%d] time_ms\n", LED_MAX_CH);
 8001fcc:	4802      	ldr	r0, [pc, #8]	@ (8001fd8 <cliLed+0x60>)
 8001fce:	2101      	movs	r1, #1
 8001fd0:	f7ff bb8c 	b.w	80016ec <cliPrintf>
 8001fd4:	08008b53 	.word	0x08008b53
 8001fd8:	08008b5a 	.word	0x08008b5a

08001fdc <uartInit>:
    is_open[i] = false;
  }


  return true;
}
 8001fdc:	2001      	movs	r0, #1
 8001fde:	4770      	bx	lr

08001fe0 <uartOpen>:
      #endif
      break;
  }

  return ret;
}
 8001fe0:	fab0 f080 	clz	r0, r0
 8001fe4:	0940      	lsrs	r0, r0, #5
 8001fe6:	4770      	bx	lr

08001fe8 <uartAvailable>:

uint32_t uartAvailable(uint8_t ch)
{
  uint32_t ret = 0;

  switch(ch)
 8001fe8:	b908      	cbnz	r0, 8001fee <uartAvailable+0x6>
  {
    case _DEF_UART1:
      ret = cdcAvailable();
 8001fea:	f001 b90d 	b.w	8003208 <cdcAvailable>
      #endif
      break;
  }

  return ret;
}
 8001fee:	2000      	movs	r0, #0
 8001ff0:	4770      	bx	lr

08001ff2 <uartRead>:

uint8_t uartRead(uint8_t ch)
{
  uint8_t ret = 0;

  switch(ch)
 8001ff2:	b908      	cbnz	r0, 8001ff8 <uartRead+0x6>
  {
    case _DEF_UART1:
      ret = cdcRead();
 8001ff4:	f001 b91a 	b.w	800322c <cdcRead>
      #endif
      break;
  }

  return ret;
}
 8001ff8:	2000      	movs	r0, #0
 8001ffa:	4770      	bx	lr

08001ffc <uartWrite>:

uint32_t uartWrite(uint8_t ch, uint8_t *p_data, uint32_t length)
{
 8001ffc:	4603      	mov	r3, r0
 8001ffe:	4608      	mov	r0, r1
 8002000:	4611      	mov	r1, r2
  uint32_t ret = 0;
  //HAL_StatusTypeDef status;


  switch(ch)
 8002002:	b90b      	cbnz	r3, 8002008 <uartWrite+0xc>
  {
    case _DEF_UART1:
      ret = cdcWrite(p_data, length);
 8002004:	f001 b984 	b.w	8003310 <cdcWrite>
      #endif
      break;
  }

  return ret;
}
 8002008:	2000      	movs	r0, #0
 800200a:	4770      	bx	lr

0800200c <uartPrintf>:

uint32_t uartPrintf(uint8_t ch, char *fmt, ...)
{
 800200c:	b40e      	push	{r1, r2, r3}
 800200e:	b510      	push	{r4, lr}
 8002010:	b0c3      	sub	sp, #268	@ 0x10c
 8002012:	ab45      	add	r3, sp, #276	@ 0x114
 8002014:	4604      	mov	r4, r0
 8002016:	f853 2b04 	ldr.w	r2, [r3], #4
  char buf[256];
  va_list args;
  int len;
  uint32_t ret;

  va_start(args, fmt);
 800201a:	9301      	str	r3, [sp, #4]
  len = vsnprintf(buf, 256, fmt, args);
 800201c:	f44f 7180 	mov.w	r1, #256	@ 0x100
 8002020:	a802      	add	r0, sp, #8
 8002022:	f004 fb95 	bl	8006750 <vsniprintf>

  ret = uartWrite(ch, (uint8_t *)buf, len);
 8002026:	a902      	add	r1, sp, #8
  len = vsnprintf(buf, 256, fmt, args);
 8002028:	4602      	mov	r2, r0
  ret = uartWrite(ch, (uint8_t *)buf, len);
 800202a:	4620      	mov	r0, r4
 800202c:	f7ff ffe6 	bl	8001ffc <uartWrite>

  va_end(args);


  return ret;
}
 8002030:	b043      	add	sp, #268	@ 0x10c
 8002032:	e8bd 4010 	ldmia.w	sp!, {r4, lr}
 8002036:	b003      	add	sp, #12
 8002038:	4770      	bx	lr

0800203a <usbInit>:
bool usbInit(void)
{
  bool ret = true;

  return ret;
}
 800203a:	2001      	movs	r0, #1
 800203c:	4770      	bx	lr
	...

08002040 <usbBegin>:
bool usbBegin(UsbMode usb_mode)
{
	bool ret = false;

#if HW_USE_CDC == 1
	if(usb_mode == USB_CDC_MODE)
 8002040:	2801      	cmp	r0, #1
{
 8002042:	b510      	push	{r4, lr}
 8002044:	4604      	mov	r4, r0
	if(usb_mode == USB_CDC_MODE)
 8002046:	d120      	bne.n	800208a <usbBegin+0x4a>
	{
		if (USBD_Init(&hUsbDeviceFS, &CDC_Desc, DEVICE_FS) != USBD_OK)
 8002048:	4911      	ldr	r1, [pc, #68]	@ (8002090 <usbBegin+0x50>)
 800204a:	4812      	ldr	r0, [pc, #72]	@ (8002094 <usbBegin+0x54>)
 800204c:	2200      	movs	r2, #0
 800204e:	f000 fa1b 	bl	8002488 <USBD_Init>
 8002052:	b108      	cbz	r0, 8002058 <usbBegin+0x18>
		{
		  return false;
 8002054:	2000      	movs	r0, #0
#endif

	is_init = ret;

	return ret;
}
 8002056:	bd10      	pop	{r4, pc}
		if (USBD_RegisterClass(&hUsbDeviceFS, &USBD_CDC) != USBD_OK)
 8002058:	490f      	ldr	r1, [pc, #60]	@ (8002098 <usbBegin+0x58>)
 800205a:	480e      	ldr	r0, [pc, #56]	@ (8002094 <usbBegin+0x54>)
 800205c:	f000 fa27 	bl	80024ae <USBD_RegisterClass>
 8002060:	2800      	cmp	r0, #0
 8002062:	d1f7      	bne.n	8002054 <usbBegin+0x14>
		if (USBD_CDC_RegisterInterface(&hUsbDeviceFS, &USBD_Interface_fops_FS) != USBD_OK)
 8002064:	490d      	ldr	r1, [pc, #52]	@ (800209c <usbBegin+0x5c>)
 8002066:	480b      	ldr	r0, [pc, #44]	@ (8002094 <usbBegin+0x54>)
 8002068:	f001 f830 	bl	80030cc <USBD_CDC_RegisterInterface>
 800206c:	2800      	cmp	r0, #0
 800206e:	d1f1      	bne.n	8002054 <usbBegin+0x14>
		if (USBD_Start(&hUsbDeviceFS) != USBD_OK)
 8002070:	4808      	ldr	r0, [pc, #32]	@ (8002094 <usbBegin+0x54>)
 8002072:	f000 fa35 	bl	80024e0 <USBD_Start>
 8002076:	2800      	cmp	r0, #0
 8002078:	d1ec      	bne.n	8002054 <usbBegin+0x14>
		cdcInit();
 800207a:	f7ff fa1d 	bl	80014b8 <cdcInit>
		is_usb_mode = USB_CDC_MODE;
 800207e:	4b08      	ldr	r3, [pc, #32]	@ (80020a0 <usbBegin+0x60>)
		ret = true;
 8002080:	4620      	mov	r0, r4
		is_usb_mode = USB_CDC_MODE;
 8002082:	701c      	strb	r4, [r3, #0]
	is_init = ret;
 8002084:	4b07      	ldr	r3, [pc, #28]	@ (80020a4 <usbBegin+0x64>)
 8002086:	7018      	strb	r0, [r3, #0]
	return ret;
 8002088:	e7e5      	b.n	8002056 <usbBegin+0x16>
	bool ret = false;
 800208a:	2000      	movs	r0, #0
 800208c:	e7fa      	b.n	8002084 <usbBegin+0x44>
 800208e:	bf00      	nop
 8002090:	200000f4 	.word	0x200000f4
 8002094:	20000748 	.word	0x20000748
 8002098:	2000005c 	.word	0x2000005c
 800209c:	200000a0 	.word	0x200000a0
 80020a0:	20000a24 	.word	0x20000a24
 80020a4:	20000a25 	.word	0x20000a25

080020a8 <ymodemInit>:




bool ymodemInit(void)
{
 80020a8:	b508      	push	{r3, lr}
#ifdef _USE_HW_CLI
  cliAdd("ymodem", cliYmodem);
 80020aa:	4903      	ldr	r1, [pc, #12]	@ (80020b8 <ymodemInit+0x10>)
 80020ac:	4803      	ldr	r0, [pc, #12]	@ (80020bc <ymodemInit+0x14>)
 80020ae:	f7ff fdb3 	bl	8001c18 <cliAdd>
#endif

  return true;
}
 80020b2:	2001      	movs	r0, #1
 80020b4:	bd08      	pop	{r3, pc}
 80020b6:	bf00      	nop
 80020b8:	0800245d 	.word	0x0800245d
 80020bc:	08008b77 	.word	0x08008b77

080020c0 <ymodemOpen>:

bool ymodemOpen(ymodem_t *p_modem, uint8_t ch)
{
 80020c0:	b570      	push	{r4, r5, r6, lr}
  bool ret = true;

  p_modem->ch = ch;
  p_modem->is_init = true;

  p_modem->state           = YMODEM_STATE_WAIT_HEAD;
 80020c2:	2300      	movs	r3, #0
  p_modem->rx_packet.state = YMODEM_PACKET_WAIT_FIRST;
  p_modem->file_buf        = &p_modem->rx_packet.buffer[3];
 80020c4:	f100 06c5 	add.w	r6, r0, #197	@ 0xc5
  p_modem->is_init = true;
 80020c8:	2501      	movs	r5, #1
  p_modem->ch = ch;
 80020ca:	7001      	strb	r1, [r0, #0]
  p_modem->is_init = true;
 80020cc:	7045      	strb	r5, [r0, #1]
  p_modem->state           = YMODEM_STATE_WAIT_HEAD;
 80020ce:	7283      	strb	r3, [r0, #10]
  p_modem->rx_packet.state = YMODEM_PACKET_WAIT_FIRST;
 80020d0:	f880 30b0 	strb.w	r3, [r0, #176]	@ 0xb0
  p_modem->file_buf        = &p_modem->rx_packet.buffer[3];
 80020d4:	f8c0 60a8 	str.w	r6, [r0, #168]	@ 0xa8
  p_modem->file_buf_length = 0;
 80020d8:	f8a0 30ac 	strh.w	r3, [r0, #172]	@ 0xac
{
 80020dc:	4604      	mov	r4, r0
  p_modem->pre_time        = millis();
 80020de:	f7ff f859 	bl	8001194 <millis>
  p_modem->start_time      = 3000;
 80020e2:	f640 33b8 	movw	r3, #3000	@ 0xbb8
  p_modem->pre_time        = millis();
 80020e6:	60e0      	str	r0, [r4, #12]
  p_modem->start_time      = 3000;
 80020e8:	6123      	str	r3, [r4, #16]

  p_modem->rx_packet.data = &p_modem->rx_packet.buffer[3];
 80020ea:	f8c4 60b8 	str.w	r6, [r4, #184]	@ 0xb8

  return ret;
}
 80020ee:	4628      	mov	r0, r5
 80020f0:	bd70      	pop	{r4, r5, r6, pc}

080020f2 <ymodemPutch>:

bool ymodemPutch(ymodem_t *p_modem, uint8_t data)
{
 80020f2:	b507      	push	{r0, r1, r2, lr}
  bool ret = true;

  ret = uartWrite(p_modem->ch, &data, 1);
 80020f4:	2201      	movs	r2, #1
{
 80020f6:	f88d 1007 	strb.w	r1, [sp, #7]
  ret = uartWrite(p_modem->ch, &data, 1);
 80020fa:	7800      	ldrb	r0, [r0, #0]
 80020fc:	f10d 0107 	add.w	r1, sp, #7
 8002100:	f7ff ff7c 	bl	8001ffc <uartWrite>

  return ret;
}
 8002104:	3800      	subs	r0, #0
 8002106:	bf18      	it	ne
 8002108:	2001      	movne	r0, #1
 800210a:	b003      	add	sp, #12
 800210c:	f85d fb04 	ldr.w	pc, [sp], #4

08002110 <ymodemGetFileInfo>:
  uint16_t size_i;

  valid = false;
  for (int i=0; i<128; i++)
  {
    p_modem->file_name[i] = p_modem->rx_packet.data[i];
 8002110:	f8d0 20b8 	ldr.w	r2, [r0, #184]	@ 0xb8
{
 8002114:	b538      	push	{r3, r4, r5, lr}
 8002116:	f100 0118 	add.w	r1, r0, #24
 800211a:	4604      	mov	r4, r0
  for (int i=0; i<128; i++)
 800211c:	2300      	movs	r3, #0
    p_modem->file_name[i] = p_modem->rx_packet.data[i];
 800211e:	5cd0      	ldrb	r0, [r2, r3]
 8002120:	f801 0f01 	strb.w	r0, [r1, #1]!
    if (p_modem->file_name[i] == 0x00)
 8002124:	3301      	adds	r3, #1
 8002126:	b9b0      	cbnz	r0, 8002156 <ymodemGetFileInfo+0x46>
    }
  }

  if (valid == true)
  {
    for (int i=size_i; i<128; i++)
 8002128:	b298      	uxth	r0, r3
 800212a:	fa12 f383 	uxtah	r3, r2, r3
 800212e:	3280      	adds	r2, #128	@ 0x80
 8002130:	4293      	cmp	r3, r2
 8002132:	d006      	beq.n	8002142 <ymodemGetFileInfo+0x32>
    {
      if (p_modem->rx_packet.data[i] == 0x20)
 8002134:	4619      	mov	r1, r3
 8002136:	3301      	adds	r3, #1
 8002138:	780d      	ldrb	r5, [r1, #0]
 800213a:	2d20      	cmp	r5, #32
 800213c:	d1f8      	bne.n	8002130 <ymodemGetFileInfo+0x20>
      {
        p_modem->rx_packet.data[i] = 0x00;
 800213e:	2300      	movs	r3, #0
 8002140:	700b      	strb	r3, [r1, #0]
        break;
      }
    }

    p_modem->file_length = (uint32_t)strtoul((const char * )&p_modem->rx_packet.data[size_i], (char **)NULL, (int) 0);
 8002142:	f8d4 30b8 	ldr.w	r3, [r4, #184]	@ 0xb8
 8002146:	2200      	movs	r2, #0
 8002148:	4611      	mov	r1, r2
 800214a:	4418      	add	r0, r3
 800214c:	f004 f9c2 	bl	80064d4 <strtoul>
 8002150:	f8c4 00a0 	str.w	r0, [r4, #160]	@ 0xa0
 8002154:	e001      	b.n	800215a <ymodemGetFileInfo+0x4a>
  for (int i=0; i<128; i++)
 8002156:	2b80      	cmp	r3, #128	@ 0x80
 8002158:	d1e1      	bne.n	800211e <ymodemGetFileInfo+0xe>
  }

  return ret;
}
 800215a:	2001      	movs	r0, #1
 800215c:	bd38      	pop	{r3, r4, r5, pc}

0800215e <ymodemAck>:

bool ymodemAck(ymodem_t *p_modem)
{
 800215e:	b510      	push	{r4, lr}

  if (p_modem->state == YMODEM_STATE_WAIT_FIRST)
 8002160:	7a83      	ldrb	r3, [r0, #10]
 8002162:	2b01      	cmp	r3, #1
{
 8002164:	4604      	mov	r4, r0
  if (p_modem->state == YMODEM_STATE_WAIT_FIRST)
 8002166:	d108      	bne.n	800217a <ymodemAck+0x1c>
  {
    if (p_modem->type == YMODEM_TYPE_START)
 8002168:	7a03      	ldrb	r3, [r0, #8]
 800216a:	b983      	cbnz	r3, 800218e <ymodemAck+0x30>
    {
      ymodemPutch(p_modem, YMODEM_ACK);
 800216c:	2106      	movs	r1, #6
 800216e:	f7ff ffc0 	bl	80020f2 <ymodemPutch>
      ymodemPutch(p_modem, YMODEM_C);
 8002172:	2143      	movs	r1, #67	@ 0x43
 8002174:	4620      	mov	r0, r4
 8002176:	f7ff ffbc 	bl	80020f2 <ymodemPutch>
    }
  }

  if (p_modem->state == YMODEM_STATE_WAIT_DATA)
 800217a:	7aa3      	ldrb	r3, [r4, #10]
 800217c:	2b02      	cmp	r3, #2
 800217e:	d106      	bne.n	800218e <ymodemAck+0x30>
  {
    if (p_modem->type == YMODEM_TYPE_DATA)
 8002180:	7a23      	ldrb	r3, [r4, #8]
 8002182:	2b01      	cmp	r3, #1
 8002184:	d103      	bne.n	800218e <ymodemAck+0x30>
    {
      ymodemPutch(p_modem, YMODEM_ACK);
 8002186:	2106      	movs	r1, #6
 8002188:	4620      	mov	r0, r4
 800218a:	f7ff ffb2 	bl	80020f2 <ymodemPutch>
    }
  }
  return true;
}
 800218e:	2001      	movs	r0, #1
 8002190:	bd10      	pop	{r4, pc}

08002192 <crc_update>:
#define CRC_POLY 0x1021

uint16_t crc_update(uint16_t crc_in, int incr)
{
  uint16_t xor = crc_in >> 15;
  uint16_t out = crc_in << 1;
 8002192:	0043      	lsls	r3, r0, #1
 8002194:	b29b      	uxth	r3, r3

  if (incr)
 8002196:	b109      	cbz	r1, 800219c <crc_update+0xa>
  {
    out++;
 8002198:	3301      	adds	r3, #1
 800219a:	b29b      	uxth	r3, r3
  }

  if (xor)
 800219c:	f340 30c0 	sbfx	r0, r0, #15, #1
 80021a0:	f420 607d 	bic.w	r0, r0, #4048	@ 0xfd0
 80021a4:	f020 000e 	bic.w	r0, r0, #14
 80021a8:	04c0      	lsls	r0, r0, #19
 80021aa:	0cc0      	lsrs	r0, r0, #19
  {
    out ^= CRC_POLY;
  }

  return out;
}
 80021ac:	4058      	eors	r0, r3
 80021ae:	4770      	bx	lr

080021b0 <ymodemReceive>:
{
 80021b0:	e92d 43f8 	stmdb	sp!, {r3, r4, r5, r6, r7, r8, r9, lr}
  if (p_modem->is_init != true)
 80021b4:	7843      	ldrb	r3, [r0, #1]
{
 80021b6:	4604      	mov	r4, r0
  if (p_modem->is_init != true)
 80021b8:	2b00      	cmp	r3, #0
 80021ba:	f000 810f 	beq.w	80023dc <ymodemReceive+0x22c>
  if (uartAvailable(p_modem->ch) > 0)
 80021be:	7800      	ldrb	r0, [r0, #0]
 80021c0:	f7ff ff12 	bl	8001fe8 <uartAvailable>
 80021c4:	b1a8      	cbz	r0, 80021f2 <ymodemReceive+0x42>
    p_modem->rx_data = uartRead(p_modem->ch);
 80021c6:	7820      	ldrb	r0, [r4, #0]
 80021c8:	f7ff ff13 	bl	8001ff2 <uartRead>
  switch(p_packet->state)
 80021cc:	f894 30b0 	ldrb.w	r3, [r4, #176]	@ 0xb0
    p_modem->rx_data = uartRead(p_modem->ch);
 80021d0:	7260      	strb	r0, [r4, #9]
  switch(p_packet->state)
 80021d2:	2b05      	cmp	r3, #5
 80021d4:	d80d      	bhi.n	80021f2 <ymodemReceive+0x42>
 80021d6:	e8df f003 	tbb	[pc, r3]
 80021da:	4503      	.short	0x4503
 80021dc:	6d685749 	.word	0x6d685749
      if (data_in == YMODEM_SOH)
 80021e0:	2801      	cmp	r0, #1
 80021e2:	d11b      	bne.n	800221c <ymodemReceive+0x6c>
        p_packet->length = 128;
 80021e4:	2380      	movs	r3, #128	@ 0x80
 80021e6:	f8a4 30bc 	strh.w	r3, [r4, #188]	@ 0xbc
        p_packet->stx = data_in;
 80021ea:	f884 00b4 	strb.w	r0, [r4, #180]	@ 0xb4
        p_packet->state = YMODEM_PACKET_WAIT_SEQ1;
 80021ee:	f884 00b0 	strb.w	r0, [r4, #176]	@ 0xb0
    if (p_modem->rx_packet.state == YMODEM_PACKET_WAIT_FIRST)
 80021f2:	f894 30b0 	ldrb.w	r3, [r4, #176]	@ 0xb0
 80021f6:	2b00      	cmp	r3, #0
 80021f8:	f040 80a4 	bne.w	8002344 <ymodemReceive+0x194>
      if (millis()-p_modem->pre_time >= p_modem->start_time)
 80021fc:	f7fe ffca 	bl	8001194 <millis>
 8002200:	68e3      	ldr	r3, [r4, #12]
 8002202:	1ac0      	subs	r0, r0, r3
 8002204:	6923      	ldr	r3, [r4, #16]
 8002206:	4298      	cmp	r0, r3
 8002208:	f0c0 809c 	bcc.w	8002344 <ymodemReceive+0x194>
        p_modem->pre_time = millis();
 800220c:	f7fe ffc2 	bl	8001194 <millis>
        ymodemPutch(p_modem, YMODEM_C);
 8002210:	2143      	movs	r1, #67	@ 0x43
        p_modem->pre_time = millis();
 8002212:	60e0      	str	r0, [r4, #12]
        ymodemPutch(p_modem, YMODEM_C);
 8002214:	4620      	mov	r0, r4
 8002216:	f7ff ff6c 	bl	80020f2 <ymodemPutch>
 800221a:	e093      	b.n	8002344 <ymodemReceive+0x194>
      if (data_in == YMODEM_STX)
 800221c:	2802      	cmp	r0, #2
 800221e:	d109      	bne.n	8002234 <ymodemReceive+0x84>
        p_packet->length = 1024;
 8002220:	f44f 6380 	mov.w	r3, #1024	@ 0x400
 8002224:	f8a4 30bc 	strh.w	r3, [r4, #188]	@ 0xbc
        p_packet->stx = data_in;
 8002228:	f884 00b4 	strb.w	r0, [r4, #180]	@ 0xb4
        p_packet->state = YMODEM_PACKET_WAIT_SEQ1;
 800222c:	2301      	movs	r3, #1
      p_packet->state = YMODEM_PACKET_WAIT_SEQ2;
 800222e:	f884 30b0 	strb.w	r3, [r4, #176]	@ 0xb0
  return ret;
 8002232:	e7de      	b.n	80021f2 <ymodemReceive+0x42>
      if (data_in == YMODEM_EOT)
 8002234:	2804      	cmp	r0, #4
 8002236:	d112      	bne.n	800225e <ymodemReceive+0xae>
        p_packet->stx = data_in;
 8002238:	f884 00b4 	strb.w	r0, [r4, #180]	@ 0xb4
    if (p_modem->state != YMODEM_STATE_WAIT_HEAD)
 800223c:	7aa3      	ldrb	r3, [r4, #10]
      if (p_modem->rx_packet.stx == YMODEM_CAN)
 800223e:	f894 20b4 	ldrb.w	r2, [r4, #180]	@ 0xb4
    if (p_modem->state != YMODEM_STATE_WAIT_HEAD)
 8002242:	2b00      	cmp	r3, #0
 8002244:	d072      	beq.n	800232c <ymodemReceive+0x17c>
      if (p_modem->rx_packet.stx == YMODEM_CAN)
 8002246:	2a18      	cmp	r2, #24
 8002248:	d160      	bne.n	800230c <ymodemReceive+0x15c>
        p_modem->state = YMODEM_STATE_WAIT_CANCEL;
 800224a:	2305      	movs	r3, #5
 800224c:	72a3      	strb	r3, [r4, #10]
        ymodemPutch(p_modem, YMODEM_ACK);
 800224e:	2106      	movs	r1, #6
 8002250:	4620      	mov	r0, r4
 8002252:	f7ff ff4e 	bl	80020f2 <ymodemPutch>
        p_modem->state = YMODEM_STATE_WAIT_HEAD;
 8002256:	2300      	movs	r3, #0
 8002258:	72a3      	strb	r3, [r4, #10]
        break;
 800225a:	2503      	movs	r5, #3
 800225c:	e07c      	b.n	8002358 <ymodemReceive+0x1a8>
      if (data_in == YMODEM_CAN)
 800225e:	2818      	cmp	r0, #24
 8002260:	d0ea      	beq.n	8002238 <ymodemReceive+0x88>
 8002262:	e7c6      	b.n	80021f2 <ymodemReceive+0x42>
      p_packet->seq[0] = data_in;
 8002264:	f884 00b5 	strb.w	r0, [r4, #181]	@ 0xb5
      p_packet->state = YMODEM_PACKET_WAIT_SEQ2;
 8002268:	2302      	movs	r3, #2
 800226a:	e7e0      	b.n	800222e <ymodemReceive+0x7e>
      if (p_packet->seq[0] == (uint8_t)(~data_in))
 800226c:	f894 30b5 	ldrb.w	r3, [r4, #181]	@ 0xb5
      p_packet->seq[1] = data_in;
 8002270:	f884 00b6 	strb.w	r0, [r4, #182]	@ 0xb6
      if (p_packet->seq[0] == (uint8_t)(~data_in))
 8002274:	43c0      	mvns	r0, r0
 8002276:	b2c0      	uxtb	r0, r0
 8002278:	4283      	cmp	r3, r0
 800227a:	f04f 0300 	mov.w	r3, #0
 800227e:	d1d6      	bne.n	800222e <ymodemReceive+0x7e>
        p_packet->index = 0;
 8002280:	f8a4 30b2 	strh.w	r3, [r4, #178]	@ 0xb2
        p_packet->state = YMODEM_PACKET_WAIT_DATA;
 8002284:	2303      	movs	r3, #3
 8002286:	e7d2      	b.n	800222e <ymodemReceive+0x7e>
      p_packet->data[p_packet->index] = data_in;
 8002288:	f8b4 30b2 	ldrh.w	r3, [r4, #178]	@ 0xb2
 800228c:	f8d4 20b8 	ldr.w	r2, [r4, #184]	@ 0xb8
 8002290:	54d0      	strb	r0, [r2, r3]
      p_packet->index++;
 8002292:	f8b4 30b2 	ldrh.w	r3, [r4, #178]	@ 0xb2
      if (p_packet->index >= p_packet->length)
 8002296:	f8b4 20bc 	ldrh.w	r2, [r4, #188]	@ 0xbc
      p_packet->index++;
 800229a:	3301      	adds	r3, #1
 800229c:	b29b      	uxth	r3, r3
      if (p_packet->index >= p_packet->length)
 800229e:	429a      	cmp	r2, r3
      p_packet->index++;
 80022a0:	f8a4 30b2 	strh.w	r3, [r4, #178]	@ 0xb2
      if (p_packet->index >= p_packet->length)
 80022a4:	d8a5      	bhi.n	80021f2 <ymodemReceive+0x42>
        p_packet->state = YMODEM_PACKET_WAIT_CRCH;
 80022a6:	2304      	movs	r3, #4
 80022a8:	e7c1      	b.n	800222e <ymodemReceive+0x7e>
      p_packet->crc_recv = (data_in<<8);
 80022aa:	0200      	lsls	r0, r0, #8
 80022ac:	f8a4 00c0 	strh.w	r0, [r4, #192]	@ 0xc0
      p_packet->state = YMODEM_PACKET_WAIT_CRCL;
 80022b0:	2305      	movs	r3, #5
 80022b2:	e7bc      	b.n	800222e <ymodemReceive+0x7e>
      p_packet->crc_recv |= (data_in<<0);
 80022b4:	f8b4 30c0 	ldrh.w	r3, [r4, #192]	@ 0xc0
      p_packet->crc = crc16(p_packet->data, p_packet->length);
 80022b8:	f8b4 50bc 	ldrh.w	r5, [r4, #188]	@ 0xbc
      p_packet->crc_recv |= (data_in<<0);
 80022bc:	ea40 0203 	orr.w	r2, r0, r3
 80022c0:	f8d4 30b8 	ldr.w	r3, [r4, #184]	@ 0xb8
 80022c4:	f8a4 20c0 	strh.w	r2, [r4, #192]	@ 0xc0
      p_packet->state = YMODEM_PACKET_WAIT_FIRST;
 80022c8:	2000      	movs	r0, #0
 80022ca:	f884 00b0 	strb.w	r0, [r4, #176]	@ 0xb0

uint16_t crc16(uint8_t *data, uint16_t size)
{
  uint16_t crc, i;

  for (crc = 0; size > 0; size--, data++)
 80022ce:	f103 38ff 	add.w	r8, r3, #4294967295
 80022d2:	b965      	cbnz	r5, 80022ee <ymodemReceive+0x13e>
 80022d4:	2510      	movs	r5, #16
    {
      crc = crc_update(crc, *data & i);
    }
  }

  for (i = 0; i < 16; i++)
 80022d6:	3d01      	subs	r5, #1
  {
    crc = crc_update(crc, 0);
 80022d8:	2100      	movs	r1, #0
  for (i = 0; i < 16; i++)
 80022da:	b2ad      	uxth	r5, r5
    crc = crc_update(crc, 0);
 80022dc:	f7ff ff59 	bl	8002192 <crc_update>
  for (i = 0; i < 16; i++)
 80022e0:	2d00      	cmp	r5, #0
 80022e2:	d1f8      	bne.n	80022d6 <ymodemReceive+0x126>
      if (p_packet->crc == p_packet->crc_recv)
 80022e4:	4282      	cmp	r2, r0
      p_packet->crc = crc16(p_packet->data, p_packet->length);
 80022e6:	f8a4 00be 	strh.w	r0, [r4, #190]	@ 0xbe
      if (p_packet->crc == p_packet->crc_recv)
 80022ea:	d182      	bne.n	80021f2 <ymodemReceive+0x42>
 80022ec:	e7a6      	b.n	800223c <ymodemReceive+0x8c>
      crc = crc_update(crc, *data & i);
 80022ee:	f818 9f01 	ldrb.w	r9, [r8, #1]!
 80022f2:	2608      	movs	r6, #8
    for (i = 0x80; i; i >>= 1)
 80022f4:	2780      	movs	r7, #128	@ 0x80
      crc = crc_update(crc, *data & i);
 80022f6:	ea07 0109 	and.w	r1, r7, r9
 80022fa:	f7ff ff4a 	bl	8002192 <crc_update>
    for (i = 0x80; i; i >>= 1)
 80022fe:	3e01      	subs	r6, #1
 8002300:	ea4f 0757 	mov.w	r7, r7, lsr #1
 8002304:	d1f7      	bne.n	80022f6 <ymodemReceive+0x146>
  for (crc = 0; size > 0; size--, data++)
 8002306:	3d01      	subs	r5, #1
 8002308:	b2ad      	uxth	r5, r5
 800230a:	e7e2      	b.n	80022d2 <ymodemReceive+0x122>
    switch(p_modem->state)
 800230c:	3b01      	subs	r3, #1
 800230e:	2b04      	cmp	r3, #4
 8002310:	d818      	bhi.n	8002344 <ymodemReceive+0x194>
 8002312:	a101      	add	r1, pc, #4	@ (adr r1, 8002318 <ymodemReceive+0x168>)
 8002314:	f851 f023 	ldr.w	pc, [r1, r3, lsl #2]
 8002318:	0800235f 	.word	0x0800235f
 800231c:	0800238f 	.word	0x0800238f
 8002320:	080023b9 	.word	0x080023b9
 8002324:	080023cd 	.word	0x080023cd
 8002328:	0800224f 	.word	0x0800224f
        if (p_modem->rx_packet.stx == YMODEM_EOT)
 800232c:	2a04      	cmp	r2, #4
 800232e:	d106      	bne.n	800233e <ymodemReceive+0x18e>
          ymodemPutch(p_modem, YMODEM_NACK);
 8002330:	2115      	movs	r1, #21
 8002332:	4620      	mov	r0, r4
 8002334:	f7ff fedd 	bl	80020f2 <ymodemPutch>
          p_modem->state = YMODEM_STATE_WAIT_LAST;
 8002338:	2303      	movs	r3, #3
        p_modem->state = YMODEM_STATE_WAIT_END;
 800233a:	72a3      	strb	r3, [r4, #10]
        break;
 800233c:	e002      	b.n	8002344 <ymodemReceive+0x194>
        else if (p_modem->rx_packet.seq[0] == 0x00)
 800233e:	f894 50b5 	ldrb.w	r5, [r4, #181]	@ 0xb5
 8002342:	b115      	cbz	r5, 800234a <ymodemReceive+0x19a>
  bool ret = false;
 8002344:	2000      	movs	r0, #0
}
 8002346:	e8bd 83f8 	ldmia.w	sp!, {r3, r4, r5, r6, r7, r8, r9, pc}
          p_modem->file_addr = 0;
 800234a:	f8c4 509c 	str.w	r5, [r4, #156]	@ 0x9c
          ymodemGetFileInfo(p_modem);
 800234e:	4620      	mov	r0, r4
 8002350:	f7ff fede 	bl	8002110 <ymodemGetFileInfo>
          p_modem->state = YMODEM_STATE_WAIT_FIRST;
 8002354:	2301      	movs	r3, #1
 8002356:	72a3      	strb	r3, [r4, #10]
          p_modem->type = YMODEM_TYPE_DATA;
 8002358:	7225      	strb	r5, [r4, #8]
    return true;
 800235a:	2001      	movs	r0, #1
 800235c:	e7f3      	b.n	8002346 <ymodemReceive+0x196>
        if (p_modem->rx_packet.stx == YMODEM_EOT)
 800235e:	2a04      	cmp	r2, #4
 8002360:	d0e6      	beq.n	8002330 <ymodemReceive+0x180>
        else if (p_modem->rx_packet.seq[0] == 0x01)
 8002362:	f894 30b5 	ldrb.w	r3, [r4, #181]	@ 0xb5
 8002366:	2b01      	cmp	r3, #1
 8002368:	d1ec      	bne.n	8002344 <ymodemReceive+0x194>
          p_modem->file_addr = 0;
 800236a:	2300      	movs	r3, #0
          if (buf_length > p_modem->rx_packet.length)
 800236c:	f8d4 20a0 	ldr.w	r2, [r4, #160]	@ 0xa0
          p_modem->file_addr = 0;
 8002370:	f8c4 309c 	str.w	r3, [r4, #156]	@ 0x9c
          if (buf_length > p_modem->rx_packet.length)
 8002374:	f8b4 30bc 	ldrh.w	r3, [r4, #188]	@ 0xbc
 8002378:	4293      	cmp	r3, r2
 800237a:	bf28      	it	cs
 800237c:	4613      	movcs	r3, r2
          p_modem->file_buf_length = buf_length;
 800237e:	f8a4 30ac 	strh.w	r3, [r4, #172]	@ 0xac
          p_modem->file_received += buf_length;
 8002382:	f8c4 30a4 	str.w	r3, [r4, #164]	@ 0xa4
          p_modem->state = YMODEM_STATE_WAIT_DATA;
 8002386:	2302      	movs	r3, #2
 8002388:	72a3      	strb	r3, [r4, #10]
          ret = true;
 800238a:	2501      	movs	r5, #1
 800238c:	e7e4      	b.n	8002358 <ymodemReceive+0x1a8>
        if (p_modem->rx_packet.stx == YMODEM_EOT)
 800238e:	2a04      	cmp	r2, #4
 8002390:	d0ce      	beq.n	8002330 <ymodemReceive+0x180>
          buf_length = (p_modem->file_length - p_modem->file_addr);
 8002392:	e9d4 2327 	ldrd	r2, r3, [r4, #156]	@ 0x9c
          if (buf_length > p_modem->rx_packet.length)
 8002396:	f8b4 10bc 	ldrh.w	r1, [r4, #188]	@ 0xbc
          buf_length = (p_modem->file_length - p_modem->file_addr);
 800239a:	1a9b      	subs	r3, r3, r2
          if (buf_length > p_modem->rx_packet.length)
 800239c:	428b      	cmp	r3, r1
 800239e:	bf28      	it	cs
 80023a0:	460b      	movcs	r3, r1
          p_modem->file_addr += buf_length;
 80023a2:	441a      	add	r2, r3
 80023a4:	f8c4 209c 	str.w	r2, [r4, #156]	@ 0x9c
          p_modem->file_received += buf_length;
 80023a8:	f8d4 20a4 	ldr.w	r2, [r4, #164]	@ 0xa4
          p_modem->file_buf_length = buf_length;
 80023ac:	f8a4 30ac 	strh.w	r3, [r4, #172]	@ 0xac
          p_modem->file_received += buf_length;
 80023b0:	441a      	add	r2, r3
 80023b2:	f8c4 20a4 	str.w	r2, [r4, #164]	@ 0xa4
          ret = true;
 80023b6:	e7e8      	b.n	800238a <ymodemReceive+0x1da>
        ymodemPutch(p_modem, YMODEM_ACK);
 80023b8:	2106      	movs	r1, #6
 80023ba:	4620      	mov	r0, r4
 80023bc:	f7ff fe99 	bl	80020f2 <ymodemPutch>
        ymodemPutch(p_modem, YMODEM_C);
 80023c0:	2143      	movs	r1, #67	@ 0x43
 80023c2:	4620      	mov	r0, r4
 80023c4:	f7ff fe95 	bl	80020f2 <ymodemPutch>
        p_modem->state = YMODEM_STATE_WAIT_END;
 80023c8:	2304      	movs	r3, #4
 80023ca:	e7b6      	b.n	800233a <ymodemReceive+0x18a>
        ymodemPutch(p_modem, YMODEM_ACK);
 80023cc:	2106      	movs	r1, #6
 80023ce:	4620      	mov	r0, r4
 80023d0:	f7ff fe8f 	bl	80020f2 <ymodemPutch>
        p_modem->state = YMODEM_STATE_WAIT_HEAD;
 80023d4:	2300      	movs	r3, #0
 80023d6:	72a3      	strb	r3, [r4, #10]
        break;
 80023d8:	2502      	movs	r5, #2
 80023da:	e7bd      	b.n	8002358 <ymodemReceive+0x1a8>
 80023dc:	2504      	movs	r5, #4
 80023de:	e7bb      	b.n	8002358 <ymodemReceive+0x1a8>

080023e0 <cliYmodem.part.0>:
  return crc;
}


#ifdef _USE_HW_CLI
void cliYmodem(cli_args_t *args)
 80023e0:	b500      	push	{lr}
 80023e2:	f2ad 4dcc 	subw	sp, sp, #1228	@ 0x4cc
  uint8_t log_ch = _DEF_UART2;


  if (args->argc == 1 && args->isStr(0, "down"))
  {
    ymodemOpen(&ymodem, _DEF_UART1);
 80023e6:	2100      	movs	r1, #0
 80023e8:	4668      	mov	r0, sp
 80023ea:	f7ff fe69 	bl	80020c0 <ymodemOpen>

    keep_loop = true;

    while(keep_loop)
    {
      if (ymodemReceive(&ymodem) == true)
 80023ee:	4668      	mov	r0, sp
 80023f0:	f7ff fede 	bl	80021b0 <ymodemReceive>
 80023f4:	2800      	cmp	r0, #0
 80023f6:	d0fa      	beq.n	80023ee <cliYmodem.part.0+0xe>
      {
        switch(ymodem.type)
 80023f8:	f89d 3008 	ldrb.w	r3, [sp, #8]
 80023fc:	2b04      	cmp	r3, #4
 80023fe:	d8f6      	bhi.n	80023ee <cliYmodem.part.0+0xe>
 8002400:	e8df f003 	tbb	[pc, r3]
 8002404:	1d150b03 	.word	0x1d150b03
 8002408:	1f          	.byte	0x1f
 8002409:	00          	.byte	0x00
        {
          case YMODEM_TYPE_START:
            uartPrintf(log_ch, "YMODEM_TYPE_START %s %d\n", ymodem.file_name, ymodem.file_length);
 800240a:	9b28      	ldr	r3, [sp, #160]	@ 0xa0
 800240c:	490e      	ldr	r1, [pc, #56]	@ (8002448 <cliYmodem.part.0+0x68>)
 800240e:	f10d 0219 	add.w	r2, sp, #25
            break;

          case YMODEM_TYPE_DATA:
            uartPrintf(log_ch, "YMODEM_TYPE_DATA %d %d %%\n", ymodem.rx_packet.seq[0], ymodem.file_received*100 / ymodem.file_length);
 8002412:	2001      	movs	r0, #1
 8002414:	f7ff fdfa 	bl	800200c <uartPrintf>
            break;
 8002418:	e7e9      	b.n	80023ee <cliYmodem.part.0+0xe>
            uartPrintf(log_ch, "YMODEM_TYPE_DATA %d %d %%\n", ymodem.rx_packet.seq[0], ymodem.file_received*100 / ymodem.file_length);
 800241a:	9b29      	ldr	r3, [sp, #164]	@ 0xa4
 800241c:	490b      	ldr	r1, [pc, #44]	@ (800244c <cliYmodem.part.0+0x6c>)
 800241e:	2264      	movs	r2, #100	@ 0x64
 8002420:	4353      	muls	r3, r2
 8002422:	9a28      	ldr	r2, [sp, #160]	@ 0xa0
 8002424:	fbb3 f3f2 	udiv	r3, r3, r2
 8002428:	f89d 20b5 	ldrb.w	r2, [sp, #181]	@ 0xb5
 800242c:	e7f1      	b.n	8002412 <cliYmodem.part.0+0x32>

          case YMODEM_TYPE_END:
            uartPrintf(log_ch, "YMODEM_TYPE_END \n");
 800242e:	4908      	ldr	r1, [pc, #32]	@ (8002450 <cliYmodem.part.0+0x70>)
            uartPrintf(log_ch, "YMODEM_TYPE_CANCEL \n");
            keep_loop = false;
            break;

          case YMODEM_TYPE_ERROR:
            uartPrintf(log_ch, "YMODEM_TYPE_ERROR \n");
 8002430:	2001      	movs	r0, #1
 8002432:	f7ff fdeb 	bl	800200c <uartPrintf>

  if (ret != true)
  {
    cliPrintf("ymodem down\n");
  }
}
 8002436:	f20d 4dcc 	addw	sp, sp, #1228	@ 0x4cc
 800243a:	f85d fb04 	ldr.w	pc, [sp], #4
            uartPrintf(log_ch, "YMODEM_TYPE_CANCEL \n");
 800243e:	4905      	ldr	r1, [pc, #20]	@ (8002454 <cliYmodem.part.0+0x74>)
 8002440:	e7f6      	b.n	8002430 <cliYmodem.part.0+0x50>
            uartPrintf(log_ch, "YMODEM_TYPE_ERROR \n");
 8002442:	4905      	ldr	r1, [pc, #20]	@ (8002458 <cliYmodem.part.0+0x78>)
 8002444:	e7f4      	b.n	8002430 <cliYmodem.part.0+0x50>
 8002446:	bf00      	nop
 8002448:	08008b7e 	.word	0x08008b7e
 800244c:	08008b97 	.word	0x08008b97
 8002450:	08008bb2 	.word	0x08008bb2
 8002454:	08008bc4 	.word	0x08008bc4
 8002458:	08008bd9 	.word	0x08008bd9

0800245c <cliYmodem>:
{
 800245c:	b508      	push	{r3, lr}
  if (args->argc == 1 && args->isStr(0, "down"))
 800245e:	8803      	ldrh	r3, [r0, #0]
 8002460:	2b01      	cmp	r3, #1
 8002462:	d108      	bne.n	8002476 <cliYmodem+0x1a>
 8002464:	6943      	ldr	r3, [r0, #20]
 8002466:	4906      	ldr	r1, [pc, #24]	@ (8002480 <cliYmodem+0x24>)
 8002468:	2000      	movs	r0, #0
 800246a:	4798      	blx	r3
 800246c:	b118      	cbz	r0, 8002476 <cliYmodem+0x1a>
}
 800246e:	e8bd 4008 	ldmia.w	sp!, {r3, lr}
 8002472:	f7ff bfb5 	b.w	80023e0 <cliYmodem.part.0>
 8002476:	e8bd 4008 	ldmia.w	sp!, {r3, lr}
    cliPrintf("ymodem down\n");
 800247a:	4802      	ldr	r0, [pc, #8]	@ (8002484 <cliYmodem+0x28>)
 800247c:	f7ff b936 	b.w	80016ec <cliPrintf>
 8002480:	08008bed 	.word	0x08008bed
 8002484:	08008bf2 	.word	0x08008bf2

08002488 <USBD_Init>:
                             USBD_DescriptorsTypeDef *pdesc, uint8_t id)
{
  USBD_StatusTypeDef ret;

  /* Check whether the USB Host handle is valid */
  if (pdev == NULL)
 8002488:	b178      	cbz	r0, 80024aa <USBD_Init+0x22>
    pdev->NumClasses = 0;
    pdev->classId = 0;
  }
#else
  /* Unlink previous class*/
  pdev->pClass[0] = NULL;
 800248a:	2300      	movs	r3, #0
 800248c:	f8c0 32b8 	str.w	r3, [r0, #696]	@ 0x2b8
  pdev->pUserData[0] = NULL;
 8002490:	f8c0 32c4 	str.w	r3, [r0, #708]	@ 0x2c4
#endif /* USE_USBD_COMPOSITE */

  pdev->pConfDesc = NULL;
 8002494:	f8c0 32d0 	str.w	r3, [r0, #720]	@ 0x2d0

  /* Assign USBD Descriptors */
  if (pdesc != NULL)
 8002498:	b109      	cbz	r1, 800249e <USBD_Init+0x16>
  {
    pdev->pDesc = pdesc;
 800249a:	f8c0 12b4 	str.w	r1, [r0, #692]	@ 0x2b4
  }

  /* Set Device initial State */
  pdev->dev_state = USBD_STATE_DEFAULT;
 800249e:	2301      	movs	r3, #1
 80024a0:	f880 329c 	strb.w	r3, [r0, #668]	@ 0x29c
  pdev->id = id;
 80024a4:	7002      	strb	r2, [r0, #0]

  /* Initialize low level driver */
  ret = USBD_LL_Init(pdev);
 80024a6:	f001 b861 	b.w	800356c <USBD_LL_Init>

  return ret;
}
 80024aa:	2003      	movs	r0, #3
 80024ac:	4770      	bx	lr

080024ae <USBD_RegisterClass>:
  * @param  pdev: Device Handle
  * @param  pclass: Class handle
  * @retval USBD Status
  */
USBD_StatusTypeDef USBD_RegisterClass(USBD_HandleTypeDef *pdev, USBD_ClassTypeDef *pclass)
{
 80024ae:	b513      	push	{r0, r1, r4, lr}
  uint16_t len = 0U;
 80024b0:	2300      	movs	r3, #0
{
 80024b2:	4604      	mov	r4, r0
  uint16_t len = 0U;
 80024b4:	f8ad 3006 	strh.w	r3, [sp, #6]

  if (pclass == NULL)
 80024b8:	b181      	cbz	r1, 80024dc <USBD_RegisterClass+0x2e>
  if (pdev->pClass[pdev->classId]->GetHSConfigDescriptor != NULL)
  {
    pdev->pConfDesc = (void *)pdev->pClass[pdev->classId]->GetHSConfigDescriptor(&len);
  }
#else /* Default USE_USB_FS */
  if (pdev->pClass[pdev->classId]->GetFSConfigDescriptor != NULL)
 80024ba:	6acb      	ldr	r3, [r1, #44]	@ 0x2c
  pdev->pClass[0] = pclass;
 80024bc:	f8c0 12b8 	str.w	r1, [r0, #696]	@ 0x2b8
  if (pdev->pClass[pdev->classId]->GetFSConfigDescriptor != NULL)
 80024c0:	b123      	cbz	r3, 80024cc <USBD_RegisterClass+0x1e>
  {
    pdev->pConfDesc = (void *)pdev->pClass[pdev->classId]->GetFSConfigDescriptor(&len);
 80024c2:	f10d 0006 	add.w	r0, sp, #6
 80024c6:	4798      	blx	r3
 80024c8:	f8c4 02d0 	str.w	r0, [r4, #720]	@ 0x2d0
  }
#endif /* USE_USB_FS */

  /* Increment the NumClasses */
  pdev->NumClasses++;
 80024cc:	f8d4 32d8 	ldr.w	r3, [r4, #728]	@ 0x2d8
 80024d0:	3301      	adds	r3, #1
 80024d2:	f8c4 32d8 	str.w	r3, [r4, #728]	@ 0x2d8

  return USBD_OK;
 80024d6:	2000      	movs	r0, #0
}
 80024d8:	b002      	add	sp, #8
 80024da:	bd10      	pop	{r4, pc}
    return USBD_FAIL;
 80024dc:	2003      	movs	r0, #3
 80024de:	e7fb      	b.n	80024d8 <USBD_RegisterClass+0x2a>

080024e0 <USBD_Start>:
#ifdef USE_USBD_COMPOSITE
  pdev->classId = 0U;
#endif /* USE_USBD_COMPOSITE */

  /* Start the low level driver  */
  return USBD_LL_Start(pdev);
 80024e0:	f001 b893 	b.w	800360a <USBD_LL_Start>

080024e4 <USBD_SetClassConfig>:
        }
      }
    }
  }
#else
  if (pdev->pClass[0] != NULL)
 80024e4:	f8d0 32b8 	ldr.w	r3, [r0, #696]	@ 0x2b8
 80024e8:	b10b      	cbz	r3, 80024ee <USBD_SetClassConfig+0xa>
  {
    /* Set configuration and Start the Class */
    ret = (USBD_StatusTypeDef)pdev->pClass[0]->Init(pdev, cfgidx);
 80024ea:	681b      	ldr	r3, [r3, #0]
 80024ec:	4718      	bx	r3
  }
#endif /* USE_USBD_COMPOSITE */

  return ret;
}
 80024ee:	4618      	mov	r0, r3
 80024f0:	4770      	bx	lr

080024f2 <USBD_ClrClassConfig>:
  * @param  pdev: device instance
  * @param  cfgidx: configuration index
  * @retval status
  */
USBD_StatusTypeDef USBD_ClrClassConfig(USBD_HandleTypeDef *pdev, uint8_t cfgidx)
{
 80024f2:	b508      	push	{r3, lr}
      }
    }
  }
#else
  /* Clear configuration  and De-initialize the Class process */
  if (pdev->pClass[0]->DeInit(pdev, cfgidx) != 0U)
 80024f4:	f8d0 32b8 	ldr.w	r3, [r0, #696]	@ 0x2b8
 80024f8:	685b      	ldr	r3, [r3, #4]
 80024fa:	4798      	blx	r3
  {
    ret = USBD_FAIL;
 80024fc:	2800      	cmp	r0, #0
  }
#endif /* USE_USBD_COMPOSITE */

  return ret;
}
 80024fe:	bf18      	it	ne
 8002500:	2003      	movne	r0, #3
 8002502:	bd08      	pop	{r3, pc}

08002504 <USBD_LL_SetupStage>:
  * @param  pdev: device instance
  * @param  psetup: setup packet buffer pointer
  * @retval status
  */
USBD_StatusTypeDef USBD_LL_SetupStage(USBD_HandleTypeDef *pdev, uint8_t *psetup)
{
 8002504:	b538      	push	{r3, r4, r5, lr}
 8002506:	4604      	mov	r4, r0
  USBD_StatusTypeDef ret;

  USBD_ParseSetupRequest(&pdev->request, psetup);
 8002508:	f200 25aa 	addw	r5, r0, #682	@ 0x2aa
 800250c:	4628      	mov	r0, r5
 800250e:	f000 fba0 	bl	8002c52 <USBD_ParseSetupRequest>

  pdev->ep0_state = USBD_EP0_SETUP;
 8002512:	2301      	movs	r3, #1

  pdev->ep0_data_len = pdev->request.wLength;

  switch (pdev->request.bmRequest & 0x1FU)
 8002514:	f894 12aa 	ldrb.w	r1, [r4, #682]	@ 0x2aa
  pdev->ep0_state = USBD_EP0_SETUP;
 8002518:	f8c4 3294 	str.w	r3, [r4, #660]	@ 0x294
  pdev->ep0_data_len = pdev->request.wLength;
 800251c:	f8b4 32b0 	ldrh.w	r3, [r4, #688]	@ 0x2b0
 8002520:	f8c4 3298 	str.w	r3, [r4, #664]	@ 0x298
  switch (pdev->request.bmRequest & 0x1FU)
 8002524:	f001 031f 	and.w	r3, r1, #31
 8002528:	2b01      	cmp	r3, #1
 800252a:	d008      	beq.n	800253e <USBD_LL_SetupStage+0x3a>
 800252c:	2b02      	cmp	r3, #2
 800252e:	d00c      	beq.n	800254a <USBD_LL_SetupStage+0x46>
 8002530:	b98b      	cbnz	r3, 8002556 <USBD_LL_SetupStage+0x52>
  {
    case USB_REQ_RECIPIENT_DEVICE:
      ret = USBD_StdDevReq(pdev, &pdev->request);
 8002532:	4629      	mov	r1, r5
 8002534:	4620      	mov	r0, r4
      ret = USBD_LL_StallEP(pdev, (pdev->request.bmRequest & 0x80U));
      break;
  }

  return ret;
}
 8002536:	e8bd 4038 	ldmia.w	sp!, {r3, r4, r5, lr}
      ret = USBD_StdDevReq(pdev, &pdev->request);
 800253a:	f000 b953 	b.w	80027e4 <USBD_StdDevReq>
      ret = USBD_StdItfReq(pdev, &pdev->request);
 800253e:	4629      	mov	r1, r5
 8002540:	4620      	mov	r0, r4
}
 8002542:	e8bd 4038 	ldmia.w	sp!, {r3, r4, r5, lr}
      ret = USBD_StdItfReq(pdev, &pdev->request);
 8002546:	f000 bab1 	b.w	8002aac <USBD_StdItfReq>
      ret = USBD_StdEPReq(pdev, &pdev->request);
 800254a:	4629      	mov	r1, r5
 800254c:	4620      	mov	r0, r4
}
 800254e:	e8bd 4038 	ldmia.w	sp!, {r3, r4, r5, lr}
      ret = USBD_StdEPReq(pdev, &pdev->request);
 8002552:	f000 bada 	b.w	8002b0a <USBD_StdEPReq>
      ret = USBD_LL_StallEP(pdev, (pdev->request.bmRequest & 0x80U));
 8002556:	4620      	mov	r0, r4
 8002558:	f001 0180 	and.w	r1, r1, #128	@ 0x80
}
 800255c:	e8bd 4038 	ldmia.w	sp!, {r3, r4, r5, lr}
      ret = USBD_LL_StallEP(pdev, (pdev->request.bmRequest & 0x80U));
 8002560:	f001 b871 	b.w	8003646 <USBD_LL_StallEP>

08002564 <USBD_LL_DataOutStage>:
  * @param  pdata: data pointer
  * @retval status
  */
USBD_StatusTypeDef USBD_LL_DataOutStage(USBD_HandleTypeDef *pdev,
                                        uint8_t epnum, uint8_t *pdata)
{
 8002564:	b570      	push	{r4, r5, r6, lr}
 8002566:	4604      	mov	r4, r0
  USBD_StatusTypeDef ret = USBD_OK;
  uint8_t idx;

  UNUSED(pdata);

  if (epnum == 0U)
 8002568:	bb39      	cbnz	r1, 80025ba <USBD_LL_DataOutStage+0x56>
  {
    pep = &pdev->ep_out[0];

    if (pdev->ep0_state == USBD_EP0_DATA_OUT)
 800256a:	f8d0 3294 	ldr.w	r3, [r0, #660]	@ 0x294
 800256e:	2b03      	cmp	r3, #3
 8002570:	d112      	bne.n	8002598 <USBD_LL_DataOutStage+0x34>
    {
      if (pep->rem_length > pep->maxpacket)
 8002572:	f8d0 3158 	ldr.w	r3, [r0, #344]	@ 0x158
 8002576:	f8b0 2160 	ldrh.w	r2, [r0, #352]	@ 0x160
 800257a:	4293      	cmp	r3, r2
 800257c:	d90e      	bls.n	800259c <USBD_LL_DataOutStage+0x38>
      {
        pep->rem_length -= pep->maxpacket;
        pep->pbuffer += pep->maxpacket;
 800257e:	f8d0 1164 	ldr.w	r1, [r0, #356]	@ 0x164
        pep->rem_length -= pep->maxpacket;
 8002582:	1a9b      	subs	r3, r3, r2
        pep->pbuffer += pep->maxpacket;
 8002584:	4411      	add	r1, r2

        (void)USBD_CtlContinueRx(pdev, pep->pbuffer, MAX(pep->rem_length, pep->maxpacket));
 8002586:	429a      	cmp	r2, r3
        pep->rem_length -= pep->maxpacket;
 8002588:	f8c0 3158 	str.w	r3, [r0, #344]	@ 0x158
        pep->pbuffer += pep->maxpacket;
 800258c:	f8c0 1164 	str.w	r1, [r0, #356]	@ 0x164
        (void)USBD_CtlContinueRx(pdev, pep->pbuffer, MAX(pep->rem_length, pep->maxpacket));
 8002590:	bf38      	it	cc
 8002592:	461a      	movcc	r2, r3
 8002594:	f000 fbb6 	bl	8002d04 <USBD_CtlContinueRx>
      }
    }
  }

  return USBD_OK;
}
 8002598:	2000      	movs	r0, #0
 800259a:	bd70      	pop	{r4, r5, r6, pc}
          if (pdev->dev_state == USBD_STATE_CONFIGURED)
 800259c:	f890 329c 	ldrb.w	r3, [r0, #668]	@ 0x29c
 80025a0:	2b03      	cmp	r3, #3
 80025a2:	d106      	bne.n	80025b2 <USBD_LL_DataOutStage+0x4e>
            if (pdev->pClass[idx]->EP0_RxReady != NULL)
 80025a4:	f8d0 32b8 	ldr.w	r3, [r0, #696]	@ 0x2b8
 80025a8:	691b      	ldr	r3, [r3, #16]
 80025aa:	b113      	cbz	r3, 80025b2 <USBD_LL_DataOutStage+0x4e>
              pdev->classId = idx;
 80025ac:	f8c0 12d4 	str.w	r1, [r0, #724]	@ 0x2d4
              pdev->pClass[idx]->EP0_RxReady(pdev);
 80025b0:	4798      	blx	r3
        (void)USBD_CtlSendStatus(pdev);
 80025b2:	4620      	mov	r0, r4
 80025b4:	f000 fbae 	bl	8002d14 <USBD_CtlSendStatus>
 80025b8:	e7ee      	b.n	8002598 <USBD_LL_DataOutStage+0x34>
      if (pdev->dev_state == USBD_STATE_CONFIGURED)
 80025ba:	f890 329c 	ldrb.w	r3, [r0, #668]	@ 0x29c
 80025be:	2b03      	cmp	r3, #3
 80025c0:	d1ea      	bne.n	8002598 <USBD_LL_DataOutStage+0x34>
        if (pdev->pClass[idx]->DataOut != NULL)
 80025c2:	f8d0 32b8 	ldr.w	r3, [r0, #696]	@ 0x2b8
 80025c6:	699b      	ldr	r3, [r3, #24]
 80025c8:	2b00      	cmp	r3, #0
 80025ca:	d0e5      	beq.n	8002598 <USBD_LL_DataOutStage+0x34>
          pdev->classId = idx;
 80025cc:	2200      	movs	r2, #0
}
 80025ce:	e8bd 4070 	ldmia.w	sp!, {r4, r5, r6, lr}
          pdev->classId = idx;
 80025d2:	f8c0 22d4 	str.w	r2, [r0, #724]	@ 0x2d4
          ret = (USBD_StatusTypeDef)pdev->pClass[idx]->DataOut(pdev, epnum);
 80025d6:	4718      	bx	r3

080025d8 <USBD_LL_DataInStage>:
  * @param  pdata: data pointer
  * @retval status
  */
USBD_StatusTypeDef USBD_LL_DataInStage(USBD_HandleTypeDef *pdev,
                                       uint8_t epnum, uint8_t *pdata)
{
 80025d8:	b570      	push	{r4, r5, r6, lr}
 80025da:	4604      	mov	r4, r0
  USBD_StatusTypeDef ret;
  uint8_t idx;

  UNUSED(pdata);

  if (epnum == 0U)
 80025dc:	460d      	mov	r5, r1
 80025de:	2900      	cmp	r1, #0
 80025e0:	d13f      	bne.n	8002662 <USBD_LL_DataInStage+0x8a>
  {
    pep = &pdev->ep_in[0];

    if (pdev->ep0_state == USBD_EP0_DATA_IN)
 80025e2:	f8d0 3294 	ldr.w	r3, [r0, #660]	@ 0x294
 80025e6:	2b02      	cmp	r3, #2
 80025e8:	d110      	bne.n	800260c <USBD_LL_DataInStage+0x34>
    {
      if (pep->rem_length > pep->maxpacket)
 80025ea:	6982      	ldr	r2, [r0, #24]
 80025ec:	8c03      	ldrh	r3, [r0, #32]
 80025ee:	429a      	cmp	r2, r3
 80025f0:	d914      	bls.n	800261c <USBD_LL_DataInStage+0x44>
      {
        pep->rem_length -= pep->maxpacket;
        pep->pbuffer += pep->maxpacket;
 80025f2:	6a41      	ldr	r1, [r0, #36]	@ 0x24
        pep->rem_length -= pep->maxpacket;
 80025f4:	1ad2      	subs	r2, r2, r3
        pep->pbuffer += pep->maxpacket;
 80025f6:	4419      	add	r1, r3
        pep->rem_length -= pep->maxpacket;
 80025f8:	6182      	str	r2, [r0, #24]
        pep->pbuffer += pep->maxpacket;
 80025fa:	6241      	str	r1, [r0, #36]	@ 0x24

        (void)USBD_CtlContinueSendData(pdev, pep->pbuffer, pep->rem_length);
 80025fc:	f000 fb69 	bl	8002cd2 <USBD_CtlContinueSendData>
        {
          (void)USBD_CtlContinueSendData(pdev, NULL, 0U);
          pdev->ep0_data_len = 0U;

          /* Prepare endpoint for premature end of transfer */
          (void)USBD_LL_PrepareReceive(pdev, 0U, NULL, 0U);
 8002600:	462b      	mov	r3, r5
 8002602:	462a      	mov	r2, r5
 8002604:	4629      	mov	r1, r5
 8002606:	4620      	mov	r0, r4
 8002608:	f001 f841 	bl	800368e <USBD_LL_PrepareReceive>
          (void)USBD_CtlReceiveStatus(pdev);
        }
      }
    }

    if (pdev->dev_test_mode != 0U)
 800260c:	f894 32a0 	ldrb.w	r3, [r4, #672]	@ 0x2a0
 8002610:	b113      	cbz	r3, 8002618 <USBD_LL_DataInStage+0x40>
    {
      (void)USBD_RunTestMode(pdev);
      pdev->dev_test_mode = 0U;
 8002612:	2300      	movs	r3, #0
 8002614:	f884 32a0 	strb.w	r3, [r4, #672]	@ 0x2a0
      }
    }
  }

  return USBD_OK;
}
 8002618:	2000      	movs	r0, #0
 800261a:	bd70      	pop	{r4, r5, r6, pc}
        if ((pep->maxpacket == pep->rem_length) &&
 800261c:	d10c      	bne.n	8002638 <USBD_LL_DataInStage+0x60>
            (pep->total_length >= pep->maxpacket) &&
 800261e:	6943      	ldr	r3, [r0, #20]
        if ((pep->maxpacket == pep->rem_length) &&
 8002620:	429a      	cmp	r2, r3
 8002622:	d809      	bhi.n	8002638 <USBD_LL_DataInStage+0x60>
            (pep->total_length >= pep->maxpacket) &&
 8002624:	f8d0 2298 	ldr.w	r2, [r0, #664]	@ 0x298
 8002628:	4293      	cmp	r3, r2
 800262a:	d205      	bcs.n	8002638 <USBD_LL_DataInStage+0x60>
          (void)USBD_CtlContinueSendData(pdev, NULL, 0U);
 800262c:	460a      	mov	r2, r1
 800262e:	f000 fb50 	bl	8002cd2 <USBD_CtlContinueSendData>
          pdev->ep0_data_len = 0U;
 8002632:	f8c4 5298 	str.w	r5, [r4, #664]	@ 0x298
 8002636:	e7e3      	b.n	8002600 <USBD_LL_DataInStage+0x28>
          if (pdev->dev_state == USBD_STATE_CONFIGURED)
 8002638:	f894 329c 	ldrb.w	r3, [r4, #668]	@ 0x29c
 800263c:	2b03      	cmp	r3, #3
 800263e:	d108      	bne.n	8002652 <USBD_LL_DataInStage+0x7a>
            if (pdev->pClass[0]->EP0_TxSent != NULL)
 8002640:	f8d4 32b8 	ldr.w	r3, [r4, #696]	@ 0x2b8
 8002644:	68db      	ldr	r3, [r3, #12]
 8002646:	b123      	cbz	r3, 8002652 <USBD_LL_DataInStage+0x7a>
              pdev->classId = 0U;
 8002648:	2200      	movs	r2, #0
 800264a:	f8c4 22d4 	str.w	r2, [r4, #724]	@ 0x2d4
              pdev->pClass[0]->EP0_TxSent(pdev);
 800264e:	4620      	mov	r0, r4
 8002650:	4798      	blx	r3
          (void)USBD_LL_StallEP(pdev, 0x80U);
 8002652:	2180      	movs	r1, #128	@ 0x80
 8002654:	4620      	mov	r0, r4
 8002656:	f000 fff6 	bl	8003646 <USBD_LL_StallEP>
          (void)USBD_CtlReceiveStatus(pdev);
 800265a:	4620      	mov	r0, r4
 800265c:	f000 fb65 	bl	8002d2a <USBD_CtlReceiveStatus>
 8002660:	e7d4      	b.n	800260c <USBD_LL_DataInStage+0x34>
      if (pdev->dev_state == USBD_STATE_CONFIGURED)
 8002662:	f890 329c 	ldrb.w	r3, [r0, #668]	@ 0x29c
 8002666:	2b03      	cmp	r3, #3
 8002668:	d1d6      	bne.n	8002618 <USBD_LL_DataInStage+0x40>
        if (pdev->pClass[idx]->DataIn != NULL)
 800266a:	f8d0 32b8 	ldr.w	r3, [r0, #696]	@ 0x2b8
 800266e:	695b      	ldr	r3, [r3, #20]
 8002670:	2b00      	cmp	r3, #0
 8002672:	d0d1      	beq.n	8002618 <USBD_LL_DataInStage+0x40>
          pdev->classId = idx;
 8002674:	2200      	movs	r2, #0
}
 8002676:	e8bd 4070 	ldmia.w	sp!, {r4, r5, r6, lr}
          pdev->classId = idx;
 800267a:	f8c0 22d4 	str.w	r2, [r0, #724]	@ 0x2d4
          ret = (USBD_StatusTypeDef)pdev->pClass[idx]->DataIn(pdev, epnum);
 800267e:	4718      	bx	r3

08002680 <USBD_LL_Reset>:
  *         Handle Reset event
  * @param  pdev: device instance
  * @retval status
  */
USBD_StatusTypeDef USBD_LL_Reset(USBD_HandleTypeDef *pdev)
{
 8002680:	b5f8      	push	{r3, r4, r5, r6, r7, lr}
  USBD_StatusTypeDef ret = USBD_OK;

  /* Upon Reset call user call back */
  pdev->dev_state = USBD_STATE_DEFAULT;
 8002682:	2301      	movs	r3, #1
 8002684:	f880 329c 	strb.w	r3, [r0, #668]	@ 0x29c
      }
    }
  }
#else

  if (pdev->pClass[0] != NULL)
 8002688:	f8d0 32b8 	ldr.w	r3, [r0, #696]	@ 0x2b8
  pdev->ep0_state = USBD_EP0_IDLE;
 800268c:	2100      	movs	r1, #0
{
 800268e:	4604      	mov	r4, r0
  pdev->ep0_state = USBD_EP0_IDLE;
 8002690:	f8c0 1294 	str.w	r1, [r0, #660]	@ 0x294
  pdev->dev_config = 0U;
 8002694:	6041      	str	r1, [r0, #4]
  pdev->dev_remote_wakeup = 0U;
 8002696:	f8c0 12a4 	str.w	r1, [r0, #676]	@ 0x2a4
  pdev->dev_test_mode = 0U;
 800269a:	f880 12a0 	strb.w	r1, [r0, #672]	@ 0x2a0
  if (pdev->pClass[0] != NULL)
 800269e:	b9bb      	cbnz	r3, 80026d0 <USBD_LL_Reset+0x50>
  USBD_StatusTypeDef ret = USBD_OK;
 80026a0:	2600      	movs	r6, #0
    }
  }
#endif /* USE_USBD_COMPOSITE */

  /* Open EP0 OUT */
  (void)USBD_LL_OpenEP(pdev, 0x00U, USBD_EP_TYPE_CTRL, USB_MAX_EP0_SIZE);
 80026a2:	2200      	movs	r2, #0
  pdev->ep_out[0x00U & 0xFU].is_used = 1U;

  pdev->ep_out[0].maxpacket = USB_MAX_EP0_SIZE;
 80026a4:	2540      	movs	r5, #64	@ 0x40
  (void)USBD_LL_OpenEP(pdev, 0x00U, USBD_EP_TYPE_CTRL, USB_MAX_EP0_SIZE);
 80026a6:	4611      	mov	r1, r2
  pdev->ep_out[0x00U & 0xFU].is_used = 1U;
 80026a8:	2701      	movs	r7, #1
  (void)USBD_LL_OpenEP(pdev, 0x00U, USBD_EP_TYPE_CTRL, USB_MAX_EP0_SIZE);
 80026aa:	2340      	movs	r3, #64	@ 0x40
 80026ac:	4620      	mov	r0, r4
 80026ae:	f000 ffb5 	bl	800361c <USBD_LL_OpenEP>
  pdev->ep_out[0x00U & 0xFU].is_used = 1U;
 80026b2:	f884 7163 	strb.w	r7, [r4, #355]	@ 0x163
  pdev->ep_out[0].maxpacket = USB_MAX_EP0_SIZE;
 80026b6:	f8a4 5160 	strh.w	r5, [r4, #352]	@ 0x160

  /* Open EP0 IN */
  (void)USBD_LL_OpenEP(pdev, 0x80U, USBD_EP_TYPE_CTRL, USB_MAX_EP0_SIZE);
 80026ba:	462b      	mov	r3, r5
 80026bc:	2200      	movs	r2, #0
 80026be:	2180      	movs	r1, #128	@ 0x80
 80026c0:	4620      	mov	r0, r4
 80026c2:	f000 ffab 	bl	800361c <USBD_LL_OpenEP>
  pdev->ep_in[0x80U & 0xFU].is_used = 1U;
 80026c6:	f884 7023 	strb.w	r7, [r4, #35]	@ 0x23

  pdev->ep_in[0].maxpacket = USB_MAX_EP0_SIZE;
 80026ca:	8425      	strh	r5, [r4, #32]

  return ret;
}
 80026cc:	4630      	mov	r0, r6
 80026ce:	bdf8      	pop	{r3, r4, r5, r6, r7, pc}
    if (pdev->pClass[0]->DeInit != NULL)
 80026d0:	685b      	ldr	r3, [r3, #4]
 80026d2:	2b00      	cmp	r3, #0
 80026d4:	d0e4      	beq.n	80026a0 <USBD_LL_Reset+0x20>
      if (pdev->pClass[0]->DeInit(pdev, (uint8_t)pdev->dev_config) != USBD_OK)
 80026d6:	4798      	blx	r3
 80026d8:	2800      	cmp	r0, #0
 80026da:	d0e1      	beq.n	80026a0 <USBD_LL_Reset+0x20>
        ret = USBD_FAIL;
 80026dc:	2603      	movs	r6, #3
 80026de:	e7e0      	b.n	80026a2 <USBD_LL_Reset+0x22>

080026e0 <USBD_LL_SetSpeed>:
  * @retval status
  */
USBD_StatusTypeDef USBD_LL_SetSpeed(USBD_HandleTypeDef *pdev,
                                    USBD_SpeedTypeDef speed)
{
  pdev->dev_speed = speed;
 80026e0:	7401      	strb	r1, [r0, #16]

  return USBD_OK;
}
 80026e2:	2000      	movs	r0, #0
 80026e4:	4770      	bx	lr

080026e6 <USBD_LL_Suspend>:
  * @param  pdev: device instance
  * @retval status
  */
USBD_StatusTypeDef USBD_LL_Suspend(USBD_HandleTypeDef *pdev)
{
  if (pdev->dev_state != USBD_STATE_SUSPENDED)
 80026e6:	f890 329c 	ldrb.w	r3, [r0, #668]	@ 0x29c
 80026ea:	2b04      	cmp	r3, #4
  {
    pdev->dev_old_state = pdev->dev_state;
 80026ec:	bf1e      	ittt	ne
 80026ee:	f890 329c 	ldrbne.w	r3, [r0, #668]	@ 0x29c
 80026f2:	b2db      	uxtbne	r3, r3
 80026f4:	f880 329d 	strbne.w	r3, [r0, #669]	@ 0x29d
  }

  pdev->dev_state = USBD_STATE_SUSPENDED;
 80026f8:	2304      	movs	r3, #4
 80026fa:	f880 329c 	strb.w	r3, [r0, #668]	@ 0x29c

  return USBD_OK;
}
 80026fe:	2000      	movs	r0, #0
 8002700:	4770      	bx	lr

08002702 <USBD_LL_Resume>:
  * @param  pdev: device instance
  * @retval status
  */
USBD_StatusTypeDef USBD_LL_Resume(USBD_HandleTypeDef *pdev)
{
  if (pdev->dev_state == USBD_STATE_SUSPENDED)
 8002702:	f890 329c 	ldrb.w	r3, [r0, #668]	@ 0x29c
 8002706:	2b04      	cmp	r3, #4
  {
    pdev->dev_state = pdev->dev_old_state;
 8002708:	bf02      	ittt	eq
 800270a:	f890 329d 	ldrbeq.w	r3, [r0, #669]	@ 0x29d
 800270e:	b2db      	uxtbeq	r3, r3
 8002710:	f880 329c 	strbeq.w	r3, [r0, #668]	@ 0x29c
  }

  return USBD_OK;
}
 8002714:	2000      	movs	r0, #0
 8002716:	4770      	bx	lr

08002718 <USBD_LL_SOF>:
  *         Handle SOF event
  * @param  pdev: device instance
  * @retval status
  */
USBD_StatusTypeDef USBD_LL_SOF(USBD_HandleTypeDef *pdev)
{
 8002718:	b508      	push	{r3, lr}
  /* The SOF event can be distributed for all classes that support it */
  if (pdev->dev_state == USBD_STATE_CONFIGURED)
 800271a:	f890 229c 	ldrb.w	r2, [r0, #668]	@ 0x29c
 800271e:	2a03      	cmp	r2, #3
 8002720:	d105      	bne.n	800272e <USBD_LL_SOF+0x16>
          }
        }
      }
    }
#else
    if (pdev->pClass[0] != NULL)
 8002722:	f8d0 32b8 	ldr.w	r3, [r0, #696]	@ 0x2b8
 8002726:	b113      	cbz	r3, 800272e <USBD_LL_SOF+0x16>
    {
      if (pdev->pClass[0]->SOF != NULL)
 8002728:	69db      	ldr	r3, [r3, #28]
 800272a:	b103      	cbz	r3, 800272e <USBD_LL_SOF+0x16>
      {
        (void)pdev->pClass[0]->SOF(pdev);
 800272c:	4798      	blx	r3
    }
#endif /* USE_USBD_COMPOSITE */
  }

  return USBD_OK;
}
 800272e:	2000      	movs	r0, #0
 8002730:	bd08      	pop	{r3, pc}

08002732 <USBD_LL_IsoINIncomplete>:
  * @retval status
  */
USBD_StatusTypeDef USBD_LL_IsoINIncomplete(USBD_HandleTypeDef *pdev,
                                           uint8_t epnum)
{
  if (pdev->pClass[pdev->classId] == NULL)
 8002732:	f8d0 22d4 	ldr.w	r2, [r0, #724]	@ 0x2d4
 8002736:	32ae      	adds	r2, #174	@ 0xae
{
 8002738:	b508      	push	{r3, lr}
  if (pdev->pClass[pdev->classId] == NULL)
 800273a:	f850 2022 	ldr.w	r2, [r0, r2, lsl #2]
 800273e:	b14a      	cbz	r2, 8002754 <USBD_LL_IsoINIncomplete+0x22>
  {
    return USBD_FAIL;
  }

  if (pdev->dev_state == USBD_STATE_CONFIGURED)
 8002740:	f890 329c 	ldrb.w	r3, [r0, #668]	@ 0x29c
 8002744:	2b03      	cmp	r3, #3
 8002746:	d101      	bne.n	800274c <USBD_LL_IsoINIncomplete+0x1a>
  {
    if (pdev->pClass[pdev->classId]->IsoINIncomplete != NULL)
 8002748:	6a13      	ldr	r3, [r2, #32]
 800274a:	b90b      	cbnz	r3, 8002750 <USBD_LL_IsoINIncomplete+0x1e>
    {
      (void)pdev->pClass[pdev->classId]->IsoINIncomplete(pdev, epnum);
    }
  }

  return USBD_OK;
 800274c:	2000      	movs	r0, #0
}
 800274e:	bd08      	pop	{r3, pc}
      (void)pdev->pClass[pdev->classId]->IsoINIncomplete(pdev, epnum);
 8002750:	4798      	blx	r3
 8002752:	e7fb      	b.n	800274c <USBD_LL_IsoINIncomplete+0x1a>
    return USBD_FAIL;
 8002754:	2003      	movs	r0, #3
 8002756:	e7fa      	b.n	800274e <USBD_LL_IsoINIncomplete+0x1c>

08002758 <USBD_LL_IsoOUTIncomplete>:
  * @retval status
  */
USBD_StatusTypeDef USBD_LL_IsoOUTIncomplete(USBD_HandleTypeDef *pdev,
                                            uint8_t epnum)
{
  if (pdev->pClass[pdev->classId] == NULL)
 8002758:	f8d0 22d4 	ldr.w	r2, [r0, #724]	@ 0x2d4
 800275c:	32ae      	adds	r2, #174	@ 0xae
{
 800275e:	b508      	push	{r3, lr}
  if (pdev->pClass[pdev->classId] == NULL)
 8002760:	f850 2022 	ldr.w	r2, [r0, r2, lsl #2]
 8002764:	b14a      	cbz	r2, 800277a <USBD_LL_IsoOUTIncomplete+0x22>
  {
    return USBD_FAIL;
  }

  if (pdev->dev_state == USBD_STATE_CONFIGURED)
 8002766:	f890 329c 	ldrb.w	r3, [r0, #668]	@ 0x29c
 800276a:	2b03      	cmp	r3, #3
 800276c:	d101      	bne.n	8002772 <USBD_LL_IsoOUTIncomplete+0x1a>
  {
    if (pdev->pClass[pdev->classId]->IsoOUTIncomplete != NULL)
 800276e:	6a53      	ldr	r3, [r2, #36]	@ 0x24
 8002770:	b90b      	cbnz	r3, 8002776 <USBD_LL_IsoOUTIncomplete+0x1e>
    {
      (void)pdev->pClass[pdev->classId]->IsoOUTIncomplete(pdev, epnum);
    }
  }

  return USBD_OK;
 8002772:	2000      	movs	r0, #0
}
 8002774:	bd08      	pop	{r3, pc}
      (void)pdev->pClass[pdev->classId]->IsoOUTIncomplete(pdev, epnum);
 8002776:	4798      	blx	r3
 8002778:	e7fb      	b.n	8002772 <USBD_LL_IsoOUTIncomplete+0x1a>
    return USBD_FAIL;
 800277a:	2003      	movs	r0, #3
 800277c:	e7fa      	b.n	8002774 <USBD_LL_IsoOUTIncomplete+0x1c>

0800277e <USBD_LL_DevConnected>:
  * @brief  USBD_LL_DevConnected
  *         Handle device connection event
  * @param  pdev: device instance
  * @retval status
  */
USBD_StatusTypeDef USBD_LL_DevConnected(USBD_HandleTypeDef *pdev)
 800277e:	2000      	movs	r0, #0
 8002780:	4770      	bx	lr

08002782 <USBD_LL_DevDisconnected>:
USBD_StatusTypeDef USBD_LL_DevDisconnected(USBD_HandleTypeDef *pdev)
{
  USBD_StatusTypeDef   ret = USBD_OK;

  /* Free Class Resources */
  pdev->dev_state = USBD_STATE_DEFAULT;
 8002782:	2201      	movs	r2, #1
{
 8002784:	b508      	push	{r3, lr}
  pdev->dev_state = USBD_STATE_DEFAULT;
 8002786:	f880 229c 	strb.w	r2, [r0, #668]	@ 0x29c
        }
      }
    }
  }
#else
  if (pdev->pClass[0] != NULL)
 800278a:	f8d0 22b8 	ldr.w	r2, [r0, #696]	@ 0x2b8
 800278e:	b90a      	cbnz	r2, 8002794 <USBD_LL_DevDisconnected+0x12>
  USBD_StatusTypeDef   ret = USBD_OK;
 8002790:	2000      	movs	r0, #0
    }
  }
#endif /* USE_USBD_COMPOSITE */

  return ret;
}
 8002792:	bd08      	pop	{r3, pc}
    if (pdev->pClass[0]->DeInit(pdev, (uint8_t)pdev->dev_config) != 0U)
 8002794:	6852      	ldr	r2, [r2, #4]
 8002796:	7901      	ldrb	r1, [r0, #4]
 8002798:	4790      	blx	r2
 800279a:	2800      	cmp	r0, #0
 800279c:	d0f8      	beq.n	8002790 <USBD_LL_DevDisconnected+0xe>
      ret = USBD_FAIL;
 800279e:	2003      	movs	r0, #3
 80027a0:	e7f7      	b.n	8002792 <USBD_LL_DevDisconnected+0x10>

080027a2 <USBD_CoreFindIF>:
  UNUSED(pdev);
  UNUSED(index);

  return 0x00U;
#endif /* USE_USBD_COMPOSITE */
}
 80027a2:	2000      	movs	r0, #0
 80027a4:	4770      	bx	lr

080027a6 <USBD_CoreFindEP>:
  *         return the class index relative to the selected endpoint
  * @param  pdev: device instance
  * @param  index : selected endpoint number
  * @retval index of the class using the selected endpoint number. 0xFF if no class found.
  */
uint8_t USBD_CoreFindEP(USBD_HandleTypeDef *pdev, uint8_t index)
 80027a6:	2000      	movs	r0, #0
 80027a8:	4770      	bx	lr

080027aa <USBD_GetEpDesc>:
  * @param  pConfDesc:  pointer to Bos descriptor
  * @param  EpAddr:  endpoint address
  * @retval pointer to video endpoint descriptor
  */
void *USBD_GetEpDesc(uint8_t *pConfDesc, uint8_t EpAddr)
{
 80027aa:	b510      	push	{r4, lr}
  USBD_DescHeaderTypeDef *pdesc = (USBD_DescHeaderTypeDef *)(void *)pConfDesc;
  USBD_ConfigDescTypeDef *desc = (USBD_ConfigDescTypeDef *)(void *)pConfDesc;
  USBD_EpDescTypeDef *pEpDesc = NULL;
  uint16_t ptr;

  if (desc->wTotalLength > desc->bLength)
 80027ac:	8842      	ldrh	r2, [r0, #2]
 80027ae:	7803      	ldrb	r3, [r0, #0]
 80027b0:	429a      	cmp	r2, r3
 80027b2:	d801      	bhi.n	80027b8 <USBD_GetEpDesc+0xe>
  USBD_EpDescTypeDef *pEpDesc = NULL;
 80027b4:	2000      	movs	r0, #0
      }
    }
  }

  return (void *)pEpDesc;
}
 80027b6:	bd10      	pop	{r4, pc}
  */
USBD_DescHeaderTypeDef *USBD_GetNextDesc(uint8_t *pbuf, uint16_t *ptr)
{
  USBD_DescHeaderTypeDef *pnext = (USBD_DescHeaderTypeDef *)(void *)pbuf;

  *ptr += pnext->bLength;
 80027b8:	7804      	ldrb	r4, [r0, #0]
  pnext = (USBD_DescHeaderTypeDef *)(void *)(pbuf + pnext->bLength);
 80027ba:	4420      	add	r0, r4
  *ptr += pnext->bLength;
 80027bc:	4423      	add	r3, r4
      if (pdesc->bDescriptorType == USB_DESC_TYPE_ENDPOINT)
 80027be:	7844      	ldrb	r4, [r0, #1]
 80027c0:	2c05      	cmp	r4, #5
  *ptr += pnext->bLength;
 80027c2:	b29b      	uxth	r3, r3
      if (pdesc->bDescriptorType == USB_DESC_TYPE_ENDPOINT)
 80027c4:	d1f4      	bne.n	80027b0 <USBD_GetEpDesc+0x6>
        if (pEpDesc->bEndpointAddress == EpAddr)
 80027c6:	7884      	ldrb	r4, [r0, #2]
 80027c8:	428c      	cmp	r4, r1
 80027ca:	d1f1      	bne.n	80027b0 <USBD_GetEpDesc+0x6>
 80027cc:	e7f3      	b.n	80027b6 <USBD_GetEpDesc+0xc>

080027ce <USBD_CtlError.constprop.0>:
  *         Handle USB low level Error
  * @param  pdev: device instance
  * @param  req: usb request
  * @retval None
  */
void USBD_CtlError(USBD_HandleTypeDef *pdev, USBD_SetupReqTypedef *req)
 80027ce:	b510      	push	{r4, lr}
{
  UNUSED(req);

  (void)USBD_LL_StallEP(pdev, 0x80U);
 80027d0:	2180      	movs	r1, #128	@ 0x80
void USBD_CtlError(USBD_HandleTypeDef *pdev, USBD_SetupReqTypedef *req)
 80027d2:	4604      	mov	r4, r0
  (void)USBD_LL_StallEP(pdev, 0x80U);
 80027d4:	f000 ff37 	bl	8003646 <USBD_LL_StallEP>
  (void)USBD_LL_StallEP(pdev, 0U);
 80027d8:	4620      	mov	r0, r4
 80027da:	2100      	movs	r1, #0
}
 80027dc:	e8bd 4010 	ldmia.w	sp!, {r4, lr}
  (void)USBD_LL_StallEP(pdev, 0U);
 80027e0:	f000 bf31 	b.w	8003646 <USBD_LL_StallEP>

080027e4 <USBD_StdDevReq>:
{
 80027e4:	b573      	push	{r0, r1, r4, r5, r6, lr}
 80027e6:	780b      	ldrb	r3, [r1, #0]
 80027e8:	f003 0360 	and.w	r3, r3, #96	@ 0x60
  switch (req->bmRequest & USB_REQ_TYPE_MASK)
 80027ec:	2b20      	cmp	r3, #32
{
 80027ee:	4604      	mov	r4, r0
 80027f0:	460d      	mov	r5, r1
  switch (req->bmRequest & USB_REQ_TYPE_MASK)
 80027f2:	d009      	beq.n	8002808 <USBD_StdDevReq+0x24>
 80027f4:	2b40      	cmp	r3, #64	@ 0x40
 80027f6:	d007      	beq.n	8002808 <USBD_StdDevReq+0x24>
 80027f8:	b193      	cbz	r3, 8002820 <USBD_StdDevReq+0x3c>
      USBD_CtlError(pdev, req);
 80027fa:	4620      	mov	r0, r4
 80027fc:	f7ff ffe7 	bl	80027ce <USBD_CtlError.constprop.0>
  USBD_StatusTypeDef ret = USBD_OK;
 8002800:	2500      	movs	r5, #0
}
 8002802:	4628      	mov	r0, r5
 8002804:	b002      	add	sp, #8
 8002806:	bd70      	pop	{r4, r5, r6, pc}
      ret = (USBD_StatusTypeDef)pdev->pClass[pdev->classId]->Setup(pdev, req);
 8002808:	f8d4 32d4 	ldr.w	r3, [r4, #724]	@ 0x2d4
 800280c:	33ae      	adds	r3, #174	@ 0xae
 800280e:	4629      	mov	r1, r5
 8002810:	f854 3023 	ldr.w	r3, [r4, r3, lsl #2]
 8002814:	689b      	ldr	r3, [r3, #8]
 8002816:	4620      	mov	r0, r4
}
 8002818:	b002      	add	sp, #8
 800281a:	e8bd 4070 	ldmia.w	sp!, {r4, r5, r6, lr}
      ret = (USBD_StatusTypeDef)pdev->pClass[pdev->classId]->Setup(pdev, req);
 800281e:	4718      	bx	r3
      switch (req->bRequest)
 8002820:	784b      	ldrb	r3, [r1, #1]
 8002822:	2b09      	cmp	r3, #9
 8002824:	d8e9      	bhi.n	80027fa <USBD_StdDevReq+0x16>
 8002826:	a201      	add	r2, pc, #4	@ (adr r2, 800282c <USBD_StdDevReq+0x48>)
 8002828:	f852 f023 	ldr.w	pc, [r2, r3, lsl #2]
 800282c:	08002a4d 	.word	0x08002a4d
 8002830:	08002a91 	.word	0x08002a91
 8002834:	080027fb 	.word	0x080027fb
 8002838:	08002a75 	.word	0x08002a75
 800283c:	080027fb 	.word	0x080027fb
 8002840:	08002947 	.word	0x08002947
 8002844:	08002855 	.word	0x08002855
 8002848:	080027fb 	.word	0x080027fb
 800284c:	08002a21 	.word	0x08002a21
 8002850:	08002989 	.word	0x08002989
  uint16_t len = 0U;
 8002854:	2300      	movs	r3, #0
 8002856:	f8ad 3006 	strh.w	r3, [sp, #6]
  switch (req->wValue >> 8)
 800285a:	884b      	ldrh	r3, [r1, #2]
 800285c:	0a1a      	lsrs	r2, r3, #8
 800285e:	3a01      	subs	r2, #1
 8002860:	2a06      	cmp	r2, #6
 8002862:	d8ca      	bhi.n	80027fa <USBD_StdDevReq+0x16>
 8002864:	a101      	add	r1, pc, #4	@ (adr r1, 800286c <USBD_StdDevReq+0x88>)
 8002866:	f851 f022 	ldr.w	pc, [r1, r2, lsl #2]
 800286a:	bf00      	nop
 800286c:	08002889 	.word	0x08002889
 8002870:	080028bb 	.word	0x080028bb
 8002874:	080028d5 	.word	0x080028d5
 8002878:	080027fb 	.word	0x080027fb
 800287c:	080027fb 	.word	0x080027fb
 8002880:	08002919 	.word	0x08002919
 8002884:	0800292f 	.word	0x0800292f
      pbuf = pdev->pDesc->GetDeviceDescriptor(pdev->dev_speed, &len);
 8002888:	f8d0 32b4 	ldr.w	r3, [r0, #692]	@ 0x2b4
 800288c:	681b      	ldr	r3, [r3, #0]
            pbuf = pdev->pDesc->GetInterfaceStrDescriptor(pdev->dev_speed, &len);
 800288e:	7c20      	ldrb	r0, [r4, #16]
 8002890:	f10d 0106 	add.w	r1, sp, #6
 8002894:	4798      	blx	r3
  if (req->wLength != 0U)
 8002896:	88ea      	ldrh	r2, [r5, #6]
 8002898:	2a00      	cmp	r2, #0
 800289a:	f000 80a4 	beq.w	80029e6 <USBD_StdDevReq+0x202>
    if (len != 0U)
 800289e:	f8bd 3006 	ldrh.w	r3, [sp, #6]
 80028a2:	2b00      	cmp	r3, #0
 80028a4:	d0a9      	beq.n	80027fa <USBD_StdDevReq+0x16>
      len = MIN(len, req->wLength);
 80028a6:	429a      	cmp	r2, r3
 80028a8:	bf28      	it	cs
 80028aa:	461a      	movcs	r2, r3
 80028ac:	f8ad 2006 	strh.w	r2, [sp, #6]
      (void)USBD_CtlSendData(pdev, pbuf, len);
 80028b0:	4601      	mov	r1, r0
      (void)USBD_CtlSendData(pdev, (uint8_t *)&pdev->dev_config_status, 2U);
 80028b2:	4620      	mov	r0, r4
 80028b4:	f000 f9ff 	bl	8002cb6 <USBD_CtlSendData>
      break;
 80028b8:	e7a2      	b.n	8002800 <USBD_StdDevReq+0x1c>
      if (pdev->dev_speed == USBD_SPEED_HIGH)
 80028ba:	7c02      	ldrb	r2, [r0, #16]
          pbuf = (uint8_t *)pdev->pClass[0]->GetHSConfigDescriptor(&len);
 80028bc:	f8d0 32b8 	ldr.w	r3, [r0, #696]	@ 0x2b8
      if (pdev->dev_speed == USBD_SPEED_HIGH)
 80028c0:	b932      	cbnz	r2, 80028d0 <USBD_StdDevReq+0xec>
          pbuf = (uint8_t *)pdev->pClass[0]->GetHSConfigDescriptor(&len);
 80028c2:	6a9b      	ldr	r3, [r3, #40]	@ 0x28
          pbuf = (uint8_t *)pdev->pClass[0]->GetFSConfigDescriptor(&len);
 80028c4:	f10d 0006 	add.w	r0, sp, #6
 80028c8:	4798      	blx	r3
        pbuf[1] = USB_DESC_TYPE_CONFIGURATION;
 80028ca:	2302      	movs	r3, #2
        pbuf[1] = USB_DESC_TYPE_OTHER_SPEED_CONFIGURATION;
 80028cc:	7043      	strb	r3, [r0, #1]
  if (err != 0U)
 80028ce:	e7e2      	b.n	8002896 <USBD_StdDevReq+0xb2>
          pbuf = (uint8_t *)pdev->pClass[0]->GetFSConfigDescriptor(&len);
 80028d0:	6adb      	ldr	r3, [r3, #44]	@ 0x2c
 80028d2:	e7f7      	b.n	80028c4 <USBD_StdDevReq+0xe0>
      switch ((uint8_t)(req->wValue))
 80028d4:	b2db      	uxtb	r3, r3
 80028d6:	2b05      	cmp	r3, #5
 80028d8:	d88f      	bhi.n	80027fa <USBD_StdDevReq+0x16>
 80028da:	e8df f003 	tbb	[pc, r3]
 80028de:	0903      	.short	0x0903
 80028e0:	1915110d 	.word	0x1915110d
          if (pdev->pDesc->GetLangIDStrDescriptor != NULL)
 80028e4:	f8d0 32b4 	ldr.w	r3, [r0, #692]	@ 0x2b4
 80028e8:	685b      	ldr	r3, [r3, #4]
          if (pdev->pDesc->GetInterfaceStrDescriptor != NULL)
 80028ea:	2b00      	cmp	r3, #0
 80028ec:	d1cf      	bne.n	800288e <USBD_StdDevReq+0xaa>
 80028ee:	e784      	b.n	80027fa <USBD_StdDevReq+0x16>
          if (pdev->pDesc->GetManufacturerStrDescriptor != NULL)
 80028f0:	f8d0 32b4 	ldr.w	r3, [r0, #692]	@ 0x2b4
 80028f4:	689b      	ldr	r3, [r3, #8]
 80028f6:	e7f8      	b.n	80028ea <USBD_StdDevReq+0x106>
          if (pdev->pDesc->GetProductStrDescriptor != NULL)
 80028f8:	f8d0 32b4 	ldr.w	r3, [r0, #692]	@ 0x2b4
 80028fc:	68db      	ldr	r3, [r3, #12]
 80028fe:	e7f4      	b.n	80028ea <USBD_StdDevReq+0x106>
          if (pdev->pDesc->GetSerialStrDescriptor != NULL)
 8002900:	f8d0 32b4 	ldr.w	r3, [r0, #692]	@ 0x2b4
 8002904:	691b      	ldr	r3, [r3, #16]
 8002906:	e7f0      	b.n	80028ea <USBD_StdDevReq+0x106>
          if (pdev->pDesc->GetConfigurationStrDescriptor != NULL)
 8002908:	f8d0 32b4 	ldr.w	r3, [r0, #692]	@ 0x2b4
 800290c:	695b      	ldr	r3, [r3, #20]
 800290e:	e7ec      	b.n	80028ea <USBD_StdDevReq+0x106>
          if (pdev->pDesc->GetInterfaceStrDescriptor != NULL)
 8002910:	f8d0 32b4 	ldr.w	r3, [r0, #692]	@ 0x2b4
 8002914:	699b      	ldr	r3, [r3, #24]
 8002916:	e7e8      	b.n	80028ea <USBD_StdDevReq+0x106>
      if (pdev->dev_speed == USBD_SPEED_HIGH)
 8002918:	7c03      	ldrb	r3, [r0, #16]
 800291a:	2b00      	cmp	r3, #0
 800291c:	f47f af6d 	bne.w	80027fa <USBD_StdDevReq+0x16>
          pbuf = (uint8_t *)pdev->pClass[0]->GetDeviceQualifierDescriptor(&len);
 8002920:	f8d0 32b8 	ldr.w	r3, [r0, #696]	@ 0x2b8
 8002924:	f10d 0006 	add.w	r0, sp, #6
 8002928:	6b5b      	ldr	r3, [r3, #52]	@ 0x34
 800292a:	4798      	blx	r3
  if (err != 0U)
 800292c:	e7b3      	b.n	8002896 <USBD_StdDevReq+0xb2>
      if (pdev->dev_speed == USBD_SPEED_HIGH)
 800292e:	7c03      	ldrb	r3, [r0, #16]
 8002930:	2b00      	cmp	r3, #0
 8002932:	f47f af62 	bne.w	80027fa <USBD_StdDevReq+0x16>
          pbuf = (uint8_t *)pdev->pClass[0]->GetOtherSpeedConfigDescriptor(&len);
 8002936:	f8d0 32b8 	ldr.w	r3, [r0, #696]	@ 0x2b8
 800293a:	f10d 0006 	add.w	r0, sp, #6
 800293e:	6b1b      	ldr	r3, [r3, #48]	@ 0x30
 8002940:	4798      	blx	r3
        pbuf[1] = USB_DESC_TYPE_OTHER_SPEED_CONFIGURATION;
 8002942:	2307      	movs	r3, #7
 8002944:	e7c2      	b.n	80028cc <USBD_StdDevReq+0xe8>
  if ((req->wIndex == 0U) && (req->wLength == 0U) && (req->wValue < 128U))
 8002946:	888b      	ldrh	r3, [r1, #4]
 8002948:	2b00      	cmp	r3, #0
 800294a:	f47f af56 	bne.w	80027fa <USBD_StdDevReq+0x16>
 800294e:	88cb      	ldrh	r3, [r1, #6]
 8002950:	2b00      	cmp	r3, #0
 8002952:	f47f af52 	bne.w	80027fa <USBD_StdDevReq+0x16>
 8002956:	884d      	ldrh	r5, [r1, #2]
 8002958:	2d7f      	cmp	r5, #127	@ 0x7f
 800295a:	f63f af4e 	bhi.w	80027fa <USBD_StdDevReq+0x16>
    if (pdev->dev_state == USBD_STATE_CONFIGURED)
 800295e:	f890 329c 	ldrb.w	r3, [r0, #668]	@ 0x29c
 8002962:	2b03      	cmp	r3, #3
 8002964:	f43f af49 	beq.w	80027fa <USBD_StdDevReq+0x16>
    dev_addr = (uint8_t)(req->wValue) & 0x7FU;
 8002968:	b2ed      	uxtb	r5, r5
      pdev->dev_address = dev_addr;
 800296a:	f880 529e 	strb.w	r5, [r0, #670]	@ 0x29e
      (void)USBD_LL_SetUSBAddress(pdev, dev_addr);
 800296e:	4629      	mov	r1, r5
 8002970:	f000 fe7b 	bl	800366a <USBD_LL_SetUSBAddress>
      (void)USBD_CtlSendStatus(pdev);
 8002974:	4620      	mov	r0, r4
 8002976:	f000 f9cd 	bl	8002d14 <USBD_CtlSendStatus>
      if (dev_addr != 0U)
 800297a:	b11d      	cbz	r5, 8002984 <USBD_StdDevReq+0x1a0>
        pdev->dev_state = USBD_STATE_ADDRESSED;
 800297c:	2302      	movs	r3, #2
          pdev->dev_state = USBD_STATE_CONFIGURED;
 800297e:	f884 329c 	strb.w	r3, [r4, #668]	@ 0x29c
 8002982:	e73d      	b.n	8002800 <USBD_StdDevReq+0x1c>
        pdev->dev_state = USBD_STATE_DEFAULT;
 8002984:	2301      	movs	r3, #1
 8002986:	e7fa      	b.n	800297e <USBD_StdDevReq+0x19a>
  cfgidx = (uint8_t)(req->wValue);
 8002988:	7889      	ldrb	r1, [r1, #2]
 800298a:	4d47      	ldr	r5, [pc, #284]	@ (8002aa8 <USBD_StdDevReq+0x2c4>)
  if (cfgidx > USBD_MAX_NUM_CONFIGURATION)
 800298c:	2901      	cmp	r1, #1
  cfgidx = (uint8_t)(req->wValue);
 800298e:	7029      	strb	r1, [r5, #0]
  if (cfgidx > USBD_MAX_NUM_CONFIGURATION)
 8002990:	d903      	bls.n	800299a <USBD_StdDevReq+0x1b6>
    USBD_CtlError(pdev, req);
 8002992:	f7ff ff1c 	bl	80027ce <USBD_CtlError.constprop.0>
    return USBD_FAIL;
 8002996:	2503      	movs	r5, #3
 8002998:	e733      	b.n	8002802 <USBD_StdDevReq+0x1e>
  switch (pdev->dev_state)
 800299a:	f890 329c 	ldrb.w	r3, [r0, #668]	@ 0x29c
 800299e:	2b02      	cmp	r3, #2
 80029a0:	b2de      	uxtb	r6, r3
 80029a2:	d008      	beq.n	80029b6 <USBD_StdDevReq+0x1d2>
 80029a4:	2e03      	cmp	r6, #3
 80029a6:	d017      	beq.n	80029d8 <USBD_StdDevReq+0x1f4>
      USBD_CtlError(pdev, req);
 80029a8:	f7ff ff11 	bl	80027ce <USBD_CtlError.constprop.0>
      (void)USBD_ClrClassConfig(pdev, cfgidx);
 80029ac:	7829      	ldrb	r1, [r5, #0]
 80029ae:	4620      	mov	r0, r4
 80029b0:	f7ff fd9f 	bl	80024f2 <USBD_ClrClassConfig>
      break;
 80029b4:	e7ef      	b.n	8002996 <USBD_StdDevReq+0x1b2>
      if (cfgidx != 0U)
 80029b6:	b1b1      	cbz	r1, 80029e6 <USBD_StdDevReq+0x202>
        pdev->dev_config = cfgidx;
 80029b8:	2101      	movs	r1, #1
 80029ba:	6041      	str	r1, [r0, #4]
        ret = USBD_SetClassConfig(pdev, cfgidx);
 80029bc:	f7ff fd92 	bl	80024e4 <USBD_SetClassConfig>
        if (ret != USBD_OK)
 80029c0:	4605      	mov	r5, r0
          USBD_CtlError(pdev, req);
 80029c2:	4620      	mov	r0, r4
        if (ret != USBD_OK)
 80029c4:	b125      	cbz	r5, 80029d0 <USBD_StdDevReq+0x1ec>
          USBD_CtlError(pdev, req);
 80029c6:	f7ff ff02 	bl	80027ce <USBD_CtlError.constprop.0>
          pdev->dev_state = USBD_STATE_ADDRESSED;
 80029ca:	f884 629c 	strb.w	r6, [r4, #668]	@ 0x29c
 80029ce:	e718      	b.n	8002802 <USBD_StdDevReq+0x1e>
          (void)USBD_CtlSendStatus(pdev);
 80029d0:	f000 f9a0 	bl	8002d14 <USBD_CtlSendStatus>
          pdev->dev_state = USBD_STATE_CONFIGURED;
 80029d4:	2303      	movs	r3, #3
 80029d6:	e7d2      	b.n	800297e <USBD_StdDevReq+0x19a>
      if (cfgidx == 0U)
 80029d8:	b949      	cbnz	r1, 80029ee <USBD_StdDevReq+0x20a>
        pdev->dev_state = USBD_STATE_ADDRESSED;
 80029da:	2302      	movs	r3, #2
 80029dc:	f880 329c 	strb.w	r3, [r0, #668]	@ 0x29c
        pdev->dev_config = cfgidx;
 80029e0:	6041      	str	r1, [r0, #4]
        (void)USBD_ClrClassConfig(pdev, cfgidx);
 80029e2:	f7ff fd86 	bl	80024f2 <USBD_ClrClassConfig>
        (void)USBD_CtlSendStatus(pdev);
 80029e6:	4620      	mov	r0, r4
 80029e8:	f000 f994 	bl	8002d14 <USBD_CtlSendStatus>
 80029ec:	e708      	b.n	8002800 <USBD_StdDevReq+0x1c>
      else if (cfgidx != pdev->dev_config)
 80029ee:	6841      	ldr	r1, [r0, #4]
 80029f0:	2901      	cmp	r1, #1
 80029f2:	d0f8      	beq.n	80029e6 <USBD_StdDevReq+0x202>
        (void)USBD_ClrClassConfig(pdev, (uint8_t)pdev->dev_config);
 80029f4:	b2c9      	uxtb	r1, r1
 80029f6:	f7ff fd7c 	bl	80024f2 <USBD_ClrClassConfig>
        pdev->dev_config = cfgidx;
 80029fa:	7829      	ldrb	r1, [r5, #0]
 80029fc:	6061      	str	r1, [r4, #4]
        ret = USBD_SetClassConfig(pdev, cfgidx);
 80029fe:	4620      	mov	r0, r4
 8002a00:	f7ff fd70 	bl	80024e4 <USBD_SetClassConfig>
        if (ret != USBD_OK)
 8002a04:	4605      	mov	r5, r0
 8002a06:	2800      	cmp	r0, #0
 8002a08:	d0ed      	beq.n	80029e6 <USBD_StdDevReq+0x202>
          USBD_CtlError(pdev, req);
 8002a0a:	4620      	mov	r0, r4
 8002a0c:	f7ff fedf 	bl	80027ce <USBD_CtlError.constprop.0>
          (void)USBD_ClrClassConfig(pdev, (uint8_t)pdev->dev_config);
 8002a10:	7921      	ldrb	r1, [r4, #4]
 8002a12:	4620      	mov	r0, r4
 8002a14:	f7ff fd6d 	bl	80024f2 <USBD_ClrClassConfig>
          pdev->dev_state = USBD_STATE_ADDRESSED;
 8002a18:	2302      	movs	r3, #2
 8002a1a:	f884 329c 	strb.w	r3, [r4, #668]	@ 0x29c
 8002a1e:	e6f0      	b.n	8002802 <USBD_StdDevReq+0x1e>
  if (req->wLength != 1U)
 8002a20:	88ca      	ldrh	r2, [r1, #6]
 8002a22:	2a01      	cmp	r2, #1
 8002a24:	f47f aee9 	bne.w	80027fa <USBD_StdDevReq+0x16>
    switch (pdev->dev_state)
 8002a28:	f890 129c 	ldrb.w	r1, [r0, #668]	@ 0x29c
 8002a2c:	2902      	cmp	r1, #2
 8002a2e:	b2cb      	uxtb	r3, r1
 8002a30:	d807      	bhi.n	8002a42 <USBD_StdDevReq+0x25e>
 8002a32:	2b00      	cmp	r3, #0
 8002a34:	f43f aee1 	beq.w	80027fa <USBD_StdDevReq+0x16>
        pdev->dev_default_config = 0U;
 8002a38:	4601      	mov	r1, r0
 8002a3a:	2300      	movs	r3, #0
 8002a3c:	f841 3f08 	str.w	r3, [r1, #8]!
        (void)USBD_CtlSendData(pdev, (uint8_t *)&pdev->dev_default_config, 1U);
 8002a40:	e737      	b.n	80028b2 <USBD_StdDevReq+0xce>
    switch (pdev->dev_state)
 8002a42:	2b03      	cmp	r3, #3
 8002a44:	f47f aed9 	bne.w	80027fa <USBD_StdDevReq+0x16>
        (void)USBD_CtlSendData(pdev, (uint8_t *)&pdev->dev_config, 1U);
 8002a48:	1d01      	adds	r1, r0, #4
 8002a4a:	e732      	b.n	80028b2 <USBD_StdDevReq+0xce>
  switch (pdev->dev_state)
 8002a4c:	f890 329c 	ldrb.w	r3, [r0, #668]	@ 0x29c
 8002a50:	3b01      	subs	r3, #1
 8002a52:	2b02      	cmp	r3, #2
 8002a54:	f63f aed1 	bhi.w	80027fa <USBD_StdDevReq+0x16>
      if (req->wLength != 0x2U)
 8002a58:	88ca      	ldrh	r2, [r1, #6]
 8002a5a:	2a02      	cmp	r2, #2
 8002a5c:	f47f aecd 	bne.w	80027fa <USBD_StdDevReq+0x16>
      if (pdev->dev_remote_wakeup != 0U)
 8002a60:	f8d0 32a4 	ldr.w	r3, [r0, #676]	@ 0x2a4
 8002a64:	4601      	mov	r1, r0
        pdev->dev_config_status |= USB_CONFIG_REMOTE_WAKEUP;
 8002a66:	2b00      	cmp	r3, #0
 8002a68:	bf0c      	ite	eq
 8002a6a:	2301      	moveq	r3, #1
 8002a6c:	2303      	movne	r3, #3
 8002a6e:	f841 3f0c 	str.w	r3, [r1, #12]!
 8002a72:	e71e      	b.n	80028b2 <USBD_StdDevReq+0xce>
  if (req->wValue == USB_FEATURE_REMOTE_WAKEUP)
 8002a74:	884b      	ldrh	r3, [r1, #2]
 8002a76:	2b01      	cmp	r3, #1
 8002a78:	d102      	bne.n	8002a80 <USBD_StdDevReq+0x29c>
        pdev->dev_remote_wakeup = 0U;
 8002a7a:	f8c4 32a4 	str.w	r3, [r4, #676]	@ 0x2a4
 8002a7e:	e7b2      	b.n	80029e6 <USBD_StdDevReq+0x202>
  else if (req->wValue == USB_FEATURE_TEST_MODE)
 8002a80:	2b02      	cmp	r3, #2
 8002a82:	f47f aeba 	bne.w	80027fa <USBD_StdDevReq+0x16>
    pdev->dev_test_mode = (uint8_t)(req->wIndex >> 8);
 8002a86:	888b      	ldrh	r3, [r1, #4]
 8002a88:	0a1b      	lsrs	r3, r3, #8
 8002a8a:	f880 32a0 	strb.w	r3, [r0, #672]	@ 0x2a0
    (void)USBD_CtlSendStatus(pdev);
 8002a8e:	e7aa      	b.n	80029e6 <USBD_StdDevReq+0x202>
  switch (pdev->dev_state)
 8002a90:	f890 329c 	ldrb.w	r3, [r0, #668]	@ 0x29c
 8002a94:	3b01      	subs	r3, #1
 8002a96:	2b02      	cmp	r3, #2
 8002a98:	f63f aeaf 	bhi.w	80027fa <USBD_StdDevReq+0x16>
      if (req->wValue == USB_FEATURE_REMOTE_WAKEUP)
 8002a9c:	884b      	ldrh	r3, [r1, #2]
 8002a9e:	2b01      	cmp	r3, #1
 8002aa0:	f47f aeae 	bne.w	8002800 <USBD_StdDevReq+0x1c>
        pdev->dev_remote_wakeup = 0U;
 8002aa4:	2300      	movs	r3, #0
 8002aa6:	e7e8      	b.n	8002a7a <USBD_StdDevReq+0x296>
 8002aa8:	20000a26 	.word	0x20000a26

08002aac <USBD_StdItfReq>:
{
 8002aac:	b570      	push	{r4, r5, r6, lr}
  switch (req->bmRequest & USB_REQ_TYPE_MASK)
 8002aae:	780b      	ldrb	r3, [r1, #0]
 8002ab0:	f003 0260 	and.w	r2, r3, #96	@ 0x60
 8002ab4:	065b      	lsls	r3, r3, #25
{
 8002ab6:	4604      	mov	r4, r0
 8002ab8:	460e      	mov	r6, r1
  switch (req->bmRequest & USB_REQ_TYPE_MASK)
 8002aba:	d501      	bpl.n	8002ac0 <USBD_StdItfReq+0x14>
 8002abc:	2a40      	cmp	r2, #64	@ 0x40
 8002abe:	d11f      	bne.n	8002b00 <USBD_StdItfReq+0x54>
      switch (pdev->dev_state)
 8002ac0:	f894 329c 	ldrb.w	r3, [r4, #668]	@ 0x29c
 8002ac4:	3b01      	subs	r3, #1
 8002ac6:	2b02      	cmp	r3, #2
 8002ac8:	d81a      	bhi.n	8002b00 <USBD_StdItfReq+0x54>
          if (LOBYTE(req->wIndex) <= USBD_MAX_NUM_INTERFACES)
 8002aca:	7931      	ldrb	r1, [r6, #4]
 8002acc:	2901      	cmp	r1, #1
            idx = USBD_CoreFindIF(pdev, LOBYTE(req->wIndex));
 8002ace:	4620      	mov	r0, r4
          if (LOBYTE(req->wIndex) <= USBD_MAX_NUM_INTERFACES)
 8002ad0:	d817      	bhi.n	8002b02 <USBD_StdItfReq+0x56>
            idx = USBD_CoreFindIF(pdev, LOBYTE(req->wIndex));
 8002ad2:	f7ff fe66 	bl	80027a2 <USBD_CoreFindIF>
            if (((uint8_t)idx != 0xFFU) && (idx < USBD_MAX_SUPPORTED_CLASS))
 8002ad6:	b988      	cbnz	r0, 8002afc <USBD_StdItfReq+0x50>
              if (pdev->pClass[idx]->Setup != NULL)
 8002ad8:	f8d4 32b8 	ldr.w	r3, [r4, #696]	@ 0x2b8
 8002adc:	689b      	ldr	r3, [r3, #8]
 8002ade:	b16b      	cbz	r3, 8002afc <USBD_StdItfReq+0x50>
                pdev->classId = idx;
 8002ae0:	f8c4 02d4 	str.w	r0, [r4, #724]	@ 0x2d4
                ret = (USBD_StatusTypeDef)(pdev->pClass[idx]->Setup(pdev, req));
 8002ae4:	4631      	mov	r1, r6
 8002ae6:	4620      	mov	r0, r4
 8002ae8:	4798      	blx	r3
 8002aea:	4605      	mov	r5, r0
            if ((req->wLength == 0U) && (ret == USBD_OK))
 8002aec:	88f3      	ldrh	r3, [r6, #6]
 8002aee:	b91b      	cbnz	r3, 8002af8 <USBD_StdItfReq+0x4c>
 8002af0:	b915      	cbnz	r5, 8002af8 <USBD_StdItfReq+0x4c>
              (void)USBD_CtlSendStatus(pdev);
 8002af2:	4620      	mov	r0, r4
 8002af4:	f000 f90e 	bl	8002d14 <USBD_CtlSendStatus>
}
 8002af8:	4628      	mov	r0, r5
 8002afa:	bd70      	pop	{r4, r5, r6, pc}
                ret = USBD_FAIL;
 8002afc:	2503      	movs	r5, #3
 8002afe:	e7f5      	b.n	8002aec <USBD_StdItfReq+0x40>
          USBD_CtlError(pdev, req);
 8002b00:	4620      	mov	r0, r4
            USBD_CtlError(pdev, req);
 8002b02:	f7ff fe64 	bl	80027ce <USBD_CtlError.constprop.0>
  USBD_StatusTypeDef ret = USBD_OK;
 8002b06:	2500      	movs	r5, #0
 8002b08:	e7f6      	b.n	8002af8 <USBD_StdItfReq+0x4c>

08002b0a <USBD_StdEPReq>:
{
 8002b0a:	b570      	push	{r4, r5, r6, lr}
 8002b0c:	780b      	ldrb	r3, [r1, #0]
  ep_addr = LOBYTE(req->wIndex);
 8002b0e:	888a      	ldrh	r2, [r1, #4]
 8002b10:	790d      	ldrb	r5, [r1, #4]
 8002b12:	f003 0360 	and.w	r3, r3, #96	@ 0x60
  switch (req->bmRequest & USB_REQ_TYPE_MASK)
 8002b16:	2b20      	cmp	r3, #32
{
 8002b18:	4604      	mov	r4, r0
 8002b1a:	460e      	mov	r6, r1
  switch (req->bmRequest & USB_REQ_TYPE_MASK)
 8002b1c:	d059      	beq.n	8002bd2 <USBD_StdEPReq+0xc8>
 8002b1e:	2b40      	cmp	r3, #64	@ 0x40
 8002b20:	d057      	beq.n	8002bd2 <USBD_StdEPReq+0xc8>
 8002b22:	b11b      	cbz	r3, 8002b2c <USBD_StdEPReq+0x22>
              USBD_CtlError(pdev, req);
 8002b24:	4620      	mov	r0, r4
 8002b26:	f7ff fe52 	bl	80027ce <USBD_CtlError.constprop.0>
              break;
 8002b2a:	e03e      	b.n	8002baa <USBD_StdEPReq+0xa0>
      switch (req->bRequest)
 8002b2c:	784b      	ldrb	r3, [r1, #1]
 8002b2e:	2b01      	cmp	r3, #1
 8002b30:	d03d      	beq.n	8002bae <USBD_StdEPReq+0xa4>
 8002b32:	2b03      	cmp	r3, #3
 8002b34:	d026      	beq.n	8002b84 <USBD_StdEPReq+0x7a>
 8002b36:	2b00      	cmp	r3, #0
 8002b38:	d1f4      	bne.n	8002b24 <USBD_StdEPReq+0x1a>
          switch (pdev->dev_state)
 8002b3a:	f890 329c 	ldrb.w	r3, [r0, #668]	@ 0x29c
 8002b3e:	2b02      	cmp	r3, #2
 8002b40:	b2d9      	uxtb	r1, r3
 8002b42:	d062      	beq.n	8002c0a <USBD_StdEPReq+0x100>
 8002b44:	2903      	cmp	r1, #3
 8002b46:	d1ed      	bne.n	8002b24 <USBD_StdEPReq+0x1a>
                if (pdev->ep_in[ep_addr & 0xFU].is_used == 0U)
 8002b48:	f005 030f 	and.w	r3, r5, #15
              if ((ep_addr & 0x80U) == 0x80U)
 8002b4c:	f012 0f80 	tst.w	r2, #128	@ 0x80
 8002b50:	f04f 0214 	mov.w	r2, #20
                if (pdev->ep_in[ep_addr & 0xFU].is_used == 0U)
 8002b54:	fb02 0303 	mla	r3, r2, r3, r0
              if ((ep_addr & 0x80U) == 0x80U)
 8002b58:	d067      	beq.n	8002c2a <USBD_StdEPReq+0x120>
                if (pdev->ep_in[ep_addr & 0xFU].is_used == 0U)
 8002b5a:	f893 3023 	ldrb.w	r3, [r3, #35]	@ 0x23
 8002b5e:	2b00      	cmp	r3, #0
 8002b60:	d0e0      	beq.n	8002b24 <USBD_StdEPReq+0x1a>
              pep = ((ep_addr & 0x80U) == 0x80U) ? &pdev->ep_in[ep_addr & 0x7FU] : \
 8002b62:	f005 067f 	and.w	r6, r5, #127	@ 0x7f
 8002b66:	3601      	adds	r6, #1
 8002b68:	eb06 0686 	add.w	r6, r6, r6, lsl #2
              if ((ep_addr == 0x00U) || (ep_addr == 0x80U))
 8002b6c:	2d80      	cmp	r5, #128	@ 0x80
              pep = ((ep_addr & 0x80U) == 0x80U) ? &pdev->ep_in[ep_addr & 0x7FU] : \
 8002b6e:	eb00 0686 	add.w	r6, r0, r6, lsl #2
              if ((ep_addr == 0x00U) || (ep_addr == 0x80U))
 8002b72:	d066      	beq.n	8002c42 <USBD_StdEPReq+0x138>
              else if (USBD_LL_IsStallEP(pdev, ep_addr) != 0U)
 8002b74:	4629      	mov	r1, r5
 8002b76:	4620      	mov	r0, r4
 8002b78:	f000 fd26 	bl	80035c8 <USBD_LL_IsStallEP>
 8002b7c:	2800      	cmp	r0, #0
 8002b7e:	d066      	beq.n	8002c4e <USBD_StdEPReq+0x144>
                pep->status = 0x0001U;
 8002b80:	2301      	movs	r3, #1
 8002b82:	e05f      	b.n	8002c44 <USBD_StdEPReq+0x13a>
          switch (pdev->dev_state)
 8002b84:	f890 329c 	ldrb.w	r3, [r0, #668]	@ 0x29c
 8002b88:	2b02      	cmp	r3, #2
 8002b8a:	b2da      	uxtb	r2, r3
 8002b8c:	d033      	beq.n	8002bf6 <USBD_StdEPReq+0xec>
 8002b8e:	2a03      	cmp	r2, #3
 8002b90:	d1c8      	bne.n	8002b24 <USBD_StdEPReq+0x1a>
              if (req->wValue == USB_FEATURE_EP_HALT)
 8002b92:	884b      	ldrh	r3, [r1, #2]
 8002b94:	b933      	cbnz	r3, 8002ba4 <USBD_StdEPReq+0x9a>
                if ((ep_addr != 0x00U) && (ep_addr != 0x80U) && (req->wLength == 0x00U))
 8002b96:	0669      	lsls	r1, r5, #25
 8002b98:	d004      	beq.n	8002ba4 <USBD_StdEPReq+0x9a>
 8002b9a:	88f3      	ldrh	r3, [r6, #6]
 8002b9c:	b913      	cbnz	r3, 8002ba4 <USBD_StdEPReq+0x9a>
                  (void)USBD_LL_StallEP(pdev, ep_addr);
 8002b9e:	4629      	mov	r1, r5
 8002ba0:	f000 fd51 	bl	8003646 <USBD_LL_StallEP>
              (void)USBD_CtlSendStatus(pdev);
 8002ba4:	4620      	mov	r0, r4
 8002ba6:	f000 f8b5 	bl	8002d14 <USBD_CtlSendStatus>
}
 8002baa:	2000      	movs	r0, #0
 8002bac:	bd70      	pop	{r4, r5, r6, pc}
          switch (pdev->dev_state)
 8002bae:	f890 329c 	ldrb.w	r3, [r0, #668]	@ 0x29c
 8002bb2:	2b02      	cmp	r3, #2
 8002bb4:	b2da      	uxtb	r2, r3
 8002bb6:	d01e      	beq.n	8002bf6 <USBD_StdEPReq+0xec>
 8002bb8:	2a03      	cmp	r2, #3
 8002bba:	d1b3      	bne.n	8002b24 <USBD_StdEPReq+0x1a>
              if (req->wValue == USB_FEATURE_EP_HALT)
 8002bbc:	884b      	ldrh	r3, [r1, #2]
 8002bbe:	2b00      	cmp	r3, #0
 8002bc0:	d1f3      	bne.n	8002baa <USBD_StdEPReq+0xa0>
                if ((ep_addr & 0x7FU) != 0x00U)
 8002bc2:	066b      	lsls	r3, r5, #25
 8002bc4:	d002      	beq.n	8002bcc <USBD_StdEPReq+0xc2>
                  (void)USBD_LL_ClearStallEP(pdev, ep_addr);
 8002bc6:	4629      	mov	r1, r5
 8002bc8:	f000 fd46 	bl	8003658 <USBD_LL_ClearStallEP>
                (void)USBD_CtlSendStatus(pdev);
 8002bcc:	4620      	mov	r0, r4
 8002bce:	f000 f8a1 	bl	8002d14 <USBD_CtlSendStatus>
                idx = USBD_CoreFindEP(pdev, ep_addr);
 8002bd2:	4629      	mov	r1, r5
 8002bd4:	4620      	mov	r0, r4
 8002bd6:	f7ff fde6 	bl	80027a6 <USBD_CoreFindEP>
                if (((uint8_t)idx != 0xFFU) && (idx < USBD_MAX_SUPPORTED_CLASS))
 8002bda:	2800      	cmp	r0, #0
 8002bdc:	d1e5      	bne.n	8002baa <USBD_StdEPReq+0xa0>
                  if (pdev->pClass[idx]->Setup != NULL)
 8002bde:	f8d4 32b8 	ldr.w	r3, [r4, #696]	@ 0x2b8
                  pdev->classId = idx;
 8002be2:	f8c4 02d4 	str.w	r0, [r4, #724]	@ 0x2d4
                  if (pdev->pClass[idx]->Setup != NULL)
 8002be6:	689b      	ldr	r3, [r3, #8]
 8002be8:	2b00      	cmp	r3, #0
 8002bea:	d0de      	beq.n	8002baa <USBD_StdEPReq+0xa0>
                    ret = (USBD_StatusTypeDef)(pdev->pClass[idx]->Setup(pdev, req));
 8002bec:	4631      	mov	r1, r6
 8002bee:	4620      	mov	r0, r4
}
 8002bf0:	e8bd 4070 	ldmia.w	sp!, {r4, r5, r6, lr}
                    ret = (USBD_StatusTypeDef)(pdev->pClass[idx]->Setup(pdev, req));
 8002bf4:	4718      	bx	r3
              if ((ep_addr != 0x00U) && (ep_addr != 0x80U))
 8002bf6:	066a      	lsls	r2, r5, #25
 8002bf8:	d094      	beq.n	8002b24 <USBD_StdEPReq+0x1a>
                (void)USBD_LL_StallEP(pdev, ep_addr);
 8002bfa:	4629      	mov	r1, r5
 8002bfc:	f000 fd23 	bl	8003646 <USBD_LL_StallEP>
                (void)USBD_LL_StallEP(pdev, 0x80U);
 8002c00:	2180      	movs	r1, #128	@ 0x80
 8002c02:	4620      	mov	r0, r4
 8002c04:	f000 fd1f 	bl	8003646 <USBD_LL_StallEP>
 8002c08:	e7cf      	b.n	8002baa <USBD_StdEPReq+0xa0>
              if ((ep_addr != 0x00U) && (ep_addr != 0x80U))
 8002c0a:	0669      	lsls	r1, r5, #25
 8002c0c:	d18a      	bne.n	8002b24 <USBD_StdEPReq+0x1a>
              pep = ((ep_addr & 0x80U) == 0x80U) ? &pdev->ep_in[ep_addr & 0x7FU] : \
 8002c0e:	0613      	lsls	r3, r2, #24
 8002c10:	bf4c      	ite	mi
 8002c12:	f100 0114 	addmi.w	r1, r0, #20
 8002c16:	f500 71aa 	addpl.w	r1, r0, #340	@ 0x154
              pep->status = 0x0000U;
 8002c1a:	2300      	movs	r3, #0
 8002c1c:	f801 3f0e 	strb.w	r3, [r1, #14]!
              (void)USBD_CtlSendData(pdev, (uint8_t *)&pep->status, 2U);
 8002c20:	2202      	movs	r2, #2
              (void)USBD_CtlSendData(pdev, (uint8_t *)&pep->status, 2U);
 8002c22:	4620      	mov	r0, r4
 8002c24:	f000 f847 	bl	8002cb6 <USBD_CtlSendData>
              break;
 8002c28:	e7bf      	b.n	8002baa <USBD_StdEPReq+0xa0>
                if (pdev->ep_out[ep_addr & 0xFU].is_used == 0U)
 8002c2a:	f893 3163 	ldrb.w	r3, [r3, #355]	@ 0x163
 8002c2e:	2b00      	cmp	r3, #0
 8002c30:	f43f af78 	beq.w	8002b24 <USBD_StdEPReq+0x1a>
              pep = ((ep_addr & 0x80U) == 0x80U) ? &pdev->ep_in[ep_addr & 0x7FU] : \
 8002c34:	2614      	movs	r6, #20
 8002c36:	fb06 0605 	mla	r6, r6, r5, r0
 8002c3a:	f506 76aa 	add.w	r6, r6, #340	@ 0x154
              if ((ep_addr == 0x00U) || (ep_addr == 0x80U))
 8002c3e:	2d00      	cmp	r5, #0
 8002c40:	d198      	bne.n	8002b74 <USBD_StdEPReq+0x6a>
                pep->status = 0x0000U;
 8002c42:	2300      	movs	r3, #0
                pep->status = 0x0001U;
 8002c44:	73b3      	strb	r3, [r6, #14]
              (void)USBD_CtlSendData(pdev, (uint8_t *)&pep->status, 2U);
 8002c46:	2202      	movs	r2, #2
 8002c48:	f106 010e 	add.w	r1, r6, #14
 8002c4c:	e7e9      	b.n	8002c22 <USBD_StdEPReq+0x118>
                pep->status = 0x0000U;
 8002c4e:	73b0      	strb	r0, [r6, #14]
 8002c50:	e7f9      	b.n	8002c46 <USBD_StdEPReq+0x13c>

08002c52 <USBD_ParseSetupRequest>:
  req->bmRequest = *(uint8_t *)(pbuff);
 8002c52:	780b      	ldrb	r3, [r1, #0]
 8002c54:	7003      	strb	r3, [r0, #0]
  req->bRequest = *(uint8_t *)(pbuff);
 8002c56:	784b      	ldrb	r3, [r1, #1]
 8002c58:	7043      	strb	r3, [r0, #1]
  req->wValue = SWAPBYTE(pbuff);
 8002c5a:	884b      	ldrh	r3, [r1, #2]
 8002c5c:	8043      	strh	r3, [r0, #2]
  req->wIndex = SWAPBYTE(pbuff);
 8002c5e:	888b      	ldrh	r3, [r1, #4]
 8002c60:	8083      	strh	r3, [r0, #4]
  req->wLength = SWAPBYTE(pbuff);
 8002c62:	88cb      	ldrh	r3, [r1, #6]
 8002c64:	80c3      	strh	r3, [r0, #6]
}
 8002c66:	4770      	bx	lr

08002c68 <USBD_CtlError>:
{
 8002c68:	b510      	push	{r4, lr}
  (void)USBD_LL_StallEP(pdev, 0x80U);
 8002c6a:	2180      	movs	r1, #128	@ 0x80
{
 8002c6c:	4604      	mov	r4, r0
  (void)USBD_LL_StallEP(pdev, 0x80U);
 8002c6e:	f000 fcea 	bl	8003646 <USBD_LL_StallEP>
  (void)USBD_LL_StallEP(pdev, 0U);
 8002c72:	4620      	mov	r0, r4
 8002c74:	2100      	movs	r1, #0
}
 8002c76:	e8bd 4010 	ldmia.w	sp!, {r4, lr}
  (void)USBD_LL_StallEP(pdev, 0U);
 8002c7a:	f000 bce4 	b.w	8003646 <USBD_LL_StallEP>

08002c7e <USBD_GetString>:
  * @param  unicode : Formatted string buffer (unicode)
  * @param  len : descriptor length
  * @retval None
  */
void USBD_GetString(uint8_t *desc, uint8_t *unicode, uint16_t *len)
{
 8002c7e:	b570      	push	{r4, r5, r6, lr}
 8002c80:	460d      	mov	r5, r1
 8002c82:	4616      	mov	r6, r2
  uint8_t idx = 0U;
  uint8_t *pdesc;

  if (desc == NULL)
 8002c84:	4604      	mov	r4, r0
 8002c86:	b170      	cbz	r0, 8002ca6 <USBD_GetString+0x28>
static uint8_t USBD_GetLen(uint8_t *buf)
{
  uint8_t  len = 0U;
  uint8_t *pbuff = buf;

  while (*pbuff != (uint8_t)'\0')
 8002c88:	f7fd fab4 	bl	80001f4 <strlen>
  *len = MIN(USBD_MAX_STR_DESC_SIZ, ((uint16_t)USBD_GetLen(pdesc) * 2U) + 2U);
 8002c8c:	b2c3      	uxtb	r3, r0
 8002c8e:	3301      	adds	r3, #1
 8002c90:	005b      	lsls	r3, r3, #1
 8002c92:	8033      	strh	r3, [r6, #0]
  unicode[idx] = *(uint8_t *)len;
 8002c94:	702b      	strb	r3, [r5, #0]
  unicode[idx] = USB_DESC_TYPE_STRING;
 8002c96:	2303      	movs	r3, #3
 8002c98:	706b      	strb	r3, [r5, #1]
  while (*pdesc != (uint8_t)'\0')
 8002c9a:	3c01      	subs	r4, #1
  idx++;
 8002c9c:	2302      	movs	r3, #2
    unicode[idx] = 0U;
 8002c9e:	2100      	movs	r1, #0
  while (*pdesc != (uint8_t)'\0')
 8002ca0:	f814 2f01 	ldrb.w	r2, [r4, #1]!
 8002ca4:	b902      	cbnz	r2, 8002ca8 <USBD_GetString+0x2a>
}
 8002ca6:	bd70      	pop	{r4, r5, r6, pc}
    unicode[idx] = *pdesc;
 8002ca8:	54ea      	strb	r2, [r5, r3]
    idx++;
 8002caa:	1c5a      	adds	r2, r3, #1
    unicode[idx] = 0U;
 8002cac:	b2d2      	uxtb	r2, r2
    idx++;
 8002cae:	3302      	adds	r3, #2
    unicode[idx] = 0U;
 8002cb0:	54a9      	strb	r1, [r5, r2]
    idx++;
 8002cb2:	b2db      	uxtb	r3, r3
 8002cb4:	e7f4      	b.n	8002ca0 <USBD_GetString+0x22>

08002cb6 <USBD_CtlSendData>:
  * @param  len: length of data to be sent
  * @retval status
  */
USBD_StatusTypeDef USBD_CtlSendData(USBD_HandleTypeDef *pdev,
                                    uint8_t *pbuf, uint32_t len)
{
 8002cb6:	b510      	push	{r4, lr}
 8002cb8:	4613      	mov	r3, r2
  /* Set EP0 State */
  pdev->ep0_state = USBD_EP0_DATA_IN;
 8002cba:	2202      	movs	r2, #2
 8002cbc:	f8c0 2294 	str.w	r2, [r0, #660]	@ 0x294
  pdev->ep_in[0].total_length = len;
 8002cc0:	6143      	str	r3, [r0, #20]
#else
  pdev->ep_in[0].rem_length = len;
#endif /* USBD_AVOID_PACKET_SPLIT_MPS */

  /* Start the transfer */
  (void)USBD_LL_Transmit(pdev, 0x00U, pbuf, len);
 8002cc2:	460a      	mov	r2, r1
  pdev->ep_in[0].pbuffer = pbuf;
 8002cc4:	6241      	str	r1, [r0, #36]	@ 0x24
  pdev->ep_in[0].rem_length = len;
 8002cc6:	6183      	str	r3, [r0, #24]
  (void)USBD_LL_Transmit(pdev, 0x00U, pbuf, len);
 8002cc8:	2100      	movs	r1, #0
 8002cca:	f000 fcd7 	bl	800367c <USBD_LL_Transmit>

  return USBD_OK;
}
 8002cce:	2000      	movs	r0, #0
 8002cd0:	bd10      	pop	{r4, pc}

08002cd2 <USBD_CtlContinueSendData>:
  * @param  len: length of data to be sent
  * @retval status
  */
USBD_StatusTypeDef USBD_CtlContinueSendData(USBD_HandleTypeDef *pdev,
                                            uint8_t *pbuf, uint32_t len)
{
 8002cd2:	b508      	push	{r3, lr}
 8002cd4:	4613      	mov	r3, r2
  /* Start the next transfer */
  (void)USBD_LL_Transmit(pdev, 0x00U, pbuf, len);
 8002cd6:	460a      	mov	r2, r1
 8002cd8:	2100      	movs	r1, #0
 8002cda:	f000 fccf 	bl	800367c <USBD_LL_Transmit>

  return USBD_OK;
}
 8002cde:	2000      	movs	r0, #0
 8002ce0:	bd08      	pop	{r3, pc}

08002ce2 <USBD_CtlPrepareRx>:
  * @param  len: length of data to be received
  * @retval status
  */
USBD_StatusTypeDef USBD_CtlPrepareRx(USBD_HandleTypeDef *pdev,
                                     uint8_t *pbuf, uint32_t len)
{
 8002ce2:	b510      	push	{r4, lr}
 8002ce4:	4613      	mov	r3, r2
  /* Set EP0 State */
  pdev->ep0_state = USBD_EP0_DATA_OUT;
 8002ce6:	2203      	movs	r2, #3
 8002ce8:	f8c0 2294 	str.w	r2, [r0, #660]	@ 0x294
  pdev->ep_out[0].total_length = len;
 8002cec:	f8c0 3154 	str.w	r3, [r0, #340]	@ 0x154
#else
  pdev->ep_out[0].rem_length = len;
#endif /* USBD_AVOID_PACKET_SPLIT_MPS */

  /* Start the transfer */
  (void)USBD_LL_PrepareReceive(pdev, 0U, pbuf, len);
 8002cf0:	460a      	mov	r2, r1
  pdev->ep_out[0].pbuffer = pbuf;
 8002cf2:	f8c0 1164 	str.w	r1, [r0, #356]	@ 0x164
  pdev->ep_out[0].rem_length = len;
 8002cf6:	f8c0 3158 	str.w	r3, [r0, #344]	@ 0x158
  (void)USBD_LL_PrepareReceive(pdev, 0U, pbuf, len);
 8002cfa:	2100      	movs	r1, #0
 8002cfc:	f000 fcc7 	bl	800368e <USBD_LL_PrepareReceive>

  return USBD_OK;
}
 8002d00:	2000      	movs	r0, #0
 8002d02:	bd10      	pop	{r4, pc}

08002d04 <USBD_CtlContinueRx>:
  * @param  len: length of data to be received
  * @retval status
  */
USBD_StatusTypeDef USBD_CtlContinueRx(USBD_HandleTypeDef *pdev,
                                      uint8_t *pbuf, uint32_t len)
{
 8002d04:	b508      	push	{r3, lr}
 8002d06:	4613      	mov	r3, r2
  (void)USBD_LL_PrepareReceive(pdev, 0U, pbuf, len);
 8002d08:	460a      	mov	r2, r1
 8002d0a:	2100      	movs	r1, #0
 8002d0c:	f000 fcbf 	bl	800368e <USBD_LL_PrepareReceive>

  return USBD_OK;
}
 8002d10:	2000      	movs	r0, #0
 8002d12:	bd08      	pop	{r3, pc}

08002d14 <USBD_CtlSendStatus>:
  *         send zero lzngth packet on the ctl pipe
  * @param  pdev: device instance
  * @retval status
  */
USBD_StatusTypeDef USBD_CtlSendStatus(USBD_HandleTypeDef *pdev)
{
 8002d14:	b508      	push	{r3, lr}
  /* Set EP0 State */
  pdev->ep0_state = USBD_EP0_STATUS_IN;
 8002d16:	2204      	movs	r2, #4

  /* Start the transfer */
  (void)USBD_LL_Transmit(pdev, 0x00U, NULL, 0U);
 8002d18:	2300      	movs	r3, #0
  pdev->ep0_state = USBD_EP0_STATUS_IN;
 8002d1a:	f8c0 2294 	str.w	r2, [r0, #660]	@ 0x294
  (void)USBD_LL_Transmit(pdev, 0x00U, NULL, 0U);
 8002d1e:	4619      	mov	r1, r3
 8002d20:	461a      	mov	r2, r3
 8002d22:	f000 fcab 	bl	800367c <USBD_LL_Transmit>

  return USBD_OK;
}
 8002d26:	2000      	movs	r0, #0
 8002d28:	bd08      	pop	{r3, pc}

08002d2a <USBD_CtlReceiveStatus>:
  *         receive zero lzngth packet on the ctl pipe
  * @param  pdev: device instance
  * @retval status
  */
USBD_StatusTypeDef USBD_CtlReceiveStatus(USBD_HandleTypeDef *pdev)
{
 8002d2a:	b508      	push	{r3, lr}
  /* Set EP0 State */
  pdev->ep0_state = USBD_EP0_STATUS_OUT;
 8002d2c:	2205      	movs	r2, #5

  /* Start the transfer */
  (void)USBD_LL_PrepareReceive(pdev, 0U, NULL, 0U);
 8002d2e:	2300      	movs	r3, #0
  pdev->ep0_state = USBD_EP0_STATUS_OUT;
 8002d30:	f8c0 2294 	str.w	r2, [r0, #660]	@ 0x294
  (void)USBD_LL_PrepareReceive(pdev, 0U, NULL, 0U);
 8002d34:	4619      	mov	r1, r3
 8002d36:	461a      	mov	r2, r3
 8002d38:	f000 fca9 	bl	800368e <USBD_LL_PrepareReceive>

  return USBD_OK;
}
 8002d3c:	2000      	movs	r0, #0
 8002d3e:	bd08      	pop	{r3, pc}

08002d40 <USBD_CDC_EP0_RxReady>:
  * @param  pdev: device instance
  * @retval status
  */
static uint8_t USBD_CDC_EP0_RxReady(USBD_HandleTypeDef *pdev)
{
  USBD_CDC_HandleTypeDef *hcdc = (USBD_CDC_HandleTypeDef *)pdev->pClassDataCmsit[pdev->classId];
 8002d40:	f8d0 32d4 	ldr.w	r3, [r0, #724]	@ 0x2d4
 8002d44:	eb00 0083 	add.w	r0, r0, r3, lsl #2
{
 8002d48:	b510      	push	{r4, lr}
  USBD_CDC_HandleTypeDef *hcdc = (USBD_CDC_HandleTypeDef *)pdev->pClassDataCmsit[pdev->classId];
 8002d4a:	f8d0 42c0 	ldr.w	r4, [r0, #704]	@ 0x2c0

  if (hcdc == NULL)
 8002d4e:	b18c      	cbz	r4, 8002d74 <USBD_CDC_EP0_RxReady+0x34>
  {
    return (uint8_t)USBD_FAIL;
  }

  if ((pdev->pUserData[pdev->classId] != NULL) && (hcdc->CmdOpCode != 0xFFU))
 8002d50:	f8d0 32c4 	ldr.w	r3, [r0, #708]	@ 0x2c4
 8002d54:	b11b      	cbz	r3, 8002d5e <USBD_CDC_EP0_RxReady+0x1e>
 8002d56:	f894 0200 	ldrb.w	r0, [r4, #512]	@ 0x200
 8002d5a:	28ff      	cmp	r0, #255	@ 0xff
 8002d5c:	d101      	bne.n	8002d62 <USBD_CDC_EP0_RxReady+0x22>
                                                                     (uint8_t *)hcdc->data,
                                                                     (uint16_t)hcdc->CmdLength);
    hcdc->CmdOpCode = 0xFFU;
  }

  return (uint8_t)USBD_OK;
 8002d5e:	2000      	movs	r0, #0
}
 8002d60:	bd10      	pop	{r4, pc}
    ((USBD_CDC_ItfTypeDef *)pdev->pUserData[pdev->classId])->Control(hcdc->CmdOpCode,
 8002d62:	689b      	ldr	r3, [r3, #8]
 8002d64:	f894 2201 	ldrb.w	r2, [r4, #513]	@ 0x201
 8002d68:	4621      	mov	r1, r4
 8002d6a:	4798      	blx	r3
    hcdc->CmdOpCode = 0xFFU;
 8002d6c:	23ff      	movs	r3, #255	@ 0xff
 8002d6e:	f884 3200 	strb.w	r3, [r4, #512]	@ 0x200
 8002d72:	e7f4      	b.n	8002d5e <USBD_CDC_EP0_RxReady+0x1e>
    return (uint8_t)USBD_FAIL;
 8002d74:	2003      	movs	r0, #3
 8002d76:	e7f3      	b.n	8002d60 <USBD_CDC_EP0_RxReady+0x20>

08002d78 <USBD_CDC_GetDeviceQualifierDescriptor>:
  * @param  length : pointer data length
  * @retval pointer to descriptor buffer
  */
uint8_t *USBD_CDC_GetDeviceQualifierDescriptor(uint16_t *length)
{
  *length = (uint16_t)sizeof(USBD_CDC_DeviceQualifierDesc);
 8002d78:	230a      	movs	r3, #10
 8002d7a:	8003      	strh	r3, [r0, #0]

  return USBD_CDC_DeviceQualifierDesc;
}
 8002d7c:	4800      	ldr	r0, [pc, #0]	@ (8002d80 <USBD_CDC_GetDeviceQualifierDescriptor+0x8>)
 8002d7e:	4770      	bx	lr
 8002d80:	20000094 	.word	0x20000094

08002d84 <USBD_CDC_GetFSCfgDesc>:
{
 8002d84:	b570      	push	{r4, r5, r6, lr}
  USBD_EpDescTypeDef *pEpCmdDesc = USBD_GetEpDesc(USBD_CDC_CfgDesc, CDC_CMD_EP);
 8002d86:	2182      	movs	r1, #130	@ 0x82
{
 8002d88:	4606      	mov	r6, r0
  USBD_EpDescTypeDef *pEpCmdDesc = USBD_GetEpDesc(USBD_CDC_CfgDesc, CDC_CMD_EP);
 8002d8a:	480f      	ldr	r0, [pc, #60]	@ (8002dc8 <USBD_CDC_GetFSCfgDesc+0x44>)
 8002d8c:	f7ff fd0d 	bl	80027aa <USBD_GetEpDesc>
  USBD_EpDescTypeDef *pEpOutDesc = USBD_GetEpDesc(USBD_CDC_CfgDesc, CDC_OUT_EP);
 8002d90:	2101      	movs	r1, #1
  USBD_EpDescTypeDef *pEpCmdDesc = USBD_GetEpDesc(USBD_CDC_CfgDesc, CDC_CMD_EP);
 8002d92:	4605      	mov	r5, r0
  USBD_EpDescTypeDef *pEpOutDesc = USBD_GetEpDesc(USBD_CDC_CfgDesc, CDC_OUT_EP);
 8002d94:	480c      	ldr	r0, [pc, #48]	@ (8002dc8 <USBD_CDC_GetFSCfgDesc+0x44>)
 8002d96:	f7ff fd08 	bl	80027aa <USBD_GetEpDesc>
  USBD_EpDescTypeDef *pEpInDesc = USBD_GetEpDesc(USBD_CDC_CfgDesc, CDC_IN_EP);
 8002d9a:	2181      	movs	r1, #129	@ 0x81
  USBD_EpDescTypeDef *pEpOutDesc = USBD_GetEpDesc(USBD_CDC_CfgDesc, CDC_OUT_EP);
 8002d9c:	4604      	mov	r4, r0
  USBD_EpDescTypeDef *pEpInDesc = USBD_GetEpDesc(USBD_CDC_CfgDesc, CDC_IN_EP);
 8002d9e:	480a      	ldr	r0, [pc, #40]	@ (8002dc8 <USBD_CDC_GetFSCfgDesc+0x44>)
 8002da0:	f7ff fd03 	bl	80027aa <USBD_GetEpDesc>
  if (pEpCmdDesc != NULL)
 8002da4:	b10d      	cbz	r5, 8002daa <USBD_CDC_GetFSCfgDesc+0x26>
    pEpCmdDesc->bInterval = CDC_FS_BINTERVAL;
 8002da6:	2210      	movs	r2, #16
 8002da8:	71aa      	strb	r2, [r5, #6]
  if (pEpOutDesc != NULL)
 8002daa:	b11c      	cbz	r4, 8002db4 <USBD_CDC_GetFSCfgDesc+0x30>
    pEpOutDesc->wMaxPacketSize = CDC_DATA_FS_MAX_PACKET_SIZE;
 8002dac:	2240      	movs	r2, #64	@ 0x40
 8002dae:	7122      	strb	r2, [r4, #4]
 8002db0:	2200      	movs	r2, #0
 8002db2:	7162      	strb	r2, [r4, #5]
  if (pEpInDesc != NULL)
 8002db4:	b118      	cbz	r0, 8002dbe <USBD_CDC_GetFSCfgDesc+0x3a>
    pEpInDesc->wMaxPacketSize = CDC_DATA_FS_MAX_PACKET_SIZE;
 8002db6:	2240      	movs	r2, #64	@ 0x40
 8002db8:	7102      	strb	r2, [r0, #4]
 8002dba:	2200      	movs	r2, #0
 8002dbc:	7142      	strb	r2, [r0, #5]
  *length = (uint16_t)sizeof(USBD_CDC_CfgDesc);
 8002dbe:	2343      	movs	r3, #67	@ 0x43
}
 8002dc0:	4801      	ldr	r0, [pc, #4]	@ (8002dc8 <USBD_CDC_GetFSCfgDesc+0x44>)
  *length = (uint16_t)sizeof(USBD_CDC_CfgDesc);
 8002dc2:	8033      	strh	r3, [r6, #0]
}
 8002dc4:	bd70      	pop	{r4, r5, r6, pc}
 8002dc6:	bf00      	nop
 8002dc8:	20000018 	.word	0x20000018

08002dcc <USBD_CDC_GetOtherSpeedCfgDesc>:
static uint8_t *USBD_CDC_GetOtherSpeedCfgDesc(uint16_t *length)
 8002dcc:	f7ff bfda 	b.w	8002d84 <USBD_CDC_GetFSCfgDesc>

08002dd0 <USBD_CDC_GetHSCfgDesc>:
{
 8002dd0:	b570      	push	{r4, r5, r6, lr}
  USBD_EpDescTypeDef *pEpCmdDesc = USBD_GetEpDesc(USBD_CDC_CfgDesc, CDC_CMD_EP);
 8002dd2:	2182      	movs	r1, #130	@ 0x82
{
 8002dd4:	4606      	mov	r6, r0
  USBD_EpDescTypeDef *pEpCmdDesc = USBD_GetEpDesc(USBD_CDC_CfgDesc, CDC_CMD_EP);
 8002dd6:	480f      	ldr	r0, [pc, #60]	@ (8002e14 <USBD_CDC_GetHSCfgDesc+0x44>)
 8002dd8:	f7ff fce7 	bl	80027aa <USBD_GetEpDesc>
  USBD_EpDescTypeDef *pEpOutDesc = USBD_GetEpDesc(USBD_CDC_CfgDesc, CDC_OUT_EP);
 8002ddc:	2101      	movs	r1, #1
  USBD_EpDescTypeDef *pEpCmdDesc = USBD_GetEpDesc(USBD_CDC_CfgDesc, CDC_CMD_EP);
 8002dde:	4605      	mov	r5, r0
  USBD_EpDescTypeDef *pEpOutDesc = USBD_GetEpDesc(USBD_CDC_CfgDesc, CDC_OUT_EP);
 8002de0:	480c      	ldr	r0, [pc, #48]	@ (8002e14 <USBD_CDC_GetHSCfgDesc+0x44>)
 8002de2:	f7ff fce2 	bl	80027aa <USBD_GetEpDesc>
  USBD_EpDescTypeDef *pEpInDesc = USBD_GetEpDesc(USBD_CDC_CfgDesc, CDC_IN_EP);
 8002de6:	2181      	movs	r1, #129	@ 0x81
  USBD_EpDescTypeDef *pEpOutDesc = USBD_GetEpDesc(USBD_CDC_CfgDesc, CDC_OUT_EP);
 8002de8:	4604      	mov	r4, r0
  USBD_EpDescTypeDef *pEpInDesc = USBD_GetEpDesc(USBD_CDC_CfgDesc, CDC_IN_EP);
 8002dea:	480a      	ldr	r0, [pc, #40]	@ (8002e14 <USBD_CDC_GetHSCfgDesc+0x44>)
 8002dec:	f7ff fcdd 	bl	80027aa <USBD_GetEpDesc>
  if (pEpCmdDesc != NULL)
 8002df0:	b10d      	cbz	r5, 8002df6 <USBD_CDC_GetHSCfgDesc+0x26>
    pEpCmdDesc->bInterval = CDC_HS_BINTERVAL;
 8002df2:	2210      	movs	r2, #16
 8002df4:	71aa      	strb	r2, [r5, #6]
  if (pEpOutDesc != NULL)
 8002df6:	b11c      	cbz	r4, 8002e00 <USBD_CDC_GetHSCfgDesc+0x30>
    pEpOutDesc->wMaxPacketSize = CDC_DATA_HS_MAX_PACKET_SIZE;
 8002df8:	2200      	movs	r2, #0
 8002dfa:	7122      	strb	r2, [r4, #4]
 8002dfc:	2202      	movs	r2, #2
 8002dfe:	7162      	strb	r2, [r4, #5]
  if (pEpInDesc != NULL)
 8002e00:	b118      	cbz	r0, 8002e0a <USBD_CDC_GetHSCfgDesc+0x3a>
    pEpInDesc->wMaxPacketSize = CDC_DATA_HS_MAX_PACKET_SIZE;
 8002e02:	2200      	movs	r2, #0
 8002e04:	7102      	strb	r2, [r0, #4]
 8002e06:	2202      	movs	r2, #2
 8002e08:	7142      	strb	r2, [r0, #5]
  *length = (uint16_t)sizeof(USBD_CDC_CfgDesc);
 8002e0a:	2343      	movs	r3, #67	@ 0x43
}
 8002e0c:	4801      	ldr	r0, [pc, #4]	@ (8002e14 <USBD_CDC_GetHSCfgDesc+0x44>)
  *length = (uint16_t)sizeof(USBD_CDC_CfgDesc);
 8002e0e:	8033      	strh	r3, [r6, #0]
}
 8002e10:	bd70      	pop	{r4, r5, r6, pc}
 8002e12:	bf00      	nop
 8002e14:	20000018 	.word	0x20000018

08002e18 <USBD_CDC_DataOut>:
{
 8002e18:	b538      	push	{r3, r4, r5, lr}
  USBD_CDC_HandleTypeDef *hcdc = (USBD_CDC_HandleTypeDef *)pdev->pClassDataCmsit[pdev->classId];
 8002e1a:	f8d0 32d4 	ldr.w	r3, [r0, #724]	@ 0x2d4
 8002e1e:	33b0      	adds	r3, #176	@ 0xb0
{
 8002e20:	4604      	mov	r4, r0
  USBD_CDC_HandleTypeDef *hcdc = (USBD_CDC_HandleTypeDef *)pdev->pClassDataCmsit[pdev->classId];
 8002e22:	f850 5023 	ldr.w	r5, [r0, r3, lsl #2]
  if (pdev->pClassDataCmsit[pdev->classId] == NULL)
 8002e26:	b18d      	cbz	r5, 8002e4c <USBD_CDC_DataOut+0x34>
  hcdc->RxLength = USBD_LL_GetRxDataSize(pdev, epnum);
 8002e28:	f000 fbe0 	bl	80035ec <USBD_LL_GetRxDataSize>
  ((USBD_CDC_ItfTypeDef *)pdev->pUserData[pdev->classId])->Receive(hcdc->RxBuffer, &hcdc->RxLength);
 8002e2c:	f8d4 32d4 	ldr.w	r3, [r4, #724]	@ 0x2d4
  hcdc->RxLength = USBD_LL_GetRxDataSize(pdev, epnum);
 8002e30:	f8c5 020c 	str.w	r0, [r5, #524]	@ 0x20c
  ((USBD_CDC_ItfTypeDef *)pdev->pUserData[pdev->classId])->Receive(hcdc->RxBuffer, &hcdc->RxLength);
 8002e34:	eb04 0483 	add.w	r4, r4, r3, lsl #2
 8002e38:	f8d5 0204 	ldr.w	r0, [r5, #516]	@ 0x204
 8002e3c:	f8d4 32c4 	ldr.w	r3, [r4, #708]	@ 0x2c4
 8002e40:	f505 7103 	add.w	r1, r5, #524	@ 0x20c
 8002e44:	68db      	ldr	r3, [r3, #12]
 8002e46:	4798      	blx	r3
  return (uint8_t)USBD_OK;
 8002e48:	2000      	movs	r0, #0
}
 8002e4a:	bd38      	pop	{r3, r4, r5, pc}
    return (uint8_t)USBD_FAIL;
 8002e4c:	2003      	movs	r0, #3
 8002e4e:	e7fc      	b.n	8002e4a <USBD_CDC_DataOut+0x32>

08002e50 <USBD_CDC_DataIn>:
{
 8002e50:	b5f8      	push	{r3, r4, r5, r6, r7, lr}
 8002e52:	f8d0 62d4 	ldr.w	r6, [r0, #724]	@ 0x2d4
  PCD_HandleTypeDef *hpcd = (PCD_HandleTypeDef *)pdev->pData;
 8002e56:	f8d0 72c8 	ldr.w	r7, [r0, #712]	@ 0x2c8
  if (pdev->pClassDataCmsit[pdev->classId] == NULL)
 8002e5a:	eb00 0686 	add.w	r6, r0, r6, lsl #2
{
 8002e5e:	460a      	mov	r2, r1
  if (pdev->pClassDataCmsit[pdev->classId] == NULL)
 8002e60:	f8d6 52c0 	ldr.w	r5, [r6, #704]	@ 0x2c0
 8002e64:	b325      	cbz	r5, 8002eb0 <USBD_CDC_DataIn+0x60>
  if ((pdev->ep_in[epnum & 0xFU].total_length > 0U) &&
 8002e66:	f001 0c0f 	and.w	ip, r1, #15
 8002e6a:	2414      	movs	r4, #20
 8002e6c:	fb04 040c 	mla	r4, r4, ip, r0
 8002e70:	6963      	ldr	r3, [r4, #20]
 8002e72:	b17b      	cbz	r3, 8002e94 <USBD_CDC_DataIn+0x44>
      ((pdev->ep_in[epnum & 0xFU].total_length % hpcd->IN_ep[epnum & 0xFU].maxpacket) == 0U))
 8002e74:	f04f 0e24 	mov.w	lr, #36	@ 0x24
 8002e78:	fb0e 770c 	mla	r7, lr, ip, r7
 8002e7c:	69ff      	ldr	r7, [r7, #28]
 8002e7e:	fbb3 fcf7 	udiv	ip, r3, r7
 8002e82:	fb07 331c 	mls	r3, r7, ip, r3
  if ((pdev->ep_in[epnum & 0xFU].total_length > 0U) &&
 8002e86:	b92b      	cbnz	r3, 8002e94 <USBD_CDC_DataIn+0x44>
    pdev->ep_in[epnum & 0xFU].total_length = 0U;
 8002e88:	6163      	str	r3, [r4, #20]
    (void)USBD_LL_Transmit(pdev, epnum, NULL, 0U);
 8002e8a:	461a      	mov	r2, r3
 8002e8c:	f000 fbf6 	bl	800367c <USBD_LL_Transmit>
  return (uint8_t)USBD_OK;
 8002e90:	2000      	movs	r0, #0
}
 8002e92:	bdf8      	pop	{r3, r4, r5, r6, r7, pc}
    hcdc->TxState = 0U;
 8002e94:	2300      	movs	r3, #0
 8002e96:	f8c5 3214 	str.w	r3, [r5, #532]	@ 0x214
    if (((USBD_CDC_ItfTypeDef *)pdev->pUserData[pdev->classId])->TransmitCplt != NULL)
 8002e9a:	f8d6 32c4 	ldr.w	r3, [r6, #708]	@ 0x2c4
 8002e9e:	691b      	ldr	r3, [r3, #16]
 8002ea0:	2b00      	cmp	r3, #0
 8002ea2:	d0f5      	beq.n	8002e90 <USBD_CDC_DataIn+0x40>
      ((USBD_CDC_ItfTypeDef *)pdev->pUserData[pdev->classId])->TransmitCplt(hcdc->TxBuffer, &hcdc->TxLength, epnum);
 8002ea4:	f8d5 0208 	ldr.w	r0, [r5, #520]	@ 0x208
 8002ea8:	f505 7104 	add.w	r1, r5, #528	@ 0x210
 8002eac:	4798      	blx	r3
 8002eae:	e7ef      	b.n	8002e90 <USBD_CDC_DataIn+0x40>
    return (uint8_t)USBD_FAIL;
 8002eb0:	2003      	movs	r0, #3
 8002eb2:	e7ee      	b.n	8002e92 <USBD_CDC_DataIn+0x42>

08002eb4 <USBD_CDC_Setup>:
  USBD_CDC_HandleTypeDef *hcdc = (USBD_CDC_HandleTypeDef *)pdev->pClassDataCmsit[pdev->classId];
 8002eb4:	f8d0 32d4 	ldr.w	r3, [r0, #724]	@ 0x2d4
{
 8002eb8:	b5f7      	push	{r0, r1, r2, r4, r5, r6, r7, lr}
 8002eba:	eb00 0383 	add.w	r3, r0, r3, lsl #2
  uint8_t ifalt = 0U;
 8002ebe:	2200      	movs	r2, #0
  USBD_CDC_HandleTypeDef *hcdc = (USBD_CDC_HandleTypeDef *)pdev->pClassDataCmsit[pdev->classId];
 8002ec0:	f8d3 62c0 	ldr.w	r6, [r3, #704]	@ 0x2c0
  uint8_t ifalt = 0U;
 8002ec4:	f88d 2005 	strb.w	r2, [sp, #5]
{
 8002ec8:	4604      	mov	r4, r0
 8002eca:	460d      	mov	r5, r1
  uint16_t status_info = 0U;
 8002ecc:	f8ad 2006 	strh.w	r2, [sp, #6]
  if (hcdc == NULL)
 8002ed0:	2e00      	cmp	r6, #0
 8002ed2:	d065      	beq.n	8002fa0 <USBD_CDC_Setup+0xec>
  switch (req->bmRequest & USB_REQ_TYPE_MASK)
 8002ed4:	f891 c000 	ldrb.w	ip, [r1]
 8002ed8:	f01c 0260 	ands.w	r2, ip, #96	@ 0x60
 8002edc:	d029      	beq.n	8002f32 <USBD_CDC_Setup+0x7e>
 8002ede:	2a20      	cmp	r2, #32
 8002ee0:	d15a      	bne.n	8002f98 <USBD_CDC_Setup+0xe4>
      if (req->wLength != 0U)
 8002ee2:	88ca      	ldrh	r2, [r1, #6]
          ((USBD_CDC_ItfTypeDef *)pdev->pUserData[pdev->classId])->Control(req->bRequest,
 8002ee4:	784f      	ldrb	r7, [r1, #1]
      if (req->wLength != 0U)
 8002ee6:	b1f2      	cbz	r2, 8002f26 <USBD_CDC_Setup+0x72>
        if ((req->bmRequest & 0x80U) != 0U)
 8002ee8:	f01c 0f80 	tst.w	ip, #128	@ 0x80
 8002eec:	d00e      	beq.n	8002f0c <USBD_CDC_Setup+0x58>
          ((USBD_CDC_ItfTypeDef *)pdev->pUserData[pdev->classId])->Control(req->bRequest,
 8002eee:	f8d3 32c4 	ldr.w	r3, [r3, #708]	@ 0x2c4
 8002ef2:	4631      	mov	r1, r6
 8002ef4:	689b      	ldr	r3, [r3, #8]
 8002ef6:	4638      	mov	r0, r7
 8002ef8:	4798      	blx	r3
          len = MIN(CDC_REQ_MAX_DATA_SIZE, req->wLength);
 8002efa:	88ea      	ldrh	r2, [r5, #6]
          (void)USBD_CtlSendData(pdev, (uint8_t *)hcdc->data, len);
 8002efc:	2a07      	cmp	r2, #7
 8002efe:	bf28      	it	cs
 8002f00:	2207      	movcs	r2, #7
 8002f02:	4631      	mov	r1, r6
            (void)USBD_CtlSendData(pdev, (uint8_t *)&status_info, 2U);
 8002f04:	4620      	mov	r0, r4
 8002f06:	f7ff fed6 	bl	8002cb6 <USBD_CtlSendData>
 8002f0a:	e009      	b.n	8002f20 <USBD_CDC_Setup+0x6c>
          hcdc->CmdLength = (uint8_t)MIN(req->wLength, USB_MAX_EP0_SIZE);
 8002f0c:	2a40      	cmp	r2, #64	@ 0x40
 8002f0e:	bf28      	it	cs
 8002f10:	2240      	movcs	r2, #64	@ 0x40
          hcdc->CmdOpCode = req->bRequest;
 8002f12:	f886 7200 	strb.w	r7, [r6, #512]	@ 0x200
          hcdc->CmdLength = (uint8_t)MIN(req->wLength, USB_MAX_EP0_SIZE);
 8002f16:	f886 2201 	strb.w	r2, [r6, #513]	@ 0x201
          (void)USBD_CtlPrepareRx(pdev, (uint8_t *)hcdc->data, hcdc->CmdLength);
 8002f1a:	4631      	mov	r1, r6
 8002f1c:	f7ff fee1 	bl	8002ce2 <USBD_CtlPrepareRx>
    return (uint8_t)USBD_FAIL;
 8002f20:	2000      	movs	r0, #0
}
 8002f22:	b003      	add	sp, #12
 8002f24:	bdf0      	pop	{r4, r5, r6, r7, pc}
        ((USBD_CDC_ItfTypeDef *)pdev->pUserData[pdev->classId])->Control(req->bRequest,
 8002f26:	f8d3 32c4 	ldr.w	r3, [r3, #708]	@ 0x2c4
 8002f2a:	4638      	mov	r0, r7
 8002f2c:	689b      	ldr	r3, [r3, #8]
 8002f2e:	4798      	blx	r3
 8002f30:	e7f6      	b.n	8002f20 <USBD_CDC_Setup+0x6c>
      switch (req->bRequest)
 8002f32:	784b      	ldrb	r3, [r1, #1]
 8002f34:	2b0b      	cmp	r3, #11
 8002f36:	d82f      	bhi.n	8002f98 <USBD_CDC_Setup+0xe4>
 8002f38:	a201      	add	r2, pc, #4	@ (adr r2, 8002f40 <USBD_CDC_Setup+0x8c>)
 8002f3a:	f852 f023 	ldr.w	pc, [r2, r3, lsl #2]
 8002f3e:	bf00      	nop
 8002f40:	08002f71 	.word	0x08002f71
 8002f44:	08002f21 	.word	0x08002f21
 8002f48:	08002f99 	.word	0x08002f99
 8002f4c:	08002f99 	.word	0x08002f99
 8002f50:	08002f99 	.word	0x08002f99
 8002f54:	08002f99 	.word	0x08002f99
 8002f58:	08002f99 	.word	0x08002f99
 8002f5c:	08002f99 	.word	0x08002f99
 8002f60:	08002f99 	.word	0x08002f99
 8002f64:	08002f99 	.word	0x08002f99
 8002f68:	08002f81 	.word	0x08002f81
 8002f6c:	08002f91 	.word	0x08002f91
          if (pdev->dev_state == USBD_STATE_CONFIGURED)
 8002f70:	f890 329c 	ldrb.w	r3, [r0, #668]	@ 0x29c
 8002f74:	2b03      	cmp	r3, #3
 8002f76:	d10f      	bne.n	8002f98 <USBD_CDC_Setup+0xe4>
            (void)USBD_CtlSendData(pdev, (uint8_t *)&status_info, 2U);
 8002f78:	2202      	movs	r2, #2
 8002f7a:	f10d 0106 	add.w	r1, sp, #6
 8002f7e:	e7c1      	b.n	8002f04 <USBD_CDC_Setup+0x50>
          if (pdev->dev_state == USBD_STATE_CONFIGURED)
 8002f80:	f890 329c 	ldrb.w	r3, [r0, #668]	@ 0x29c
 8002f84:	2b03      	cmp	r3, #3
 8002f86:	d107      	bne.n	8002f98 <USBD_CDC_Setup+0xe4>
            (void)USBD_CtlSendData(pdev, &ifalt, 1U);
 8002f88:	2201      	movs	r2, #1
 8002f8a:	f10d 0105 	add.w	r1, sp, #5
 8002f8e:	e7b9      	b.n	8002f04 <USBD_CDC_Setup+0x50>
          if (pdev->dev_state != USBD_STATE_CONFIGURED)
 8002f90:	f890 329c 	ldrb.w	r3, [r0, #668]	@ 0x29c
 8002f94:	2b03      	cmp	r3, #3
 8002f96:	d0c3      	beq.n	8002f20 <USBD_CDC_Setup+0x6c>
          USBD_CtlError(pdev, req);
 8002f98:	4629      	mov	r1, r5
 8002f9a:	4620      	mov	r0, r4
 8002f9c:	f7ff fe64 	bl	8002c68 <USBD_CtlError>
    return (uint8_t)USBD_FAIL;
 8002fa0:	2003      	movs	r0, #3
 8002fa2:	e7be      	b.n	8002f22 <USBD_CDC_Setup+0x6e>

08002fa4 <USBD_CDC_DeInit>:
{
 8002fa4:	b538      	push	{r3, r4, r5, lr}
 8002fa6:	4604      	mov	r4, r0
  pdev->ep_in[CDCInEpAdd & 0xFU].is_used = 0U;
 8002fa8:	2500      	movs	r5, #0
  (void)USBD_LL_CloseEP(pdev, CDCInEpAdd);
 8002faa:	2181      	movs	r1, #129	@ 0x81
 8002fac:	f000 fb42 	bl	8003634 <USBD_LL_CloseEP>
  (void)USBD_LL_CloseEP(pdev, CDCOutEpAdd);
 8002fb0:	2101      	movs	r1, #1
  pdev->ep_in[CDCInEpAdd & 0xFU].is_used = 0U;
 8002fb2:	f884 5037 	strb.w	r5, [r4, #55]	@ 0x37
  (void)USBD_LL_CloseEP(pdev, CDCOutEpAdd);
 8002fb6:	4620      	mov	r0, r4
 8002fb8:	f000 fb3c 	bl	8003634 <USBD_LL_CloseEP>
  pdev->ep_out[CDCOutEpAdd & 0xFU].is_used = 0U;
 8002fbc:	f884 5177 	strb.w	r5, [r4, #375]	@ 0x177
  (void)USBD_LL_CloseEP(pdev, CDCCmdEpAdd);
 8002fc0:	2182      	movs	r1, #130	@ 0x82
 8002fc2:	4620      	mov	r0, r4
 8002fc4:	f000 fb36 	bl	8003634 <USBD_LL_CloseEP>
  pdev->ep_in[CDCCmdEpAdd & 0xFU].is_used = 0U;
 8002fc8:	f8d4 32d4 	ldr.w	r3, [r4, #724]	@ 0x2d4
 8002fcc:	f884 504b 	strb.w	r5, [r4, #75]	@ 0x4b
  pdev->ep_in[CDCCmdEpAdd & 0xFU].bInterval = 0U;
 8002fd0:	eb04 0383 	add.w	r3, r4, r3, lsl #2
 8002fd4:	6465      	str	r5, [r4, #68]	@ 0x44
  if (pdev->pClassDataCmsit[pdev->classId] != NULL)
 8002fd6:	f8d3 22c0 	ldr.w	r2, [r3, #704]	@ 0x2c0
 8002fda:	b18a      	cbz	r2, 8003000 <USBD_CDC_DeInit+0x5c>
    ((USBD_CDC_ItfTypeDef *)pdev->pUserData[pdev->classId])->DeInit();
 8002fdc:	f8d3 32c4 	ldr.w	r3, [r3, #708]	@ 0x2c4
 8002fe0:	685b      	ldr	r3, [r3, #4]
 8002fe2:	4798      	blx	r3
    (void)USBD_free(pdev->pClassDataCmsit[pdev->classId]);
 8002fe4:	f8d4 32d4 	ldr.w	r3, [r4, #724]	@ 0x2d4
 8002fe8:	33b0      	adds	r3, #176	@ 0xb0
 8002fea:	f854 0023 	ldr.w	r0, [r4, r3, lsl #2]
 8002fee:	f000 fb05 	bl	80035fc <USBD_static_free>
    pdev->pClassDataCmsit[pdev->classId] = NULL;
 8002ff2:	f8d4 32d4 	ldr.w	r3, [r4, #724]	@ 0x2d4
 8002ff6:	33b0      	adds	r3, #176	@ 0xb0
 8002ff8:	f844 5023 	str.w	r5, [r4, r3, lsl #2]
    pdev->pClassData = NULL;
 8002ffc:	f8c4 52bc 	str.w	r5, [r4, #700]	@ 0x2bc
}
 8003000:	2000      	movs	r0, #0
 8003002:	bd38      	pop	{r3, r4, r5, pc}

08003004 <USBD_CDC_Init>:
{
 8003004:	b5f8      	push	{r3, r4, r5, r6, r7, lr}
 8003006:	4604      	mov	r4, r0
  hcdc = (USBD_CDC_HandleTypeDef *)USBD_malloc(sizeof(USBD_CDC_HandleTypeDef));
 8003008:	f44f 7007 	mov.w	r0, #540	@ 0x21c
 800300c:	f000 faf2 	bl	80035f4 <USBD_static_malloc>
  if (hcdc == NULL)
 8003010:	4605      	mov	r5, r0
 8003012:	b930      	cbnz	r0, 8003022 <USBD_CDC_Init+0x1e>
    pdev->pClassDataCmsit[pdev->classId] = NULL;
 8003014:	f8d4 32d4 	ldr.w	r3, [r4, #724]	@ 0x2d4
 8003018:	33b0      	adds	r3, #176	@ 0xb0
 800301a:	f844 0023 	str.w	r0, [r4, r3, lsl #2]
    return (uint8_t)USBD_EMEM;
 800301e:	2002      	movs	r0, #2
 8003020:	e046      	b.n	80030b0 <USBD_CDC_Init+0xac>
  (void)USBD_memset(hcdc, 0, sizeof(USBD_CDC_HandleTypeDef));
 8003022:	f44f 7207 	mov.w	r2, #540	@ 0x21c
 8003026:	2100      	movs	r1, #0
 8003028:	f003 fbba 	bl	80067a0 <memset>
  pdev->pClassDataCmsit[pdev->classId] = (void *)hcdc;
 800302c:	f8d4 32d4 	ldr.w	r3, [r4, #724]	@ 0x2d4
 8003030:	33b0      	adds	r3, #176	@ 0xb0
 8003032:	f844 5023 	str.w	r5, [r4, r3, lsl #2]
  if (pdev->dev_speed == USBD_SPEED_HIGH)
 8003036:	7c23      	ldrb	r3, [r4, #16]
  pdev->pClassData = pdev->pClassDataCmsit[pdev->classId];
 8003038:	f8c4 52bc 	str.w	r5, [r4, #700]	@ 0x2bc
  if (pdev->dev_speed == USBD_SPEED_HIGH)
 800303c:	bbcb      	cbnz	r3, 80030b2 <USBD_CDC_Init+0xae>
    (void)USBD_LL_OpenEP(pdev, CDCInEpAdd, USBD_EP_TYPE_BULK,
 800303e:	f44f 7300 	mov.w	r3, #512	@ 0x200
 8003042:	2181      	movs	r1, #129	@ 0x81
 8003044:	2202      	movs	r2, #2
 8003046:	4620      	mov	r0, r4
 8003048:	f000 fae8 	bl	800361c <USBD_LL_OpenEP>
    pdev->ep_in[CDCInEpAdd & 0xFU].is_used = 1U;
 800304c:	2101      	movs	r1, #1
 800304e:	f884 1037 	strb.w	r1, [r4, #55]	@ 0x37
    (void)USBD_LL_OpenEP(pdev, CDCOutEpAdd, USBD_EP_TYPE_BULK,
 8003052:	f44f 7300 	mov.w	r3, #512	@ 0x200
    (void)USBD_LL_OpenEP(pdev, CDCOutEpAdd, USBD_EP_TYPE_BULK,
 8003056:	2202      	movs	r2, #2
 8003058:	4620      	mov	r0, r4
 800305a:	f000 fadf 	bl	800361c <USBD_LL_OpenEP>
    pdev->ep_out[CDCOutEpAdd & 0xFU].is_used = 1U;
 800305e:	2601      	movs	r6, #1
    pdev->ep_in[CDCCmdEpAdd & 0xFU].bInterval = CDC_HS_BINTERVAL;
 8003060:	2310      	movs	r3, #16
  (void)USBD_LL_OpenEP(pdev, CDCCmdEpAdd, USBD_EP_TYPE_INTR, CDC_CMD_PACKET_SIZE);
 8003062:	2203      	movs	r2, #3
    pdev->ep_in[CDCCmdEpAdd & 0xFU].bInterval = CDC_HS_BINTERVAL;
 8003064:	6463      	str	r3, [r4, #68]	@ 0x44
  (void)USBD_LL_OpenEP(pdev, CDCCmdEpAdd, USBD_EP_TYPE_INTR, CDC_CMD_PACKET_SIZE);
 8003066:	2182      	movs	r1, #130	@ 0x82
 8003068:	2308      	movs	r3, #8
    pdev->ep_out[CDCOutEpAdd & 0xFU].is_used = 1U;
 800306a:	f884 6177 	strb.w	r6, [r4, #375]	@ 0x177
  (void)USBD_LL_OpenEP(pdev, CDCCmdEpAdd, USBD_EP_TYPE_INTR, CDC_CMD_PACKET_SIZE);
 800306e:	4620      	mov	r0, r4
 8003070:	f000 fad4 	bl	800361c <USBD_LL_OpenEP>
  ((USBD_CDC_ItfTypeDef *)pdev->pUserData[pdev->classId])->Init();
 8003074:	f8d4 32d4 	ldr.w	r3, [r4, #724]	@ 0x2d4
  pdev->ep_in[CDCCmdEpAdd & 0xFU].is_used = 1U;
 8003078:	f884 604b 	strb.w	r6, [r4, #75]	@ 0x4b
  ((USBD_CDC_ItfTypeDef *)pdev->pUserData[pdev->classId])->Init();
 800307c:	eb04 0383 	add.w	r3, r4, r3, lsl #2
  hcdc->RxBuffer = NULL;
 8003080:	2700      	movs	r7, #0
  ((USBD_CDC_ItfTypeDef *)pdev->pUserData[pdev->classId])->Init();
 8003082:	f8d3 32c4 	ldr.w	r3, [r3, #708]	@ 0x2c4
  hcdc->RxBuffer = NULL;
 8003086:	f8c5 7204 	str.w	r7, [r5, #516]	@ 0x204
  ((USBD_CDC_ItfTypeDef *)pdev->pUserData[pdev->classId])->Init();
 800308a:	681b      	ldr	r3, [r3, #0]
 800308c:	4798      	blx	r3
  if (hcdc->RxBuffer == NULL)
 800308e:	f8d5 2204 	ldr.w	r2, [r5, #516]	@ 0x204
  hcdc->TxState = 0U;
 8003092:	f8c5 7214 	str.w	r7, [r5, #532]	@ 0x214
  hcdc->RxState = 0U;
 8003096:	f8c5 7218 	str.w	r7, [r5, #536]	@ 0x218
  if (hcdc->RxBuffer == NULL)
 800309a:	2a00      	cmp	r2, #0
 800309c:	d0bf      	beq.n	800301e <USBD_CDC_Init+0x1a>
  if (pdev->dev_speed == USBD_SPEED_HIGH)
 800309e:	7c23      	ldrb	r3, [r4, #16]
 80030a0:	b993      	cbnz	r3, 80030c8 <USBD_CDC_Init+0xc4>
    (void)USBD_LL_PrepareReceive(pdev, CDCOutEpAdd, hcdc->RxBuffer,
 80030a2:	f44f 7300 	mov.w	r3, #512	@ 0x200
 80030a6:	4631      	mov	r1, r6
 80030a8:	4620      	mov	r0, r4
 80030aa:	f000 faf0 	bl	800368e <USBD_LL_PrepareReceive>
  return (uint8_t)USBD_OK;
 80030ae:	2000      	movs	r0, #0
}
 80030b0:	bdf8      	pop	{r3, r4, r5, r6, r7, pc}
    (void)USBD_LL_OpenEP(pdev, CDCInEpAdd, USBD_EP_TYPE_BULK,
 80030b2:	2340      	movs	r3, #64	@ 0x40
 80030b4:	2181      	movs	r1, #129	@ 0x81
 80030b6:	2202      	movs	r2, #2
 80030b8:	4620      	mov	r0, r4
 80030ba:	f000 faaf 	bl	800361c <USBD_LL_OpenEP>
    pdev->ep_in[CDCInEpAdd & 0xFU].is_used = 1U;
 80030be:	2101      	movs	r1, #1
 80030c0:	f884 1037 	strb.w	r1, [r4, #55]	@ 0x37
    (void)USBD_LL_OpenEP(pdev, CDCOutEpAdd, USBD_EP_TYPE_BULK,
 80030c4:	2340      	movs	r3, #64	@ 0x40
 80030c6:	e7c6      	b.n	8003056 <USBD_CDC_Init+0x52>
    (void)USBD_LL_PrepareReceive(pdev, CDCOutEpAdd, hcdc->RxBuffer,
 80030c8:	2340      	movs	r3, #64	@ 0x40
 80030ca:	e7ec      	b.n	80030a6 <USBD_CDC_Init+0xa2>

080030cc <USBD_CDC_RegisterInterface>:
  * @retval status
  */
uint8_t USBD_CDC_RegisterInterface(USBD_HandleTypeDef *pdev,
                                   USBD_CDC_ItfTypeDef *fops)
{
  if (fops == NULL)
 80030cc:	b139      	cbz	r1, 80030de <USBD_CDC_RegisterInterface+0x12>
  {
    return (uint8_t)USBD_FAIL;
  }

  pdev->pUserData[pdev->classId] = fops;
 80030ce:	f8d0 32d4 	ldr.w	r3, [r0, #724]	@ 0x2d4
 80030d2:	eb00 0083 	add.w	r0, r0, r3, lsl #2
 80030d6:	f8c0 12c4 	str.w	r1, [r0, #708]	@ 0x2c4

  return (uint8_t)USBD_OK;
 80030da:	2000      	movs	r0, #0
 80030dc:	4770      	bx	lr
    return (uint8_t)USBD_FAIL;
 80030de:	2003      	movs	r0, #3
}
 80030e0:	4770      	bx	lr

080030e2 <USBD_CDC_SetTxBuffer>:
  USBD_CDC_HandleTypeDef *hcdc = (USBD_CDC_HandleTypeDef *)pdev->pClassDataCmsit[ClassId];
#else
uint8_t USBD_CDC_SetTxBuffer(USBD_HandleTypeDef *pdev,
                             uint8_t *pbuff, uint32_t length)
{
  USBD_CDC_HandleTypeDef *hcdc = (USBD_CDC_HandleTypeDef *)pdev->pClassDataCmsit[pdev->classId];
 80030e2:	f8d0 32d4 	ldr.w	r3, [r0, #724]	@ 0x2d4
 80030e6:	33b0      	adds	r3, #176	@ 0xb0
 80030e8:	f850 3023 	ldr.w	r3, [r0, r3, lsl #2]
#endif /* USE_USBD_COMPOSITE */

  if (hcdc == NULL)
 80030ec:	b12b      	cbz	r3, 80030fa <USBD_CDC_SetTxBuffer+0x18>
  {
    return (uint8_t)USBD_FAIL;
  }

  hcdc->TxBuffer = pbuff;
 80030ee:	f8c3 1208 	str.w	r1, [r3, #520]	@ 0x208
  hcdc->TxLength = length;
 80030f2:	f8c3 2210 	str.w	r2, [r3, #528]	@ 0x210

  return (uint8_t)USBD_OK;
 80030f6:	2000      	movs	r0, #0
 80030f8:	4770      	bx	lr
    return (uint8_t)USBD_FAIL;
 80030fa:	2003      	movs	r0, #3
}
 80030fc:	4770      	bx	lr

080030fe <USBD_CDC_SetRxBuffer>:
  * @param  pbuff: Rx Buffer
  * @retval status
  */
uint8_t USBD_CDC_SetRxBuffer(USBD_HandleTypeDef *pdev, uint8_t *pbuff)
{
  USBD_CDC_HandleTypeDef *hcdc = (USBD_CDC_HandleTypeDef *)pdev->pClassDataCmsit[pdev->classId];
 80030fe:	f8d0 32d4 	ldr.w	r3, [r0, #724]	@ 0x2d4
 8003102:	33b0      	adds	r3, #176	@ 0xb0
 8003104:	f850 3023 	ldr.w	r3, [r0, r3, lsl #2]

  if (hcdc == NULL)
 8003108:	b11b      	cbz	r3, 8003112 <USBD_CDC_SetRxBuffer+0x14>
  {
    return (uint8_t)USBD_FAIL;
  }

  hcdc->RxBuffer = pbuff;
 800310a:	f8c3 1204 	str.w	r1, [r3, #516]	@ 0x204

  return (uint8_t)USBD_OK;
 800310e:	2000      	movs	r0, #0
 8003110:	4770      	bx	lr
    return (uint8_t)USBD_FAIL;
 8003112:	2003      	movs	r0, #3
}
 8003114:	4770      	bx	lr

08003116 <USBD_CDC_TransmitPacket>:
{
  USBD_CDC_HandleTypeDef *hcdc = (USBD_CDC_HandleTypeDef *)pdev->pClassDataCmsit[ClassId];
#else
uint8_t USBD_CDC_TransmitPacket(USBD_HandleTypeDef *pdev)
{
  USBD_CDC_HandleTypeDef *hcdc = (USBD_CDC_HandleTypeDef *)pdev->pClassDataCmsit[pdev->classId];
 8003116:	f8d0 32d4 	ldr.w	r3, [r0, #724]	@ 0x2d4
 800311a:	33b0      	adds	r3, #176	@ 0xb0
{
 800311c:	b510      	push	{r4, lr}
  USBD_CDC_HandleTypeDef *hcdc = (USBD_CDC_HandleTypeDef *)pdev->pClassDataCmsit[pdev->classId];
 800311e:	f850 2023 	ldr.w	r2, [r0, r3, lsl #2]
#ifdef USE_USBD_COMPOSITE
  /* Get the Endpoints addresses allocated for this class instance */
  CDCInEpAdd  = USBD_CoreGetEPAdd(pdev, USBD_EP_IN, USBD_EP_TYPE_BULK, ClassId);
#endif  /* USE_USBD_COMPOSITE */

  if (hcdc == NULL)
 8003122:	b17a      	cbz	r2, 8003144 <USBD_CDC_TransmitPacket+0x2e>
  {
    return (uint8_t)USBD_FAIL;
  }

  if (hcdc->TxState == 0U)
 8003124:	f8d2 4214 	ldr.w	r4, [r2, #532]	@ 0x214
 8003128:	2301      	movs	r3, #1
 800312a:	b96c      	cbnz	r4, 8003148 <USBD_CDC_TransmitPacket+0x32>
  {
    /* Tx Transfer in progress */
    hcdc->TxState = 1U;
 800312c:	f8c2 3214 	str.w	r3, [r2, #532]	@ 0x214

    /* Update the packet total length */
    pdev->ep_in[CDCInEpAdd & 0xFU].total_length = hcdc->TxLength;
 8003130:	f8d2 3210 	ldr.w	r3, [r2, #528]	@ 0x210
 8003134:	6283      	str	r3, [r0, #40]	@ 0x28

    /* Transmit next packet */
    (void)USBD_LL_Transmit(pdev, CDCInEpAdd, hcdc->TxBuffer, hcdc->TxLength);
 8003136:	f8d2 2208 	ldr.w	r2, [r2, #520]	@ 0x208
 800313a:	2181      	movs	r1, #129	@ 0x81
 800313c:	f000 fa9e 	bl	800367c <USBD_LL_Transmit>

    ret = USBD_OK;
 8003140:	4620      	mov	r0, r4
  }

  return (uint8_t)ret;
}
 8003142:	bd10      	pop	{r4, pc}
    return (uint8_t)USBD_FAIL;
 8003144:	2003      	movs	r0, #3
 8003146:	e7fc      	b.n	8003142 <USBD_CDC_TransmitPacket+0x2c>
  USBD_StatusTypeDef ret = USBD_BUSY;
 8003148:	4618      	mov	r0, r3
 800314a:	e7fa      	b.n	8003142 <USBD_CDC_TransmitPacket+0x2c>

0800314c <USBD_CDC_ReceivePacket>:
  * @param  pdev: device instance
  * @retval status
  */
uint8_t USBD_CDC_ReceivePacket(USBD_HandleTypeDef *pdev)
{
  USBD_CDC_HandleTypeDef *hcdc = (USBD_CDC_HandleTypeDef *)pdev->pClassDataCmsit[pdev->classId];
 800314c:	f8d0 22d4 	ldr.w	r2, [r0, #724]	@ 0x2d4
 8003150:	32b0      	adds	r2, #176	@ 0xb0
{
 8003152:	b508      	push	{r3, lr}
  USBD_CDC_HandleTypeDef *hcdc = (USBD_CDC_HandleTypeDef *)pdev->pClassDataCmsit[pdev->classId];
 8003154:	f850 2022 	ldr.w	r2, [r0, r2, lsl #2]
#ifdef USE_USBD_COMPOSITE
  /* Get the Endpoints addresses allocated for this class instance */
  CDCOutEpAdd = USBD_CoreGetEPAdd(pdev, USBD_EP_OUT, USBD_EP_TYPE_BULK, (uint8_t)pdev->classId);
#endif /* USE_USBD_COMPOSITE */

  if (pdev->pClassDataCmsit[pdev->classId] == NULL)
 8003158:	b162      	cbz	r2, 8003174 <USBD_CDC_ReceivePacket+0x28>
  {
    return (uint8_t)USBD_FAIL;
  }

  if (pdev->dev_speed == USBD_SPEED_HIGH)
 800315a:	7c03      	ldrb	r3, [r0, #16]
  {
    /* Prepare Out endpoint to receive next packet */
    (void)USBD_LL_PrepareReceive(pdev, CDCOutEpAdd, hcdc->RxBuffer,
 800315c:	f8d2 2204 	ldr.w	r2, [r2, #516]	@ 0x204
  if (pdev->dev_speed == USBD_SPEED_HIGH)
 8003160:	b933      	cbnz	r3, 8003170 <USBD_CDC_ReceivePacket+0x24>
    (void)USBD_LL_PrepareReceive(pdev, CDCOutEpAdd, hcdc->RxBuffer,
 8003162:	f44f 7300 	mov.w	r3, #512	@ 0x200
 8003166:	2101      	movs	r1, #1
 8003168:	f000 fa91 	bl	800368e <USBD_LL_PrepareReceive>
    /* Prepare Out endpoint to receive next packet */
    (void)USBD_LL_PrepareReceive(pdev, CDCOutEpAdd, hcdc->RxBuffer,
                                 CDC_DATA_FS_OUT_PACKET_SIZE);
  }

  return (uint8_t)USBD_OK;
 800316c:	2000      	movs	r0, #0
}
 800316e:	bd08      	pop	{r3, pc}
    (void)USBD_LL_PrepareReceive(pdev, CDCOutEpAdd, hcdc->RxBuffer,
 8003170:	2340      	movs	r3, #64	@ 0x40
 8003172:	e7f8      	b.n	8003166 <USBD_CDC_ReceivePacket+0x1a>
    return (uint8_t)USBD_FAIL;
 8003174:	2003      	movs	r0, #3
 8003176:	e7fa      	b.n	800316e <USBD_CDC_ReceivePacket+0x22>

08003178 <CDC_DeInit_FS>:
static int8_t CDC_DeInit_FS(void)
{
  /* USER CODE BEGIN 4 */
  return (USBD_OK);
  /* USER CODE END 4 */
}
 8003178:	2000      	movs	r0, #0
 800317a:	4770      	bx	lr

0800317c <CDC_Control_FS>:
  * @retval Result of the operation: USBD_OK if all operations are OK else USBD_FAIL
  */
static int8_t CDC_Control_FS(uint8_t cmd, uint8_t* pbuf, uint16_t length)
{
  /* USER CODE BEGIN 5 */
  switch(cmd)
 800317c:	2820      	cmp	r0, #32
 800317e:	d003      	beq.n	8003188 <CDC_Control_FS+0xc>
 8003180:	2821      	cmp	r0, #33	@ 0x21
 8003182:	d017      	beq.n	80031b4 <CDC_Control_FS+0x38>
    break;
  }

  return (USBD_OK);
  /* USER CODE END 5 */
}
 8003184:	2000      	movs	r0, #0
 8003186:	4770      	bx	lr
      LineCoding.bitrate   = (uint32_t)(pbuf[0]);
 8003188:	4a13      	ldr	r2, [pc, #76]	@ (80031d8 <CDC_Control_FS+0x5c>)
 800318a:	780b      	ldrb	r3, [r1, #0]
 800318c:	6013      	str	r3, [r2, #0]
      LineCoding.bitrate  |= (uint32_t)(pbuf[1]<<8);
 800318e:	7848      	ldrb	r0, [r1, #1]
 8003190:	ea43 2300 	orr.w	r3, r3, r0, lsl #8
 8003194:	6013      	str	r3, [r2, #0]
      LineCoding.bitrate  |= (uint32_t)(pbuf[2]<<16);
 8003196:	7888      	ldrb	r0, [r1, #2]
 8003198:	ea43 4300 	orr.w	r3, r3, r0, lsl #16
 800319c:	6013      	str	r3, [r2, #0]
      LineCoding.bitrate  |= (uint32_t)(pbuf[3]<<24);
 800319e:	78c8      	ldrb	r0, [r1, #3]
 80031a0:	ea43 6300 	orr.w	r3, r3, r0, lsl #24
 80031a4:	6013      	str	r3, [r2, #0]
      LineCoding.format    = pbuf[4];
 80031a6:	790b      	ldrb	r3, [r1, #4]
 80031a8:	7113      	strb	r3, [r2, #4]
      LineCoding.paritytype= pbuf[5];
 80031aa:	794b      	ldrb	r3, [r1, #5]
 80031ac:	7153      	strb	r3, [r2, #5]
      LineCoding.datatype  = pbuf[6];
 80031ae:	798b      	ldrb	r3, [r1, #6]
 80031b0:	7193      	strb	r3, [r2, #6]
    break;
 80031b2:	e7e7      	b.n	8003184 <CDC_Control_FS+0x8>
      pbuf[0] = (uint8_t)(LineCoding.bitrate);
 80031b4:	4b08      	ldr	r3, [pc, #32]	@ (80031d8 <CDC_Control_FS+0x5c>)
 80031b6:	681a      	ldr	r2, [r3, #0]
 80031b8:	700a      	strb	r2, [r1, #0]
      pbuf[1] = (uint8_t)(LineCoding.bitrate>>8);
 80031ba:	681a      	ldr	r2, [r3, #0]
 80031bc:	0a12      	lsrs	r2, r2, #8
 80031be:	704a      	strb	r2, [r1, #1]
      pbuf[2] = (uint8_t)(LineCoding.bitrate>>16);
 80031c0:	885a      	ldrh	r2, [r3, #2]
 80031c2:	708a      	strb	r2, [r1, #2]
      pbuf[3] = (uint8_t)(LineCoding.bitrate>>24);
 80031c4:	78da      	ldrb	r2, [r3, #3]
 80031c6:	70ca      	strb	r2, [r1, #3]
      pbuf[4] = LineCoding.format;
 80031c8:	791a      	ldrb	r2, [r3, #4]
 80031ca:	710a      	strb	r2, [r1, #4]
      pbuf[5] = LineCoding.paritytype;
 80031cc:	795a      	ldrb	r2, [r3, #5]
 80031ce:	714a      	strb	r2, [r1, #5]
      pbuf[6] = LineCoding.datatype;
 80031d0:	799b      	ldrb	r3, [r3, #6]
 80031d2:	718b      	strb	r3, [r1, #6]
    break;
 80031d4:	e7d6      	b.n	8003184 <CDC_Control_FS+0x8>
 80031d6:	bf00      	nop
 80031d8:	200000b8 	.word	0x200000b8

080031dc <CDC_TransmitCplt_FS>:
  UNUSED(Buf);
  UNUSED(Len);
  UNUSED(epnum);
  /* USER CODE END 13 */
  return result;
}
 80031dc:	2000      	movs	r0, #0
 80031de:	4770      	bx	lr

080031e0 <CDC_Init_FS>:
{
 80031e0:	b510      	push	{r4, lr}
  USBD_CDC_SetTxBuffer(&hUsbDeviceFS, UserTxBufferFS, 0);
 80031e2:	4c06      	ldr	r4, [pc, #24]	@ (80031fc <CDC_Init_FS+0x1c>)
 80031e4:	4906      	ldr	r1, [pc, #24]	@ (8003200 <CDC_Init_FS+0x20>)
 80031e6:	2200      	movs	r2, #0
 80031e8:	4620      	mov	r0, r4
 80031ea:	f7ff ff7a 	bl	80030e2 <USBD_CDC_SetTxBuffer>
  USBD_CDC_SetRxBuffer(&hUsbDeviceFS, UserRxBufferFS);
 80031ee:	4905      	ldr	r1, [pc, #20]	@ (8003204 <CDC_Init_FS+0x24>)
 80031f0:	4620      	mov	r0, r4
 80031f2:	f7ff ff84 	bl	80030fe <USBD_CDC_SetRxBuffer>
}
 80031f6:	2000      	movs	r0, #0
 80031f8:	bd10      	pop	{r4, pc}
 80031fa:	bf00      	nop
 80031fc:	20000748 	.word	0x20000748
 8003200:	20000a27 	.word	0x20000a27
 8003204:	20000e27 	.word	0x20000e27

08003208 <cdcAvailable>:
  ret = (rx_in - rx_out) % rx_len;
 8003208:	4b05      	ldr	r3, [pc, #20]	@ (8003220 <cdcAvailable+0x18>)
 800320a:	4a06      	ldr	r2, [pc, #24]	@ (8003224 <cdcAvailable+0x1c>)
 800320c:	681b      	ldr	r3, [r3, #0]
 800320e:	6812      	ldr	r2, [r2, #0]
 8003210:	1a9b      	subs	r3, r3, r2
 8003212:	4a05      	ldr	r2, [pc, #20]	@ (8003228 <cdcAvailable+0x20>)
 8003214:	6812      	ldr	r2, [r2, #0]
 8003216:	fbb3 f0f2 	udiv	r0, r3, r2
}
 800321a:	fb02 3010 	mls	r0, r2, r0, r3
 800321e:	4770      	bx	lr
 8003220:	2000162c 	.word	0x2000162c
 8003224:	20001628 	.word	0x20001628
 8003228:	200000b4 	.word	0x200000b4

0800322c <cdcRead>:
{
 800322c:	b510      	push	{r4, lr}
  ret = rx_buf[rx_out];
 800322e:	4a08      	ldr	r2, [pc, #32]	@ (8003250 <cdcRead+0x24>)
 8003230:	4908      	ldr	r1, [pc, #32]	@ (8003254 <cdcRead+0x28>)
 8003232:	6813      	ldr	r3, [r2, #0]
 8003234:	5cc8      	ldrb	r0, [r1, r3]
  if (rx_out != rx_in)
 8003236:	4908      	ldr	r1, [pc, #32]	@ (8003258 <cdcRead+0x2c>)
 8003238:	6809      	ldr	r1, [r1, #0]
 800323a:	428b      	cmp	r3, r1
 800323c:	d007      	beq.n	800324e <cdcRead+0x22>
    rx_out = (rx_out + 1) % rx_len;
 800323e:	4907      	ldr	r1, [pc, #28]	@ (800325c <cdcRead+0x30>)
 8003240:	6809      	ldr	r1, [r1, #0]
 8003242:	3301      	adds	r3, #1
 8003244:	fbb3 f4f1 	udiv	r4, r3, r1
 8003248:	fb01 3314 	mls	r3, r1, r4, r3
 800324c:	6013      	str	r3, [r2, #0]
}
 800324e:	bd10      	pop	{r4, pc}
 8003250:	20001628 	.word	0x20001628
 8003254:	20001228 	.word	0x20001228
 8003258:	2000162c 	.word	0x2000162c
 800325c:	200000b4 	.word	0x200000b4

08003260 <cdcDataIn>:
  rx_buf[rx_in] = rx_data;
 8003260:	4a08      	ldr	r2, [pc, #32]	@ (8003284 <cdcDataIn+0x24>)
 8003262:	4909      	ldr	r1, [pc, #36]	@ (8003288 <cdcDataIn+0x28>)
 8003264:	6813      	ldr	r3, [r2, #0]
 8003266:	54c8      	strb	r0, [r1, r3]
  next_rx_in = (rx_in + 1) % rx_len;
 8003268:	4908      	ldr	r1, [pc, #32]	@ (800328c <cdcDataIn+0x2c>)
 800326a:	6809      	ldr	r1, [r1, #0]
 800326c:	3301      	adds	r3, #1
 800326e:	fbb3 f0f1 	udiv	r0, r3, r1
 8003272:	fb01 3310 	mls	r3, r1, r0, r3
  if (next_rx_in != rx_out)
 8003276:	4906      	ldr	r1, [pc, #24]	@ (8003290 <cdcDataIn+0x30>)
 8003278:	6809      	ldr	r1, [r1, #0]
 800327a:	4299      	cmp	r1, r3
    rx_in = next_rx_in;
 800327c:	bf18      	it	ne
 800327e:	6013      	strne	r3, [r2, #0]
}
 8003280:	4770      	bx	lr
 8003282:	bf00      	nop
 8003284:	2000162c 	.word	0x2000162c
 8003288:	20001228 	.word	0x20001228
 800328c:	200000b4 	.word	0x200000b4
 8003290:	20001628 	.word	0x20001628

08003294 <CDC_Receive_FS>:
{
 8003294:	b570      	push	{r4, r5, r6, lr}
 8003296:	4605      	mov	r5, r0
 8003298:	460e      	mov	r6, r1
  for (int i=0; i<*Len; i++)
 800329a:	2400      	movs	r4, #0
 800329c:	6833      	ldr	r3, [r6, #0]
 800329e:	42a3      	cmp	r3, r4
 80032a0:	d810      	bhi.n	80032c4 <CDC_Receive_FS+0x30>
  buf_len = (rx_len - cdcAvailable()) - 1;
 80032a2:	4b0d      	ldr	r3, [pc, #52]	@ (80032d8 <CDC_Receive_FS+0x44>)
 80032a4:	681c      	ldr	r4, [r3, #0]
 80032a6:	f7ff ffaf 	bl	8003208 <cdcAvailable>
 80032aa:	3c01      	subs	r4, #1
 80032ac:	1a24      	subs	r4, r4, r0
  if (buf_len >= USB_FS_MAX_PACKET_SIZE)
 80032ae:	2c3f      	cmp	r4, #63	@ 0x3f
 80032b0:	d90d      	bls.n	80032ce <CDC_Receive_FS+0x3a>
    USBD_CDC_SetRxBuffer(&hUsbDeviceFS, &Buf[0]);
 80032b2:	480a      	ldr	r0, [pc, #40]	@ (80032dc <CDC_Receive_FS+0x48>)
 80032b4:	4629      	mov	r1, r5
 80032b6:	f7ff ff22 	bl	80030fe <USBD_CDC_SetRxBuffer>
    USBD_CDC_ReceivePacket(&hUsbDeviceFS);
 80032ba:	4808      	ldr	r0, [pc, #32]	@ (80032dc <CDC_Receive_FS+0x48>)
 80032bc:	f7ff ff46 	bl	800314c <USBD_CDC_ReceivePacket>
}
 80032c0:	2000      	movs	r0, #0
 80032c2:	bd70      	pop	{r4, r5, r6, pc}
    cdcDataIn(Buf[i]);
 80032c4:	5d28      	ldrb	r0, [r5, r4]
 80032c6:	f7ff ffcb 	bl	8003260 <cdcDataIn>
  for (int i=0; i<*Len; i++)
 80032ca:	3401      	adds	r4, #1
 80032cc:	e7e6      	b.n	800329c <CDC_Receive_FS+0x8>
    rx_full = true;
 80032ce:	4b04      	ldr	r3, [pc, #16]	@ (80032e0 <CDC_Receive_FS+0x4c>)
 80032d0:	2201      	movs	r2, #1
 80032d2:	701a      	strb	r2, [r3, #0]
 80032d4:	e7f4      	b.n	80032c0 <CDC_Receive_FS+0x2c>
 80032d6:	bf00      	nop
 80032d8:	200000b4 	.word	0x200000b4
 80032dc:	20000748 	.word	0x20000748
 80032e0:	20001227 	.word	0x20001227

080032e4 <CDC_Transmit_FS>:
{
 80032e4:	b510      	push	{r4, lr}
  USBD_CDC_HandleTypeDef *hcdc = (USBD_CDC_HandleTypeDef*)hUsbDeviceFS.pClassData;
 80032e6:	4c09      	ldr	r4, [pc, #36]	@ (800330c <CDC_Transmit_FS+0x28>)
 80032e8:	f8d4 32bc 	ldr.w	r3, [r4, #700]	@ 0x2bc
  if (hcdc->TxState != 0){
 80032ec:	f8d3 3214 	ldr.w	r3, [r3, #532]	@ 0x214
{
 80032f0:	460a      	mov	r2, r1
  if (hcdc->TxState != 0){
 80032f2:	b943      	cbnz	r3, 8003306 <CDC_Transmit_FS+0x22>
  USBD_CDC_SetTxBuffer(&hUsbDeviceFS, Buf, Len);
 80032f4:	4601      	mov	r1, r0
 80032f6:	4620      	mov	r0, r4
 80032f8:	f7ff fef3 	bl	80030e2 <USBD_CDC_SetTxBuffer>
  result = USBD_CDC_TransmitPacket(&hUsbDeviceFS);
 80032fc:	4620      	mov	r0, r4
}
 80032fe:	e8bd 4010 	ldmia.w	sp!, {r4, lr}
  result = USBD_CDC_TransmitPacket(&hUsbDeviceFS);
 8003302:	f7ff bf08 	b.w	8003116 <USBD_CDC_TransmitPacket>
}
 8003306:	2001      	movs	r0, #1
 8003308:	bd10      	pop	{r4, pc}
 800330a:	bf00      	nop
 800330c:	20000748 	.word	0x20000748

08003310 <cdcWrite>:
{
 8003310:	b5f8      	push	{r3, r4, r5, r6, r7, lr}
 8003312:	4606      	mov	r6, r0
 8003314:	460c      	mov	r4, r1
  if(cdcIsInit() != true)
 8003316:	f7fe f8d5 	bl	80014c4 <cdcIsInit>
 800331a:	b178      	cbz	r0, 800333c <cdcWrite+0x2c>
  pre_time = millis();
 800331c:	f7fd ff3a 	bl	8001194 <millis>
    ret = CDC_Transmit_FS(p_data, length);
 8003320:	b2a7      	uxth	r7, r4
  pre_time = millis();
 8003322:	4605      	mov	r5, r0
    ret = CDC_Transmit_FS(p_data, length);
 8003324:	4639      	mov	r1, r7
 8003326:	4630      	mov	r0, r6
 8003328:	f7ff ffdc 	bl	80032e4 <CDC_Transmit_FS>
    if (ret == USBD_OK)
 800332c:	b138      	cbz	r0, 800333e <cdcWrite+0x2e>
    else if (ret == USBD_FAIL)
 800332e:	2803      	cmp	r0, #3
 8003330:	d004      	beq.n	800333c <cdcWrite+0x2c>
    if (millis()-pre_time >= 100)
 8003332:	f7fd ff2f 	bl	8001194 <millis>
 8003336:	1b43      	subs	r3, r0, r5
 8003338:	2b63      	cmp	r3, #99	@ 0x63
 800333a:	d9f3      	bls.n	8003324 <cdcWrite+0x14>
	  return 0;
 800333c:	2400      	movs	r4, #0
}
 800333e:	4620      	mov	r0, r4
 8003340:	bdf8      	pop	{r3, r4, r5, r6, r7, pc}
	...

08003344 <USBD_FS_DeviceDescriptor>:
  * @retval Pointer to descriptor buffer
  */
uint8_t * USBD_FS_DeviceDescriptor(USBD_SpeedTypeDef speed, uint16_t *length)
{
  UNUSED(speed);
  *length = sizeof(USBD_FS_DeviceDesc);
 8003344:	2312      	movs	r3, #18
  return USBD_FS_DeviceDesc;
}
 8003346:	4801      	ldr	r0, [pc, #4]	@ (800334c <USBD_FS_DeviceDescriptor+0x8>)
  *length = sizeof(USBD_FS_DeviceDesc);
 8003348:	800b      	strh	r3, [r1, #0]
}
 800334a:	4770      	bx	lr
 800334c:	200000e0 	.word	0x200000e0

08003350 <USBD_FS_LangIDStrDescriptor>:
  * @retval Pointer to descriptor buffer
  */
uint8_t * USBD_FS_LangIDStrDescriptor(USBD_SpeedTypeDef speed, uint16_t *length)
{
  UNUSED(speed);
  *length = sizeof(USBD_LangIDDesc);
 8003350:	2304      	movs	r3, #4
  return USBD_LangIDDesc;
}
 8003352:	4801      	ldr	r0, [pc, #4]	@ (8003358 <USBD_FS_LangIDStrDescriptor+0x8>)
  *length = sizeof(USBD_LangIDDesc);
 8003354:	800b      	strh	r3, [r1, #0]
}
 8003356:	4770      	bx	lr
 8003358:	200000dc 	.word	0x200000dc

0800335c <IntToUnicode>:
  * @param  pbuf: pointer to the buffer
  * @param  len: buffer length
  * @retval None
  */
static void IntToUnicode(uint32_t value, uint8_t * pbuf, uint8_t len)
{
 800335c:	2300      	movs	r3, #0
 800335e:	b570      	push	{r4, r5, r6, lr}
      pbuf[2 * idx] = (value >> 28) + 'A' - 10;
    }

    value = value << 4;

    pbuf[2 * idx + 1] = 0;
 8003360:	1c4d      	adds	r5, r1, #1
 8003362:	461e      	mov	r6, r3
      pbuf[2 * idx] = (value >> 28) + '0';
 8003364:	0f04      	lsrs	r4, r0, #28
    if (((value >> 28)) < 0xA)
 8003366:	f1b0 4f20 	cmp.w	r0, #2684354560	@ 0xa0000000
      pbuf[2 * idx] = (value >> 28) + '0';
 800336a:	bf34      	ite	cc
 800336c:	3430      	addcc	r4, #48	@ 0x30
      pbuf[2 * idx] = (value >> 28) + 'A' - 10;
 800336e:	3437      	addcs	r4, #55	@ 0x37
      pbuf[2 * idx] = (value >> 28) + '0';
 8003370:	f801 4013 	strb.w	r4, [r1, r3, lsl #1]
    pbuf[2 * idx + 1] = 0;
 8003374:	f805 6013 	strb.w	r6, [r5, r3, lsl #1]
  for (idx = 0; idx < len; idx++)
 8003378:	3301      	adds	r3, #1
 800337a:	b2dc      	uxtb	r4, r3
 800337c:	42a2      	cmp	r2, r4
    value = value << 4;
 800337e:	ea4f 1000 	mov.w	r0, r0, lsl #4
  for (idx = 0; idx < len; idx++)
 8003382:	d8ef      	bhi.n	8003364 <IntToUnicode+0x8>
  }
}
 8003384:	bd70      	pop	{r4, r5, r6, pc}
	...

08003388 <USBD_FS_SerialStrDescriptor>:
  *length = USB_SIZ_STRING_SERIAL;
 8003388:	231a      	movs	r3, #26
{
 800338a:	b510      	push	{r4, lr}
  *length = USB_SIZ_STRING_SERIAL;
 800338c:	800b      	strh	r3, [r1, #0]
  deviceserial0 = *(uint32_t *) DEVICE_ID1;
 800338e:	4b0a      	ldr	r3, [pc, #40]	@ (80033b8 <USBD_FS_SerialStrDescriptor+0x30>)
 8003390:	f8d3 0a10 	ldr.w	r0, [r3, #2576]	@ 0xa10
  deviceserial0 += deviceserial2;
 8003394:	f8d3 2a18 	ldr.w	r2, [r3, #2584]	@ 0xa18
  if (deviceserial0 != 0)
 8003398:	1880      	adds	r0, r0, r2
 800339a:	d00a      	beq.n	80033b2 <USBD_FS_SerialStrDescriptor+0x2a>
  deviceserial1 = *(uint32_t *) DEVICE_ID2;
 800339c:	f8d3 4a14 	ldr.w	r4, [r3, #2580]	@ 0xa14
    IntToUnicode(deviceserial0, &USBD_StringSerial[2], 8);
 80033a0:	4906      	ldr	r1, [pc, #24]	@ (80033bc <USBD_FS_SerialStrDescriptor+0x34>)
 80033a2:	2208      	movs	r2, #8
 80033a4:	f7ff ffda 	bl	800335c <IntToUnicode>
    IntToUnicode(deviceserial1, &USBD_StringSerial[18], 4);
 80033a8:	2204      	movs	r2, #4
 80033aa:	3110      	adds	r1, #16
 80033ac:	4620      	mov	r0, r4
 80033ae:	f7ff ffd5 	bl	800335c <IntToUnicode>
}
 80033b2:	4803      	ldr	r0, [pc, #12]	@ (80033c0 <USBD_FS_SerialStrDescriptor+0x38>)
 80033b4:	bd10      	pop	{r4, pc}
 80033b6:	bf00      	nop
 80033b8:	1fff7000 	.word	0x1fff7000
 80033bc:	200000c2 	.word	0x200000c2
 80033c0:	200000c0 	.word	0x200000c0

080033c4 <USBD_FS_ManufacturerStrDescriptor>:
{
 80033c4:	b510      	push	{r4, lr}
  USBD_GetString((uint8_t *)USBD_MANUFACTURER_STRING, USBD_StrDesc, length);
 80033c6:	4c04      	ldr	r4, [pc, #16]	@ (80033d8 <USBD_FS_ManufacturerStrDescriptor+0x14>)
 80033c8:	4804      	ldr	r0, [pc, #16]	@ (80033dc <USBD_FS_ManufacturerStrDescriptor+0x18>)
{
 80033ca:	460a      	mov	r2, r1
  USBD_GetString((uint8_t *)USBD_MANUFACTURER_STRING, USBD_StrDesc, length);
 80033cc:	4621      	mov	r1, r4
 80033ce:	f7ff fc56 	bl	8002c7e <USBD_GetString>
}
 80033d2:	4620      	mov	r0, r4
 80033d4:	bd10      	pop	{r4, pc}
 80033d6:	bf00      	nop
 80033d8:	20001630 	.word	0x20001630
 80033dc:	08008bff 	.word	0x08008bff

080033e0 <USBD_FS_ProductStrDescriptor>:
{
 80033e0:	b510      	push	{r4, lr}
    USBD_GetString((uint8_t *)USBD_PRODUCT_STRING_FS, USBD_StrDesc, length);
 80033e2:	4c04      	ldr	r4, [pc, #16]	@ (80033f4 <USBD_FS_ProductStrDescriptor+0x14>)
 80033e4:	4804      	ldr	r0, [pc, #16]	@ (80033f8 <USBD_FS_ProductStrDescriptor+0x18>)
{
 80033e6:	460a      	mov	r2, r1
    USBD_GetString((uint8_t *)USBD_PRODUCT_STRING_FS, USBD_StrDesc, length);
 80033e8:	4621      	mov	r1, r4
 80033ea:	f7ff fc48 	bl	8002c7e <USBD_GetString>
}
 80033ee:	4620      	mov	r0, r4
 80033f0:	bd10      	pop	{r4, pc}
 80033f2:	bf00      	nop
 80033f4:	20001630 	.word	0x20001630
 80033f8:	08008c12 	.word	0x08008c12

080033fc <USBD_FS_ConfigStrDescriptor>:
{
 80033fc:	b510      	push	{r4, lr}
    USBD_GetString((uint8_t *)USBD_CONFIGURATION_STRING_FS, USBD_StrDesc, length);
 80033fe:	4c04      	ldr	r4, [pc, #16]	@ (8003410 <USBD_FS_ConfigStrDescriptor+0x14>)
 8003400:	4804      	ldr	r0, [pc, #16]	@ (8003414 <USBD_FS_ConfigStrDescriptor+0x18>)
{
 8003402:	460a      	mov	r2, r1
    USBD_GetString((uint8_t *)USBD_CONFIGURATION_STRING_FS, USBD_StrDesc, length);
 8003404:	4621      	mov	r1, r4
 8003406:	f7ff fc3a 	bl	8002c7e <USBD_GetString>
}
 800340a:	4620      	mov	r0, r4
 800340c:	bd10      	pop	{r4, pc}
 800340e:	bf00      	nop
 8003410:	20001630 	.word	0x20001630
 8003414:	08008c28 	.word	0x08008c28

08003418 <USBD_FS_InterfaceStrDescriptor>:
{
 8003418:	b510      	push	{r4, lr}
    USBD_GetString((uint8_t *)USBD_INTERFACE_STRING_FS, USBD_StrDesc, length);
 800341a:	4c04      	ldr	r4, [pc, #16]	@ (800342c <USBD_FS_InterfaceStrDescriptor+0x14>)
 800341c:	4804      	ldr	r0, [pc, #16]	@ (8003430 <USBD_FS_InterfaceStrDescriptor+0x18>)
{
 800341e:	460a      	mov	r2, r1
    USBD_GetString((uint8_t *)USBD_INTERFACE_STRING_FS, USBD_StrDesc, length);
 8003420:	4621      	mov	r1, r4
 8003422:	f7ff fc2c 	bl	8002c7e <USBD_GetString>
}
 8003426:	4620      	mov	r0, r4
 8003428:	bd10      	pop	{r4, pc}
 800342a:	bf00      	nop
 800342c:	20001630 	.word	0x20001630
 8003430:	08008c33 	.word	0x08008c33

08003434 <HAL_PCD_MspInit>:
                       LL Driver Callbacks (PCD -> USB Device Library)
*******************************************************************************/
/* MSP Init */

void HAL_PCD_MspInit(PCD_HandleTypeDef* pcdHandle)
{
 8003434:	b530      	push	{r4, r5, lr}
 8003436:	4604      	mov	r4, r0
 8003438:	b089      	sub	sp, #36	@ 0x24
  GPIO_InitTypeDef GPIO_InitStruct = {0};
 800343a:	2214      	movs	r2, #20
 800343c:	2100      	movs	r1, #0
 800343e:	a803      	add	r0, sp, #12
 8003440:	f003 f9ae 	bl	80067a0 <memset>
  if(pcdHandle->Instance==USB_OTG_FS)
 8003444:	6823      	ldr	r3, [r4, #0]
 8003446:	f1b3 4fa0 	cmp.w	r3, #1342177280	@ 0x50000000
 800344a:	d12e      	bne.n	80034aa <HAL_PCD_MspInit+0x76>
  {
  /* USER CODE BEGIN USB_OTG_FS_MspInit 0 */

  /* USER CODE END USB_OTG_FS_MspInit 0 */

    __HAL_RCC_GPIOA_CLK_ENABLE();
 800344c:	4c18      	ldr	r4, [pc, #96]	@ (80034b0 <HAL_PCD_MspInit+0x7c>)
    GPIO_InitStruct.Pin = GPIO_PIN_11|GPIO_PIN_12;
    GPIO_InitStruct.Mode = GPIO_MODE_AF_PP;
    GPIO_InitStruct.Pull = GPIO_NOPULL;
    GPIO_InitStruct.Speed = GPIO_SPEED_FREQ_VERY_HIGH;
    GPIO_InitStruct.Alternate = GPIO_AF10_OTG_FS;
    HAL_GPIO_Init(GPIOA, &GPIO_InitStruct);
 800344e:	4819      	ldr	r0, [pc, #100]	@ (80034b4 <HAL_PCD_MspInit+0x80>)
    __HAL_RCC_GPIOA_CLK_ENABLE();
 8003450:	2500      	movs	r5, #0
 8003452:	9501      	str	r5, [sp, #4]
 8003454:	6b23      	ldr	r3, [r4, #48]	@ 0x30
 8003456:	f043 0301 	orr.w	r3, r3, #1
 800345a:	6323      	str	r3, [r4, #48]	@ 0x30
 800345c:	6b23      	ldr	r3, [r4, #48]	@ 0x30
 800345e:	f003 0301 	and.w	r3, r3, #1
 8003462:	9301      	str	r3, [sp, #4]
    GPIO_InitStruct.Mode = GPIO_MODE_AF_PP;
 8003464:	f44f 52c0 	mov.w	r2, #6144	@ 0x1800
    __HAL_RCC_GPIOA_CLK_ENABLE();
 8003468:	9b01      	ldr	r3, [sp, #4]
    GPIO_InitStruct.Mode = GPIO_MODE_AF_PP;
 800346a:	2302      	movs	r3, #2
 800346c:	e9cd 2303 	strd	r2, r3, [sp, #12]
    GPIO_InitStruct.Alternate = GPIO_AF10_OTG_FS;
 8003470:	2103      	movs	r1, #3
 8003472:	230a      	movs	r3, #10
 8003474:	e9cd 1306 	strd	r1, r3, [sp, #24]
    HAL_GPIO_Init(GPIOA, &GPIO_InitStruct);
 8003478:	a903      	add	r1, sp, #12
 800347a:	f000 fba7 	bl	8003bcc <HAL_GPIO_Init>

    /* Peripheral clock enable */
    __HAL_RCC_USB_OTG_FS_CLK_ENABLE();
 800347e:	6b63      	ldr	r3, [r4, #52]	@ 0x34
 8003480:	f043 0380 	orr.w	r3, r3, #128	@ 0x80
 8003484:	6363      	str	r3, [r4, #52]	@ 0x34
 8003486:	9502      	str	r5, [sp, #8]
 8003488:	6c63      	ldr	r3, [r4, #68]	@ 0x44
 800348a:	f443 4380 	orr.w	r3, r3, #16384	@ 0x4000
 800348e:	6463      	str	r3, [r4, #68]	@ 0x44
 8003490:	6c63      	ldr	r3, [r4, #68]	@ 0x44
 8003492:	f403 4380 	and.w	r3, r3, #16384	@ 0x4000
 8003496:	9302      	str	r3, [sp, #8]

    /* Peripheral interrupt init */
    HAL_NVIC_SetPriority(OTG_FS_IRQn, 6, 0);
 8003498:	2043      	movs	r0, #67	@ 0x43
 800349a:	462a      	mov	r2, r5
 800349c:	2106      	movs	r1, #6
    __HAL_RCC_USB_OTG_FS_CLK_ENABLE();
 800349e:	9b02      	ldr	r3, [sp, #8]
    HAL_NVIC_SetPriority(OTG_FS_IRQn, 6, 0);
 80034a0:	f000 f98a 	bl	80037b8 <HAL_NVIC_SetPriority>
    HAL_NVIC_EnableIRQ(OTG_FS_IRQn);
 80034a4:	2043      	movs	r0, #67	@ 0x43
 80034a6:	f000 f9b9 	bl	800381c <HAL_NVIC_EnableIRQ>
  /* USER CODE BEGIN USB_OTG_FS_MspInit 1 */

  /* USER CODE END USB_OTG_FS_MspInit 1 */
  }
}
 80034aa:	b009      	add	sp, #36	@ 0x24
 80034ac:	bd30      	pop	{r4, r5, pc}
 80034ae:	bf00      	nop
 80034b0:	40023800 	.word	0x40023800
 80034b4:	40020000 	.word	0x40020000

080034b8 <HAL_PCD_SetupStageCallback>:
static void PCD_SetupStageCallback(PCD_HandleTypeDef *hpcd)
#else
void HAL_PCD_SetupStageCallback(PCD_HandleTypeDef *hpcd)
#endif /* USE_HAL_PCD_REGISTER_CALLBACKS */
{
  USBD_LL_SetupStage((USBD_HandleTypeDef*)hpcd->pData, (uint8_t *)hpcd->Setup);
 80034b8:	f200 419c 	addw	r1, r0, #1180	@ 0x49c
 80034bc:	f8d0 04e0 	ldr.w	r0, [r0, #1248]	@ 0x4e0
 80034c0:	f7ff b820 	b.w	8002504 <USBD_LL_SetupStage>

080034c4 <HAL_PCD_DataOutStageCallback>:
static void PCD_DataOutStageCallback(PCD_HandleTypeDef *hpcd, uint8_t epnum)
#else
void HAL_PCD_DataOutStageCallback(PCD_HandleTypeDef *hpcd, uint8_t epnum)
#endif /* USE_HAL_PCD_REGISTER_CALLBACKS */
{
  USBD_LL_DataOutStage((USBD_HandleTypeDef*)hpcd->pData, epnum, hpcd->OUT_ep[epnum].xfer_buff);
 80034c4:	2324      	movs	r3, #36	@ 0x24
 80034c6:	fb03 0301 	mla	r3, r3, r1, r0
 80034ca:	f8d0 04e0 	ldr.w	r0, [r0, #1248]	@ 0x4e0
 80034ce:	f8d3 2260 	ldr.w	r2, [r3, #608]	@ 0x260
 80034d2:	f7ff b847 	b.w	8002564 <USBD_LL_DataOutStage>

080034d6 <HAL_PCD_DataInStageCallback>:
static void PCD_DataInStageCallback(PCD_HandleTypeDef *hpcd, uint8_t epnum)
#else
void HAL_PCD_DataInStageCallback(PCD_HandleTypeDef *hpcd, uint8_t epnum)
#endif /* USE_HAL_PCD_REGISTER_CALLBACKS */
{
  USBD_LL_DataInStage((USBD_HandleTypeDef*)hpcd->pData, epnum, hpcd->IN_ep[epnum].xfer_buff);
 80034d6:	2324      	movs	r3, #36	@ 0x24
 80034d8:	fb03 0301 	mla	r3, r3, r1, r0
 80034dc:	f8d0 04e0 	ldr.w	r0, [r0, #1248]	@ 0x4e0
 80034e0:	6a1a      	ldr	r2, [r3, #32]
 80034e2:	f7ff b879 	b.w	80025d8 <USBD_LL_DataInStage>

080034e6 <HAL_PCD_SOFCallback>:
static void PCD_SOFCallback(PCD_HandleTypeDef *hpcd)
#else
void HAL_PCD_SOFCallback(PCD_HandleTypeDef *hpcd)
#endif /* USE_HAL_PCD_REGISTER_CALLBACKS */
{
  USBD_LL_SOF((USBD_HandleTypeDef*)hpcd->pData);
 80034e6:	f8d0 04e0 	ldr.w	r0, [r0, #1248]	@ 0x4e0
 80034ea:	f7ff b915 	b.w	8002718 <USBD_LL_SOF>

080034ee <HAL_PCD_ResetCallback>:
#if (USE_HAL_PCD_REGISTER_CALLBACKS == 1U)
static void PCD_ResetCallback(PCD_HandleTypeDef *hpcd)
#else
void HAL_PCD_ResetCallback(PCD_HandleTypeDef *hpcd)
#endif /* USE_HAL_PCD_REGISTER_CALLBACKS */
{
 80034ee:	b510      	push	{r4, lr}
   USBD_SpeedTypeDef speed = USBD_SPEED_FULL;

  if ( hpcd->Init.speed != PCD_SPEED_FULL)
 80034f0:	79c3      	ldrb	r3, [r0, #7]
 80034f2:	2b02      	cmp	r3, #2
{
 80034f4:	4604      	mov	r4, r0
  if ( hpcd->Init.speed != PCD_SPEED_FULL)
 80034f6:	d001      	beq.n	80034fc <HAL_PCD_ResetCallback+0xe>
  {
    Error_Handler();
 80034f8:	f7fd feba 	bl	8001270 <Error_Handler>
  }
    /* Set Speed. */
  USBD_LL_SetSpeed((USBD_HandleTypeDef*)hpcd->pData, speed);
 80034fc:	f8d4 04e0 	ldr.w	r0, [r4, #1248]	@ 0x4e0
 8003500:	2101      	movs	r1, #1
 8003502:	f7ff f8ed 	bl	80026e0 <USBD_LL_SetSpeed>

  /* Reset Device. */
  USBD_LL_Reset((USBD_HandleTypeDef*)hpcd->pData);
 8003506:	f8d4 04e0 	ldr.w	r0, [r4, #1248]	@ 0x4e0
}
 800350a:	e8bd 4010 	ldmia.w	sp!, {r4, lr}
  USBD_LL_Reset((USBD_HandleTypeDef*)hpcd->pData);
 800350e:	f7ff b8b7 	b.w	8002680 <USBD_LL_Reset>
	...

08003514 <HAL_PCD_SuspendCallback>:
#if (USE_HAL_PCD_REGISTER_CALLBACKS == 1U)
static void PCD_SuspendCallback(PCD_HandleTypeDef *hpcd)
#else
void HAL_PCD_SuspendCallback(PCD_HandleTypeDef *hpcd)
#endif /* USE_HAL_PCD_REGISTER_CALLBACKS */
{
 8003514:	b510      	push	{r4, lr}
 8003516:	4604      	mov	r4, r0
  /* Inform USB library that core enters in suspend Mode. */
  USBD_LL_Suspend((USBD_HandleTypeDef*)hpcd->pData);
 8003518:	f8d0 04e0 	ldr.w	r0, [r0, #1248]	@ 0x4e0
 800351c:	f7ff f8e3 	bl	80026e6 <USBD_LL_Suspend>
  __HAL_PCD_GATE_PHYCLOCK(hpcd);
 8003520:	6822      	ldr	r2, [r4, #0]
 8003522:	f8d2 3e00 	ldr.w	r3, [r2, #3584]	@ 0xe00
 8003526:	f043 0301 	orr.w	r3, r3, #1
 800352a:	f8c2 3e00 	str.w	r3, [r2, #3584]	@ 0xe00
  /* Enter in STOP mode. */
  /* USER CODE BEGIN 2 */
  if (hpcd->Init.low_power_enable)
 800352e:	7ae3      	ldrb	r3, [r4, #11]
 8003530:	b123      	cbz	r3, 800353c <HAL_PCD_SuspendCallback+0x28>
  {
    /* Set SLEEPDEEP bit and SleepOnExit of Cortex System Control Register. */
    SCB->SCR |= (uint32_t)((uint32_t)(SCB_SCR_SLEEPDEEP_Msk | SCB_SCR_SLEEPONEXIT_Msk));
 8003532:	4a03      	ldr	r2, [pc, #12]	@ (8003540 <HAL_PCD_SuspendCallback+0x2c>)
 8003534:	6913      	ldr	r3, [r2, #16]
 8003536:	f043 0306 	orr.w	r3, r3, #6
 800353a:	6113      	str	r3, [r2, #16]
  }
  /* USER CODE END 2 */
}
 800353c:	bd10      	pop	{r4, pc}
 800353e:	bf00      	nop
 8003540:	e000ed00 	.word	0xe000ed00

08003544 <HAL_PCD_ResumeCallback>:
#endif /* USE_HAL_PCD_REGISTER_CALLBACKS */
{
  /* USER CODE BEGIN 3 */

  /* USER CODE END 3 */
  USBD_LL_Resume((USBD_HandleTypeDef*)hpcd->pData);
 8003544:	f8d0 04e0 	ldr.w	r0, [r0, #1248]	@ 0x4e0
 8003548:	f7ff b8db 	b.w	8002702 <USBD_LL_Resume>

0800354c <HAL_PCD_ISOOUTIncompleteCallback>:
static void PCD_ISOOUTIncompleteCallback(PCD_HandleTypeDef *hpcd, uint8_t epnum)
#else
void HAL_PCD_ISOOUTIncompleteCallback(PCD_HandleTypeDef *hpcd, uint8_t epnum)
#endif /* USE_HAL_PCD_REGISTER_CALLBACKS */
{
  USBD_LL_IsoOUTIncomplete((USBD_HandleTypeDef*)hpcd->pData, epnum);
 800354c:	f8d0 04e0 	ldr.w	r0, [r0, #1248]	@ 0x4e0
 8003550:	f7ff b902 	b.w	8002758 <USBD_LL_IsoOUTIncomplete>

08003554 <HAL_PCD_ISOINIncompleteCallback>:
static void PCD_ISOINIncompleteCallback(PCD_HandleTypeDef *hpcd, uint8_t epnum)
#else
void HAL_PCD_ISOINIncompleteCallback(PCD_HandleTypeDef *hpcd, uint8_t epnum)
#endif /* USE_HAL_PCD_REGISTER_CALLBACKS */
{
  USBD_LL_IsoINIncomplete((USBD_HandleTypeDef*)hpcd->pData, epnum);
 8003554:	f8d0 04e0 	ldr.w	r0, [r0, #1248]	@ 0x4e0
 8003558:	f7ff b8eb 	b.w	8002732 <USBD_LL_IsoINIncomplete>

0800355c <HAL_PCD_ConnectCallback>:
static void PCD_ConnectCallback(PCD_HandleTypeDef *hpcd)
#else
void HAL_PCD_ConnectCallback(PCD_HandleTypeDef *hpcd)
#endif /* USE_HAL_PCD_REGISTER_CALLBACKS */
{
  USBD_LL_DevConnected((USBD_HandleTypeDef*)hpcd->pData);
 800355c:	f8d0 04e0 	ldr.w	r0, [r0, #1248]	@ 0x4e0
 8003560:	f7ff b90d 	b.w	800277e <USBD_LL_DevConnected>

08003564 <HAL_PCD_DisconnectCallback>:
static void PCD_DisconnectCallback(PCD_HandleTypeDef *hpcd)
#else
void HAL_PCD_DisconnectCallback(PCD_HandleTypeDef *hpcd)
#endif /* USE_HAL_PCD_REGISTER_CALLBACKS */
{
  USBD_LL_DevDisconnected((USBD_HandleTypeDef*)hpcd->pData);
 8003564:	f8d0 04e0 	ldr.w	r0, [r0, #1248]	@ 0x4e0
 8003568:	f7ff b90b 	b.w	8002782 <USBD_LL_DevDisconnected>

0800356c <USBD_LL_Init>:
  * @brief  Initializes the low level portion of the device driver.
  * @param  pdev: Device handle
  * @retval USBD status
  */
USBD_StatusTypeDef USBD_LL_Init(USBD_HandleTypeDef *pdev)
{
 800356c:	b508      	push	{r3, lr}
  /* Init USB Ip. */
  if (pdev->id == DEVICE_FS) {
 800356e:	7802      	ldrb	r2, [r0, #0]
{
 8003570:	4603      	mov	r3, r0
  if (pdev->id == DEVICE_FS) {
 8003572:	bb2a      	cbnz	r2, 80035c0 <USBD_LL_Init+0x54>
  /* Link the driver to the stack. */
  hpcd_USB_OTG_FS.pData = pdev;
 8003574:	4813      	ldr	r0, [pc, #76]	@ (80035c4 <USBD_LL_Init+0x58>)
 8003576:	f8c0 34e0 	str.w	r3, [r0, #1248]	@ 0x4e0
  pdev->pData = &hpcd_USB_OTG_FS;
 800357a:	f8c3 02c8 	str.w	r0, [r3, #712]	@ 0x2c8

  hpcd_USB_OTG_FS.Instance = USB_OTG_FS;
 800357e:	f04f 43a0 	mov.w	r3, #1342177280	@ 0x50000000
 8003582:	6003      	str	r3, [r0, #0]
  hpcd_USB_OTG_FS.Init.dev_endpoints = 4;
 8003584:	2304      	movs	r3, #4
 8003586:	7103      	strb	r3, [r0, #4]
  hpcd_USB_OTG_FS.Init.speed = PCD_SPEED_FULL;
  hpcd_USB_OTG_FS.Init.dma_enable = DISABLE;
 8003588:	f44f 7300 	mov.w	r3, #512	@ 0x200
 800358c:	80c3      	strh	r3, [r0, #6]
  hpcd_USB_OTG_FS.Init.phy_itface = PCD_PHY_EMBEDDED;
 800358e:	2302      	movs	r3, #2
 8003590:	7243      	strb	r3, [r0, #9]
  hpcd_USB_OTG_FS.Init.Sof_enable = ENABLE;
 8003592:	2301      	movs	r3, #1
 8003594:	8143      	strh	r3, [r0, #10]
  hpcd_USB_OTG_FS.Init.low_power_enable = DISABLE;
  hpcd_USB_OTG_FS.Init.lpm_enable = DISABLE;
 8003596:	7302      	strb	r2, [r0, #12]
  hpcd_USB_OTG_FS.Init.vbus_sensing_enable = DISABLE;
 8003598:	81c2      	strh	r2, [r0, #14]
  hpcd_USB_OTG_FS.Init.use_dedicated_ep1 = DISABLE;
  if (HAL_PCD_Init(&hpcd_USB_OTG_FS) != HAL_OK)
 800359a:	f000 fbf1 	bl	8003d80 <HAL_PCD_Init>
 800359e:	b108      	cbz	r0, 80035a4 <USBD_LL_Init+0x38>
  {
    Error_Handler( );
 80035a0:	f7fd fe66 	bl	8001270 <Error_Handler>
  HAL_PCD_RegisterDataOutStageCallback(&hpcd_USB_OTG_FS, PCD_DataOutStageCallback);
  HAL_PCD_RegisterDataInStageCallback(&hpcd_USB_OTG_FS, PCD_DataInStageCallback);
  HAL_PCD_RegisterIsoOutIncpltCallback(&hpcd_USB_OTG_FS, PCD_ISOOUTIncompleteCallback);
  HAL_PCD_RegisterIsoInIncpltCallback(&hpcd_USB_OTG_FS, PCD_ISOINIncompleteCallback);
#endif /* USE_HAL_PCD_REGISTER_CALLBACKS */
  HAL_PCDEx_SetRxFiFo(&hpcd_USB_OTG_FS, 0x80);
 80035a4:	2180      	movs	r1, #128	@ 0x80
 80035a6:	4807      	ldr	r0, [pc, #28]	@ (80035c4 <USBD_LL_Init+0x58>)
 80035a8:	f001 f917 	bl	80047da <HAL_PCDEx_SetRxFiFo>
  HAL_PCDEx_SetTxFiFo(&hpcd_USB_OTG_FS, 0, 0x40);
 80035ac:	2240      	movs	r2, #64	@ 0x40
 80035ae:	2100      	movs	r1, #0
 80035b0:	4804      	ldr	r0, [pc, #16]	@ (80035c4 <USBD_LL_Init+0x58>)
 80035b2:	f001 f8f3 	bl	800479c <HAL_PCDEx_SetTxFiFo>
  HAL_PCDEx_SetTxFiFo(&hpcd_USB_OTG_FS, 1, 0x80);
 80035b6:	4803      	ldr	r0, [pc, #12]	@ (80035c4 <USBD_LL_Init+0x58>)
 80035b8:	2280      	movs	r2, #128	@ 0x80
 80035ba:	2101      	movs	r1, #1
 80035bc:	f001 f8ee 	bl	800479c <HAL_PCDEx_SetTxFiFo>
  }
  return USBD_OK;
}
 80035c0:	2000      	movs	r0, #0
 80035c2:	bd08      	pop	{r3, pc}
 80035c4:	20001a50 	.word	0x20001a50

080035c8 <USBD_LL_IsStallEP>:
  */
uint8_t USBD_LL_IsStallEP(USBD_HandleTypeDef *pdev, uint8_t ep_addr)
{
  PCD_HandleTypeDef *hpcd = (PCD_HandleTypeDef*) pdev->pData;

  if((ep_addr & 0x80) == 0x80)
 80035c8:	f011 0f80 	tst.w	r1, #128	@ 0x80
  PCD_HandleTypeDef *hpcd = (PCD_HandleTypeDef*) pdev->pData;
 80035cc:	f8d0 32c8 	ldr.w	r3, [r0, #712]	@ 0x2c8
  if((ep_addr & 0x80) == 0x80)
 80035d0:	f04f 0224 	mov.w	r2, #36	@ 0x24
  {
    return hpcd->IN_ep[ep_addr & 0x7F].is_stall;
 80035d4:	bf1b      	ittet	ne
 80035d6:	f001 017f 	andne.w	r1, r1, #127	@ 0x7f
 80035da:	fb02 3301 	mlane	r3, r2, r1, r3
  }
  else
  {
    return hpcd->OUT_ep[ep_addr & 0x7F].is_stall;
 80035de:	fb02 3301 	mlaeq	r3, r2, r1, r3
    return hpcd->IN_ep[ep_addr & 0x7F].is_stall;
 80035e2:	7d98      	ldrbne	r0, [r3, #22]
    return hpcd->OUT_ep[ep_addr & 0x7F].is_stall;
 80035e4:	bf08      	it	eq
 80035e6:	f893 0256 	ldrbeq.w	r0, [r3, #598]	@ 0x256
  }
}
 80035ea:	4770      	bx	lr

080035ec <USBD_LL_GetRxDataSize>:
  * @param  ep_addr: Endpoint number
  * @retval Received Data Size
  */
uint32_t USBD_LL_GetRxDataSize(USBD_HandleTypeDef *pdev, uint8_t ep_addr)
{
  return HAL_PCD_EP_GetRxCount((PCD_HandleTypeDef*) pdev->pData, ep_addr);
 80035ec:	f8d0 02c8 	ldr.w	r0, [r0, #712]	@ 0x2c8
 80035f0:	f000 bcec 	b.w	8003fcc <HAL_PCD_EP_GetRxCount>

080035f4 <USBD_static_malloc>:
  */
void *USBD_static_malloc(uint32_t size)
{
  static uint32_t mem[(sizeof(USBD_CDC_HandleTypeDef)/4)+1];/* On 32-bit boundary */
  return mem;
}
 80035f4:	4800      	ldr	r0, [pc, #0]	@ (80035f8 <USBD_static_malloc+0x4>)
 80035f6:	4770      	bx	lr
 80035f8:	20001830 	.word	0x20001830

080035fc <USBD_static_free>:
  * @retval None
  */
void USBD_static_free(void *p)
{

}
 80035fc:	4770      	bx	lr

080035fe <USBD_Get_USB_Status>:
  */
USBD_StatusTypeDef USBD_Get_USB_Status(HAL_StatusTypeDef hal_status)
{
  USBD_StatusTypeDef usb_status = USBD_OK;

  switch (hal_status)
 80035fe:	b118      	cbz	r0, 8003608 <USBD_Get_USB_Status+0xa>
 8003600:	2802      	cmp	r0, #2
 8003602:	bf0c      	ite	eq
 8003604:	2001      	moveq	r0, #1
 8003606:	2003      	movne	r0, #3
    default :
      usb_status = USBD_FAIL;
    break;
  }
  return usb_status;
}
 8003608:	4770      	bx	lr

0800360a <USBD_LL_Start>:
{
 800360a:	b508      	push	{r3, lr}
  hal_status = HAL_PCD_Start(pdev->pData);
 800360c:	f8d0 02c8 	ldr.w	r0, [r0, #712]	@ 0x2c8
 8003610:	f000 fc25 	bl	8003e5e <HAL_PCD_Start>
}
 8003614:	e8bd 4008 	ldmia.w	sp!, {r3, lr}
  usb_status =  USBD_Get_USB_Status(hal_status);
 8003618:	f7ff bff1 	b.w	80035fe <USBD_Get_USB_Status>

0800361c <USBD_LL_OpenEP>:
{
 800361c:	b510      	push	{r4, lr}
 800361e:	4614      	mov	r4, r2
  hal_status = HAL_PCD_EP_Open(pdev->pData, ep_addr, ep_mps, ep_type);
 8003620:	f8d0 02c8 	ldr.w	r0, [r0, #712]	@ 0x2c8
{
 8003624:	461a      	mov	r2, r3
  hal_status = HAL_PCD_EP_Open(pdev->pData, ep_addr, ep_mps, ep_type);
 8003626:	4623      	mov	r3, r4
 8003628:	f000 fc4b 	bl	8003ec2 <HAL_PCD_EP_Open>
}
 800362c:	e8bd 4010 	ldmia.w	sp!, {r4, lr}
  usb_status =  USBD_Get_USB_Status(hal_status);
 8003630:	f7ff bfe5 	b.w	80035fe <USBD_Get_USB_Status>

08003634 <USBD_LL_CloseEP>:
{
 8003634:	b508      	push	{r3, lr}
  hal_status = HAL_PCD_EP_Close(pdev->pData, ep_addr);
 8003636:	f8d0 02c8 	ldr.w	r0, [r0, #712]	@ 0x2c8
 800363a:	f000 fc7b 	bl	8003f34 <HAL_PCD_EP_Close>
}
 800363e:	e8bd 4008 	ldmia.w	sp!, {r3, lr}
  usb_status =  USBD_Get_USB_Status(hal_status);
 8003642:	f7ff bfdc 	b.w	80035fe <USBD_Get_USB_Status>

08003646 <USBD_LL_StallEP>:
{
 8003646:	b508      	push	{r3, lr}
  hal_status = HAL_PCD_EP_SetStall(pdev->pData, ep_addr);
 8003648:	f8d0 02c8 	ldr.w	r0, [r0, #712]	@ 0x2c8
 800364c:	f000 fce1 	bl	8004012 <HAL_PCD_EP_SetStall>
}
 8003650:	e8bd 4008 	ldmia.w	sp!, {r3, lr}
  usb_status =  USBD_Get_USB_Status(hal_status);
 8003654:	f7ff bfd3 	b.w	80035fe <USBD_Get_USB_Status>

08003658 <USBD_LL_ClearStallEP>:
{
 8003658:	b508      	push	{r3, lr}
  hal_status = HAL_PCD_EP_ClrStall(pdev->pData, ep_addr);
 800365a:	f8d0 02c8 	ldr.w	r0, [r0, #712]	@ 0x2c8
 800365e:	f000 fd0f 	bl	8004080 <HAL_PCD_EP_ClrStall>
}
 8003662:	e8bd 4008 	ldmia.w	sp!, {r3, lr}
  usb_status =  USBD_Get_USB_Status(hal_status);
 8003666:	f7ff bfca 	b.w	80035fe <USBD_Get_USB_Status>

0800366a <USBD_LL_SetUSBAddress>:
{
 800366a:	b508      	push	{r3, lr}
  hal_status = HAL_PCD_SetAddress(pdev->pData, dev_addr);
 800366c:	f8d0 02c8 	ldr.w	r0, [r0, #712]	@ 0x2c8
 8003670:	f000 fc14 	bl	8003e9c <HAL_PCD_SetAddress>
}
 8003674:	e8bd 4008 	ldmia.w	sp!, {r3, lr}
  usb_status =  USBD_Get_USB_Status(hal_status);
 8003678:	f7ff bfc1 	b.w	80035fe <USBD_Get_USB_Status>

0800367c <USBD_LL_Transmit>:
{
 800367c:	b508      	push	{r3, lr}
  hal_status = HAL_PCD_EP_Transmit(pdev->pData, ep_addr, pbuf, size);
 800367e:	f8d0 02c8 	ldr.w	r0, [r0, #712]	@ 0x2c8
 8003682:	f000 fcab 	bl	8003fdc <HAL_PCD_EP_Transmit>
}
 8003686:	e8bd 4008 	ldmia.w	sp!, {r3, lr}
  usb_status =  USBD_Get_USB_Status(hal_status);
 800368a:	f7ff bfb8 	b.w	80035fe <USBD_Get_USB_Status>

0800368e <USBD_LL_PrepareReceive>:
{
 800368e:	b508      	push	{r3, lr}
  hal_status = HAL_PCD_EP_Receive(pdev->pData, ep_addr, pbuf, size);
 8003690:	f8d0 02c8 	ldr.w	r0, [r0, #712]	@ 0x2c8
 8003694:	f000 fc7c 	bl	8003f90 <HAL_PCD_EP_Receive>
}
 8003698:	e8bd 4008 	ldmia.w	sp!, {r3, lr}
  usb_status =  USBD_Get_USB_Status(hal_status);
 800369c:	f7ff bfaf 	b.w	80035fe <USBD_Get_USB_Status>

080036a0 <hwInit>:

#include "hw.h"


void hwInit(void)
{
 80036a0:	b508      	push	{r3, lr}
  bspInit();
 80036a2:	f7fd fdc5 	bl	8001230 <bspInit>

  cliInit();
 80036a6:	f7fe fad7 	bl	8001c58 <cliInit>
  ledInit();
 80036aa:	f7fe fc2f 	bl	8001f0c <ledInit>
  usbInit();
 80036ae:	f7fe fcc4 	bl	800203a <usbInit>
  uartInit();
 80036b2:	f7fe fc93 	bl	8001fdc <uartInit>
  buttonInit();
 80036b6:	f7fd fe99 	bl	80013ec <buttonInit>
  flashInit();
 80036ba:	f7fe fb03 	bl	8001cc4 <flashInit>
  ymodemInit();
 80036be:	f7fe fcf3 	bl	80020a8 <ymodemInit>
  usbBegin(USB_CDC_MODE);
}
 80036c2:	e8bd 4008 	ldmia.w	sp!, {r3, lr}
  usbBegin(USB_CDC_MODE);
 80036c6:	2001      	movs	r0, #1
 80036c8:	f7fe bcba 	b.w	8002040 <usbBegin>

080036cc <HAL_InitTick>:
  *       implementation  in user file.
  * @param TickPriority Tick interrupt priority.
  * @retval HAL status
  */
__weak HAL_StatusTypeDef HAL_InitTick(uint32_t TickPriority)
{
 80036cc:	b538      	push	{r3, r4, r5, lr}
  /* Configure the SysTick to have interrupt in 1ms time basis*/
  if (HAL_SYSTICK_Config(SystemCoreClock / (1000U / uwTickFreq)) > 0U)
 80036ce:	4b0e      	ldr	r3, [pc, #56]	@ (8003708 <HAL_InitTick+0x3c>)
 80036d0:	781a      	ldrb	r2, [r3, #0]
 80036d2:	f44f 737a 	mov.w	r3, #1000	@ 0x3e8
 80036d6:	fbb3 f3f2 	udiv	r3, r3, r2
 80036da:	4a0c      	ldr	r2, [pc, #48]	@ (800370c <HAL_InitTick+0x40>)
{
 80036dc:	4605      	mov	r5, r0
  if (HAL_SYSTICK_Config(SystemCoreClock / (1000U / uwTickFreq)) > 0U)
 80036de:	6810      	ldr	r0, [r2, #0]
 80036e0:	fbb0 f0f3 	udiv	r0, r0, r3
 80036e4:	f000 f8a8 	bl	8003838 <HAL_SYSTICK_Config>
 80036e8:	4604      	mov	r4, r0
 80036ea:	b958      	cbnz	r0, 8003704 <HAL_InitTick+0x38>
  {
    return HAL_ERROR;
  }

  /* Configure the SysTick IRQ priority */
  if (TickPriority < (1UL << __NVIC_PRIO_BITS))
 80036ec:	2d0f      	cmp	r5, #15
 80036ee:	d809      	bhi.n	8003704 <HAL_InitTick+0x38>
  {
    HAL_NVIC_SetPriority(SysTick_IRQn, TickPriority, 0U);
 80036f0:	4602      	mov	r2, r0
 80036f2:	4629      	mov	r1, r5
 80036f4:	f04f 30ff 	mov.w	r0, #4294967295
 80036f8:	f000 f85e 	bl	80037b8 <HAL_NVIC_SetPriority>
    uwTickPrio = TickPriority;
 80036fc:	4b04      	ldr	r3, [pc, #16]	@ (8003710 <HAL_InitTick+0x44>)
 80036fe:	4620      	mov	r0, r4
 8003700:	601d      	str	r5, [r3, #0]
    return HAL_ERROR;
  }

  /* Return function status */
  return HAL_OK;
}
 8003702:	bd38      	pop	{r3, r4, r5, pc}
    return HAL_ERROR;
 8003704:	2001      	movs	r0, #1
 8003706:	e7fc      	b.n	8003702 <HAL_InitTick+0x36>
 8003708:	20000110 	.word	0x20000110
 800370c:	20000000 	.word	0x20000000
 8003710:	20000114 	.word	0x20000114

08003714 <HAL_Init>:
{
 8003714:	b508      	push	{r3, lr}
  __HAL_FLASH_INSTRUCTION_CACHE_ENABLE();
 8003716:	4b0b      	ldr	r3, [pc, #44]	@ (8003744 <HAL_Init+0x30>)
 8003718:	681a      	ldr	r2, [r3, #0]
 800371a:	f442 7200 	orr.w	r2, r2, #512	@ 0x200
 800371e:	601a      	str	r2, [r3, #0]
  __HAL_FLASH_DATA_CACHE_ENABLE();
 8003720:	681a      	ldr	r2, [r3, #0]
 8003722:	f442 6280 	orr.w	r2, r2, #1024	@ 0x400
 8003726:	601a      	str	r2, [r3, #0]
  __HAL_FLASH_PREFETCH_BUFFER_ENABLE();
 8003728:	681a      	ldr	r2, [r3, #0]
 800372a:	f442 7280 	orr.w	r2, r2, #256	@ 0x100
 800372e:	601a      	str	r2, [r3, #0]
  HAL_NVIC_SetPriorityGrouping(NVIC_PRIORITYGROUP_4);
 8003730:	2003      	movs	r0, #3
 8003732:	f000 f82f 	bl	8003794 <HAL_NVIC_SetPriorityGrouping>
  HAL_InitTick(TICK_INT_PRIORITY);
 8003736:	2000      	movs	r0, #0
 8003738:	f7ff ffc8 	bl	80036cc <HAL_InitTick>
  HAL_MspInit();
 800373c:	f7fd fd9a 	bl	8001274 <HAL_MspInit>
}
 8003740:	2000      	movs	r0, #0
 8003742:	bd08      	pop	{r3, pc}
 8003744:	40023c00 	.word	0x40023c00

08003748 <HAL_IncTick>:
  *      implementations in user file.
  * @retval None
  */
__weak void HAL_IncTick(void)
{
  uwTick += uwTickFreq;
 8003748:	4a03      	ldr	r2, [pc, #12]	@ (8003758 <HAL_IncTick+0x10>)
 800374a:	4b04      	ldr	r3, [pc, #16]	@ (800375c <HAL_IncTick+0x14>)
 800374c:	6811      	ldr	r1, [r2, #0]
 800374e:	781b      	ldrb	r3, [r3, #0]
 8003750:	440b      	add	r3, r1
 8003752:	6013      	str	r3, [r2, #0]
}
 8003754:	4770      	bx	lr
 8003756:	bf00      	nop
 8003758:	20001f34 	.word	0x20001f34
 800375c:	20000110 	.word	0x20000110

08003760 <HAL_GetTick>:
  *       implementations in user file.
  * @retval tick value
  */
__weak uint32_t HAL_GetTick(void)
{
  return uwTick;
 8003760:	4b01      	ldr	r3, [pc, #4]	@ (8003768 <HAL_GetTick+0x8>)
 8003762:	6818      	ldr	r0, [r3, #0]
}
 8003764:	4770      	bx	lr
 8003766:	bf00      	nop
 8003768:	20001f34 	.word	0x20001f34

0800376c <HAL_Delay>:
  *       implementations in user file.
  * @param Delay specifies the delay time length, in milliseconds.
  * @retval None
  */
__weak void HAL_Delay(uint32_t Delay)
{
 800376c:	b538      	push	{r3, r4, r5, lr}
 800376e:	4604      	mov	r4, r0
  uint32_t tickstart = HAL_GetTick();
 8003770:	f7ff fff6 	bl	8003760 <HAL_GetTick>
  uint32_t wait = Delay;

  /* Add a freq to guarantee minimum wait */
  if (wait < HAL_MAX_DELAY)
 8003774:	1c63      	adds	r3, r4, #1
  {
    wait += (uint32_t)(uwTickFreq);
 8003776:	bf1c      	itt	ne
 8003778:	4b05      	ldrne	r3, [pc, #20]	@ (8003790 <HAL_Delay+0x24>)
 800377a:	781b      	ldrbne	r3, [r3, #0]
  uint32_t tickstart = HAL_GetTick();
 800377c:	4605      	mov	r5, r0
    wait += (uint32_t)(uwTickFreq);
 800377e:	bf18      	it	ne
 8003780:	18e4      	addne	r4, r4, r3
  }

  while((HAL_GetTick() - tickstart) < wait)
 8003782:	f7ff ffed 	bl	8003760 <HAL_GetTick>
 8003786:	1b43      	subs	r3, r0, r5
 8003788:	42a3      	cmp	r3, r4
 800378a:	d3fa      	bcc.n	8003782 <HAL_Delay+0x16>
  {
  }
}
 800378c:	bd38      	pop	{r3, r4, r5, pc}
 800378e:	bf00      	nop
 8003790:	20000110 	.word	0x20000110

08003794 <HAL_NVIC_SetPriorityGrouping>:
__STATIC_INLINE void __NVIC_SetPriorityGrouping(uint32_t PriorityGroup)
{
  uint32_t reg_value;
  uint32_t PriorityGroupTmp = (PriorityGroup & (uint32_t)0x07UL);             /* only values 0..7 are used          */

  reg_value  =  SCB->AIRCR;                                                   /* read old register configuration    */
 8003794:	4907      	ldr	r1, [pc, #28]	@ (80037b4 <HAL_NVIC_SetPriorityGrouping+0x20>)
 8003796:	68ca      	ldr	r2, [r1, #12]
  reg_value &= ~((uint32_t)(SCB_AIRCR_VECTKEY_Msk | SCB_AIRCR_PRIGROUP_Msk)); /* clear bits to change               */
 8003798:	f422 62e0 	bic.w	r2, r2, #1792	@ 0x700
  reg_value  =  (reg_value                                   |
                ((uint32_t)0x5FAUL << SCB_AIRCR_VECTKEY_Pos) |
                (PriorityGroupTmp << SCB_AIRCR_PRIGROUP_Pos)  );              /* Insert write key and priority group */
 800379c:	0203      	lsls	r3, r0, #8
  reg_value &= ~((uint32_t)(SCB_AIRCR_VECTKEY_Msk | SCB_AIRCR_PRIGROUP_Msk)); /* clear bits to change               */
 800379e:	0412      	lsls	r2, r2, #16
                (PriorityGroupTmp << SCB_AIRCR_PRIGROUP_Pos)  );              /* Insert write key and priority group */
 80037a0:	f403 63e0 	and.w	r3, r3, #1792	@ 0x700
  reg_value &= ~((uint32_t)(SCB_AIRCR_VECTKEY_Msk | SCB_AIRCR_PRIGROUP_Msk)); /* clear bits to change               */
 80037a4:	0c12      	lsrs	r2, r2, #16
                ((uint32_t)0x5FAUL << SCB_AIRCR_VECTKEY_Pos) |
 80037a6:	4313      	orrs	r3, r2
  reg_value  =  (reg_value                                   |
 80037a8:	f043 63bf 	orr.w	r3, r3, #100139008	@ 0x5f80000
 80037ac:	f443 3300 	orr.w	r3, r3, #131072	@ 0x20000
  SCB->AIRCR =  reg_value;
 80037b0:	60cb      	str	r3, [r1, #12]
  /* Check the parameters */
  assert_param(IS_NVIC_PRIORITY_GROUP(PriorityGroup));
  
  /* Set the PRIGROUP[10:8] bits according to the PriorityGroup parameter value */
  NVIC_SetPriorityGrouping(PriorityGroup);
}
 80037b2:	4770      	bx	lr
 80037b4:	e000ed00 	.word	0xe000ed00

080037b8 <HAL_NVIC_SetPriority>:
  \details Reads the priority grouping field from the NVIC Interrupt Controller.
  \return                Priority grouping field (SCB->AIRCR [10:8] PRIGROUP field).
 */
__STATIC_INLINE uint32_t __NVIC_GetPriorityGrouping(void)
{
  return ((uint32_t)((SCB->AIRCR & SCB_AIRCR_PRIGROUP_Msk) >> SCB_AIRCR_PRIGROUP_Pos));
 80037b8:	4b16      	ldr	r3, [pc, #88]	@ (8003814 <HAL_NVIC_SetPriority+0x5c>)
  *         This parameter can be a value between 0 and 15
  *         A lower priority value indicates a higher priority.          
  * @retval None
  */
void HAL_NVIC_SetPriority(IRQn_Type IRQn, uint32_t PreemptPriority, uint32_t SubPriority)
{ 
 80037ba:	b530      	push	{r4, r5, lr}
 80037bc:	68dc      	ldr	r4, [r3, #12]
 80037be:	f3c4 2402 	ubfx	r4, r4, #8, #3
{
  uint32_t PriorityGroupTmp = (PriorityGroup & (uint32_t)0x07UL);   /* only values 0..7 are used          */
  uint32_t PreemptPriorityBits;
  uint32_t SubPriorityBits;

  PreemptPriorityBits = ((7UL - PriorityGroupTmp) > (uint32_t)(__NVIC_PRIO_BITS)) ? (uint32_t)(__NVIC_PRIO_BITS) : (uint32_t)(7UL - PriorityGroupTmp);
 80037c2:	f1c4 0307 	rsb	r3, r4, #7
  SubPriorityBits     = ((PriorityGroupTmp + (uint32_t)(__NVIC_PRIO_BITS)) < (uint32_t)7UL) ? (uint32_t)0UL : (uint32_t)((PriorityGroupTmp - 7UL) + (uint32_t)(__NVIC_PRIO_BITS));
 80037c6:	1d25      	adds	r5, r4, #4
  PreemptPriorityBits = ((7UL - PriorityGroupTmp) > (uint32_t)(__NVIC_PRIO_BITS)) ? (uint32_t)(__NVIC_PRIO_BITS) : (uint32_t)(7UL - PriorityGroupTmp);
 80037c8:	2b04      	cmp	r3, #4
 80037ca:	bf28      	it	cs
 80037cc:	2304      	movcs	r3, #4
  SubPriorityBits     = ((PriorityGroupTmp + (uint32_t)(__NVIC_PRIO_BITS)) < (uint32_t)7UL) ? (uint32_t)0UL : (uint32_t)((PriorityGroupTmp - 7UL) + (uint32_t)(__NVIC_PRIO_BITS));
 80037ce:	2d06      	cmp	r5, #6

  return (
           ((PreemptPriority & (uint32_t)((1UL << (PreemptPriorityBits)) - 1UL)) << SubPriorityBits) |
 80037d0:	f04f 35ff 	mov.w	r5, #4294967295
  SubPriorityBits     = ((PriorityGroupTmp + (uint32_t)(__NVIC_PRIO_BITS)) < (uint32_t)7UL) ? (uint32_t)0UL : (uint32_t)((PriorityGroupTmp - 7UL) + (uint32_t)(__NVIC_PRIO_BITS));
 80037d4:	bf8c      	ite	hi
 80037d6:	3c03      	subhi	r4, #3
 80037d8:	2400      	movls	r4, #0
           ((PreemptPriority & (uint32_t)((1UL << (PreemptPriorityBits)) - 1UL)) << SubPriorityBits) |
 80037da:	fa05 f303 	lsl.w	r3, r5, r3
 80037de:	ea21 0303 	bic.w	r3, r1, r3
           ((SubPriority     & (uint32_t)((1UL << (SubPriorityBits    )) - 1UL)))
 80037e2:	40a5      	lsls	r5, r4
 80037e4:	ea22 0205 	bic.w	r2, r2, r5
           ((PreemptPriority & (uint32_t)((1UL << (PreemptPriorityBits)) - 1UL)) << SubPriorityBits) |
 80037e8:	40a3      	lsls	r3, r4
  if ((int32_t)(IRQn) >= 0)
 80037ea:	2800      	cmp	r0, #0
           ((PreemptPriority & (uint32_t)((1UL << (PreemptPriorityBits)) - 1UL)) << SubPriorityBits) |
 80037ec:	ea43 0302 	orr.w	r3, r3, r2
    NVIC->IP[((uint32_t)IRQn)]               = (uint8_t)((priority << (8U - __NVIC_PRIO_BITS)) & (uint32_t)0xFFUL);
 80037f0:	bfac      	ite	ge
 80037f2:	f100 4060 	addge.w	r0, r0, #3758096384	@ 0xe0000000
    SCB->SHP[(((uint32_t)IRQn) & 0xFUL)-4UL] = (uint8_t)((priority << (8U - __NVIC_PRIO_BITS)) & (uint32_t)0xFFUL);
 80037f6:	4a08      	ldrlt	r2, [pc, #32]	@ (8003818 <HAL_NVIC_SetPriority+0x60>)
    NVIC->IP[((uint32_t)IRQn)]               = (uint8_t)((priority << (8U - __NVIC_PRIO_BITS)) & (uint32_t)0xFFUL);
 80037f8:	ea4f 1303 	mov.w	r3, r3, lsl #4
    SCB->SHP[(((uint32_t)IRQn) & 0xFUL)-4UL] = (uint8_t)((priority << (8U - __NVIC_PRIO_BITS)) & (uint32_t)0xFFUL);
 80037fc:	bfb8      	it	lt
 80037fe:	f000 000f 	andlt.w	r0, r0, #15
    NVIC->IP[((uint32_t)IRQn)]               = (uint8_t)((priority << (8U - __NVIC_PRIO_BITS)) & (uint32_t)0xFFUL);
 8003802:	b2db      	uxtb	r3, r3
 8003804:	bfaa      	itet	ge
 8003806:	f500 4061 	addge.w	r0, r0, #57600	@ 0xe100
    SCB->SHP[(((uint32_t)IRQn) & 0xFUL)-4UL] = (uint8_t)((priority << (8U - __NVIC_PRIO_BITS)) & (uint32_t)0xFFUL);
 800380a:	5413      	strblt	r3, [r2, r0]
    NVIC->IP[((uint32_t)IRQn)]               = (uint8_t)((priority << (8U - __NVIC_PRIO_BITS)) & (uint32_t)0xFFUL);
 800380c:	f880 3300 	strbge.w	r3, [r0, #768]	@ 0x300
  assert_param(IS_NVIC_PREEMPTION_PRIORITY(PreemptPriority));
  
  prioritygroup = NVIC_GetPriorityGrouping();
  
  NVIC_SetPriority(IRQn, NVIC_EncodePriority(prioritygroup, PreemptPriority, SubPriority));
}
 8003810:	bd30      	pop	{r4, r5, pc}
 8003812:	bf00      	nop
 8003814:	e000ed00 	.word	0xe000ed00
 8003818:	e000ed14 	.word	0xe000ed14

0800381c <HAL_NVIC_EnableIRQ>:
  if ((int32_t)(IRQn) >= 0)
 800381c:	2800      	cmp	r0, #0
 800381e:	db07      	blt.n	8003830 <HAL_NVIC_EnableIRQ+0x14>
    NVIC->ISER[(((uint32_t)IRQn) >> 5UL)] = (uint32_t)(1UL << (((uint32_t)IRQn) & 0x1FUL));
 8003820:	4a04      	ldr	r2, [pc, #16]	@ (8003834 <HAL_NVIC_EnableIRQ+0x18>)
 8003822:	0941      	lsrs	r1, r0, #5
 8003824:	2301      	movs	r3, #1
 8003826:	f000 001f 	and.w	r0, r0, #31
 800382a:	4083      	lsls	r3, r0
 800382c:	f842 3021 	str.w	r3, [r2, r1, lsl #2]
  /* Check the parameters */
  assert_param(IS_NVIC_DEVICE_IRQ(IRQn));
  
  /* Enable interrupt */
  NVIC_EnableIRQ(IRQn);
}
 8003830:	4770      	bx	lr
 8003832:	bf00      	nop
 8003834:	e000e100 	.word	0xe000e100

08003838 <HAL_SYSTICK_Config>:
           function <b>SysTick_Config</b> is not included. In this case, the file <b><i>device</i>.h</b>
           must contain a vendor-specific implementation of this function.
 */
__STATIC_INLINE uint32_t SysTick_Config(uint32_t ticks)
{
  if ((ticks - 1UL) > SysTick_LOAD_RELOAD_Msk)
 8003838:	3801      	subs	r0, #1
 800383a:	f1b0 7f80 	cmp.w	r0, #16777216	@ 0x1000000
 800383e:	d20b      	bcs.n	8003858 <HAL_SYSTICK_Config+0x20>
  {
    return (1UL);                                                   /* Reload value impossible */
  }

  SysTick->LOAD  = (uint32_t)(ticks - 1UL);                         /* set reload register */
 8003840:	f04f 23e0 	mov.w	r3, #3758153728	@ 0xe000e000
    SCB->SHP[(((uint32_t)IRQn) & 0xFUL)-4UL] = (uint8_t)((priority << (8U - __NVIC_PRIO_BITS)) & (uint32_t)0xFFUL);
 8003844:	4a05      	ldr	r2, [pc, #20]	@ (800385c <HAL_SYSTICK_Config+0x24>)
  SysTick->LOAD  = (uint32_t)(ticks - 1UL);                         /* set reload register */
 8003846:	6158      	str	r0, [r3, #20]
    SCB->SHP[(((uint32_t)IRQn) & 0xFUL)-4UL] = (uint8_t)((priority << (8U - __NVIC_PRIO_BITS)) & (uint32_t)0xFFUL);
 8003848:	21f0      	movs	r1, #240	@ 0xf0
 800384a:	f882 1023 	strb.w	r1, [r2, #35]	@ 0x23
  NVIC_SetPriority (SysTick_IRQn, (1UL << __NVIC_PRIO_BITS) - 1UL); /* set Priority for Systick Interrupt */
  SysTick->VAL   = 0UL;                                             /* Load the SysTick Counter Value */
 800384e:	2000      	movs	r0, #0
  SysTick->CTRL  = SysTick_CTRL_CLKSOURCE_Msk |
 8003850:	2207      	movs	r2, #7
  SysTick->VAL   = 0UL;                                             /* Load the SysTick Counter Value */
 8003852:	6198      	str	r0, [r3, #24]
  SysTick->CTRL  = SysTick_CTRL_CLKSOURCE_Msk |
 8003854:	611a      	str	r2, [r3, #16]
                   SysTick_CTRL_TICKINT_Msk   |
                   SysTick_CTRL_ENABLE_Msk;                         /* Enable SysTick IRQ and SysTick Timer */
  return (0UL);                                                     /* Function successful */
 8003856:	4770      	bx	lr
    return (1UL);                                                   /* Reload value impossible */
 8003858:	2001      	movs	r0, #1
  *                  - 1  Function failed.
  */
uint32_t HAL_SYSTICK_Config(uint32_t TicksNumb)
{
   return SysTick_Config(TicksNumb);
}
 800385a:	4770      	bx	lr
 800385c:	e000ed00 	.word	0xe000ed00

08003860 <FLASH_Program_DoubleWord>:
{
  /* Check the parameters */
  assert_param(IS_FLASH_ADDRESS(Address));

  /* If the previous operation is completed, proceed to program the new data */
  CLEAR_BIT(FLASH->CR, FLASH_CR_PSIZE);
 8003860:	4909      	ldr	r1, [pc, #36]	@ (8003888 <FLASH_Program_DoubleWord+0x28>)
{
 8003862:	b510      	push	{r4, lr}
  CLEAR_BIT(FLASH->CR, FLASH_CR_PSIZE);
 8003864:	690c      	ldr	r4, [r1, #16]
 8003866:	f424 7440 	bic.w	r4, r4, #768	@ 0x300
 800386a:	610c      	str	r4, [r1, #16]
  FLASH->CR |= FLASH_PSIZE_DOUBLE_WORD;
 800386c:	690c      	ldr	r4, [r1, #16]
 800386e:	f444 7440 	orr.w	r4, r4, #768	@ 0x300
 8003872:	610c      	str	r4, [r1, #16]
  FLASH->CR |= FLASH_CR_PG;
 8003874:	690c      	ldr	r4, [r1, #16]
 8003876:	f044 0401 	orr.w	r4, r4, #1
 800387a:	610c      	str	r4, [r1, #16]

  /* Program first word */
  *(__IO uint32_t *)Address = (uint32_t)Data;
 800387c:	6002      	str	r2, [r0, #0]
           so that all instructions following the ISB are fetched from cache or memory,
           after the instruction has been completed.
 */
__STATIC_FORCEINLINE void __ISB(void)
{
  __ASM volatile ("isb 0xF":::"memory");
 800387e:	f3bf 8f6f 	isb	sy
  /* Barrier to ensure programming is performed in 2 steps, in right order
    (independently of compiler optimization behavior) */
  __ISB();

  /* Program second word */
  *(__IO uint32_t *)(Address + 4) = (uint32_t)(Data >> 32);
 8003882:	6043      	str	r3, [r0, #4]
}
 8003884:	bd10      	pop	{r4, pc}
 8003886:	bf00      	nop
 8003888:	40023c00 	.word	0x40023c00

0800388c <FLASH_Program_Word>:
{
  /* Check the parameters */
  assert_param(IS_FLASH_ADDRESS(Address));

  /* If the previous operation is completed, proceed to program the new data */
  CLEAR_BIT(FLASH->CR, FLASH_CR_PSIZE);
 800388c:	4b07      	ldr	r3, [pc, #28]	@ (80038ac <FLASH_Program_Word+0x20>)
 800388e:	691a      	ldr	r2, [r3, #16]
 8003890:	f422 7240 	bic.w	r2, r2, #768	@ 0x300
 8003894:	611a      	str	r2, [r3, #16]
  FLASH->CR |= FLASH_PSIZE_WORD;
 8003896:	691a      	ldr	r2, [r3, #16]
 8003898:	f442 7200 	orr.w	r2, r2, #512	@ 0x200
 800389c:	611a      	str	r2, [r3, #16]
  FLASH->CR |= FLASH_CR_PG;
 800389e:	691a      	ldr	r2, [r3, #16]
 80038a0:	f042 0201 	orr.w	r2, r2, #1
 80038a4:	611a      	str	r2, [r3, #16]

  *(__IO uint32_t *)Address = Data;
 80038a6:	6001      	str	r1, [r0, #0]
}
 80038a8:	4770      	bx	lr
 80038aa:	bf00      	nop
 80038ac:	40023c00 	.word	0x40023c00

080038b0 <FLASH_Program_HalfWord>:
{
  /* Check the parameters */
  assert_param(IS_FLASH_ADDRESS(Address));

  /* If the previous operation is completed, proceed to program the new data */
  CLEAR_BIT(FLASH->CR, FLASH_CR_PSIZE);
 80038b0:	4b07      	ldr	r3, [pc, #28]	@ (80038d0 <FLASH_Program_HalfWord+0x20>)
 80038b2:	691a      	ldr	r2, [r3, #16]
 80038b4:	f422 7240 	bic.w	r2, r2, #768	@ 0x300
 80038b8:	611a      	str	r2, [r3, #16]
  FLASH->CR |= FLASH_PSIZE_HALF_WORD;
 80038ba:	691a      	ldr	r2, [r3, #16]
 80038bc:	f442 7280 	orr.w	r2, r2, #256	@ 0x100
 80038c0:	611a      	str	r2, [r3, #16]
  FLASH->CR |= FLASH_CR_PG;
 80038c2:	691a      	ldr	r2, [r3, #16]
 80038c4:	f042 0201 	orr.w	r2, r2, #1
 80038c8:	611a      	str	r2, [r3, #16]

  *(__IO uint16_t *)Address = Data;
 80038ca:	8001      	strh	r1, [r0, #0]
}
 80038cc:	4770      	bx	lr
 80038ce:	bf00      	nop
 80038d0:	40023c00 	.word	0x40023c00

080038d4 <FLASH_SetErrorCode>:
  * @brief  Set the specific FLASH error flag.
  * @retval None
  */
static void FLASH_SetErrorCode(void)
{
  if (__HAL_FLASH_GET_FLAG(FLASH_FLAG_WRPERR) != RESET)
 80038d4:	4b20      	ldr	r3, [pc, #128]	@ (8003958 <FLASH_SetErrorCode+0x84>)
 80038d6:	68da      	ldr	r2, [r3, #12]
 80038d8:	06d0      	lsls	r0, r2, #27
 80038da:	d506      	bpl.n	80038ea <FLASH_SetErrorCode+0x16>
  {
    pFlash.ErrorCode |= HAL_FLASH_ERROR_WRP;
 80038dc:	491f      	ldr	r1, [pc, #124]	@ (800395c <FLASH_SetErrorCode+0x88>)
 80038de:	69ca      	ldr	r2, [r1, #28]
 80038e0:	f042 0210 	orr.w	r2, r2, #16
 80038e4:	61ca      	str	r2, [r1, #28]

    /* Clear FLASH write protection error pending bit */
    __HAL_FLASH_CLEAR_FLAG(FLASH_FLAG_WRPERR);
 80038e6:	2210      	movs	r2, #16
 80038e8:	60da      	str	r2, [r3, #12]
  }

  if (__HAL_FLASH_GET_FLAG(FLASH_FLAG_PGAERR) != RESET)
 80038ea:	68da      	ldr	r2, [r3, #12]
 80038ec:	0691      	lsls	r1, r2, #26
 80038ee:	d506      	bpl.n	80038fe <FLASH_SetErrorCode+0x2a>
  {
    pFlash.ErrorCode |= HAL_FLASH_ERROR_PGA;
 80038f0:	491a      	ldr	r1, [pc, #104]	@ (800395c <FLASH_SetErrorCode+0x88>)
 80038f2:	69ca      	ldr	r2, [r1, #28]
 80038f4:	f042 0208 	orr.w	r2, r2, #8
 80038f8:	61ca      	str	r2, [r1, #28]

    /* Clear FLASH Programming alignment error pending bit */
    __HAL_FLASH_CLEAR_FLAG(FLASH_FLAG_PGAERR);
 80038fa:	2220      	movs	r2, #32
 80038fc:	60da      	str	r2, [r3, #12]
  }

  if (__HAL_FLASH_GET_FLAG(FLASH_FLAG_PGPERR) != RESET)
 80038fe:	4b16      	ldr	r3, [pc, #88]	@ (8003958 <FLASH_SetErrorCode+0x84>)
 8003900:	68da      	ldr	r2, [r3, #12]
 8003902:	0652      	lsls	r2, r2, #25
 8003904:	d506      	bpl.n	8003914 <FLASH_SetErrorCode+0x40>
  {
    pFlash.ErrorCode |= HAL_FLASH_ERROR_PGP;
 8003906:	4915      	ldr	r1, [pc, #84]	@ (800395c <FLASH_SetErrorCode+0x88>)
 8003908:	69ca      	ldr	r2, [r1, #28]
 800390a:	f042 0204 	orr.w	r2, r2, #4
 800390e:	61ca      	str	r2, [r1, #28]

    /* Clear FLASH Programming parallelism error pending bit */
    __HAL_FLASH_CLEAR_FLAG(FLASH_FLAG_PGPERR);
 8003910:	2240      	movs	r2, #64	@ 0x40
 8003912:	60da      	str	r2, [r3, #12]
  }

  if (__HAL_FLASH_GET_FLAG(FLASH_FLAG_PGSERR) != RESET)
 8003914:	68da      	ldr	r2, [r3, #12]
 8003916:	0610      	lsls	r0, r2, #24
 8003918:	d506      	bpl.n	8003928 <FLASH_SetErrorCode+0x54>
  {
    pFlash.ErrorCode |= HAL_FLASH_ERROR_PGS;
 800391a:	4910      	ldr	r1, [pc, #64]	@ (800395c <FLASH_SetErrorCode+0x88>)
 800391c:	69ca      	ldr	r2, [r1, #28]
 800391e:	f042 0202 	orr.w	r2, r2, #2
 8003922:	61ca      	str	r2, [r1, #28]

    /* Clear FLASH Programming sequence error pending bit */
    __HAL_FLASH_CLEAR_FLAG(FLASH_FLAG_PGSERR);
 8003924:	2280      	movs	r2, #128	@ 0x80
 8003926:	60da      	str	r2, [r3, #12]
  }
#if defined(FLASH_SR_RDERR)
  if (__HAL_FLASH_GET_FLAG(FLASH_FLAG_RDERR) != RESET)
 8003928:	4b0b      	ldr	r3, [pc, #44]	@ (8003958 <FLASH_SetErrorCode+0x84>)
 800392a:	68da      	ldr	r2, [r3, #12]
 800392c:	05d1      	lsls	r1, r2, #23
 800392e:	d507      	bpl.n	8003940 <FLASH_SetErrorCode+0x6c>
  {
    pFlash.ErrorCode |= HAL_FLASH_ERROR_RD;
 8003930:	490a      	ldr	r1, [pc, #40]	@ (800395c <FLASH_SetErrorCode+0x88>)
 8003932:	69ca      	ldr	r2, [r1, #28]
 8003934:	f042 0201 	orr.w	r2, r2, #1
 8003938:	61ca      	str	r2, [r1, #28]

    /* Clear FLASH Proprietary readout protection error pending bit */
    __HAL_FLASH_CLEAR_FLAG(FLASH_FLAG_RDERR);
 800393a:	f44f 7280 	mov.w	r2, #256	@ 0x100
 800393e:	60da      	str	r2, [r3, #12]
  }
#endif /* FLASH_SR_RDERR */
  if (__HAL_FLASH_GET_FLAG(FLASH_FLAG_OPERR) != RESET)
 8003940:	68da      	ldr	r2, [r3, #12]
 8003942:	0792      	lsls	r2, r2, #30
 8003944:	d506      	bpl.n	8003954 <FLASH_SetErrorCode+0x80>
  {
    pFlash.ErrorCode |= HAL_FLASH_ERROR_OPERATION;
 8003946:	4905      	ldr	r1, [pc, #20]	@ (800395c <FLASH_SetErrorCode+0x88>)
 8003948:	69ca      	ldr	r2, [r1, #28]
 800394a:	f042 0220 	orr.w	r2, r2, #32
 800394e:	61ca      	str	r2, [r1, #28]

    /* Clear FLASH Operation error pending bit */
    __HAL_FLASH_CLEAR_FLAG(FLASH_FLAG_OPERR);
 8003950:	2202      	movs	r2, #2
 8003952:	60da      	str	r2, [r3, #12]
  }
}
 8003954:	4770      	bx	lr
 8003956:	bf00      	nop
 8003958:	40023c00 	.word	0x40023c00
 800395c:	20001f38 	.word	0x20001f38

08003960 <HAL_FLASH_Unlock>:
  if (READ_BIT(FLASH->CR, FLASH_CR_LOCK) != RESET)
 8003960:	4b06      	ldr	r3, [pc, #24]	@ (800397c <HAL_FLASH_Unlock+0x1c>)
 8003962:	691a      	ldr	r2, [r3, #16]
 8003964:	2a00      	cmp	r2, #0
    WRITE_REG(FLASH->KEYR, FLASH_KEY1);
 8003966:	bfbf      	itttt	lt
 8003968:	4a05      	ldrlt	r2, [pc, #20]	@ (8003980 <HAL_FLASH_Unlock+0x20>)
 800396a:	605a      	strlt	r2, [r3, #4]
    WRITE_REG(FLASH->KEYR, FLASH_KEY2);
 800396c:	f102 3288 	addlt.w	r2, r2, #2290649224	@ 0x88888888
 8003970:	605a      	strlt	r2, [r3, #4]
    if (READ_BIT(FLASH->CR, FLASH_CR_LOCK) != RESET)
 8003972:	bfba      	itte	lt
 8003974:	6918      	ldrlt	r0, [r3, #16]
 8003976:	0fc0      	lsrlt	r0, r0, #31
  HAL_StatusTypeDef status = HAL_OK;
 8003978:	2000      	movge	r0, #0
}
 800397a:	4770      	bx	lr
 800397c:	40023c00 	.word	0x40023c00
 8003980:	45670123 	.word	0x45670123

08003984 <HAL_FLASH_Lock>:
  FLASH->CR |= FLASH_CR_LOCK;
 8003984:	4a03      	ldr	r2, [pc, #12]	@ (8003994 <HAL_FLASH_Lock+0x10>)
 8003986:	6913      	ldr	r3, [r2, #16]
 8003988:	f043 4300 	orr.w	r3, r3, #2147483648	@ 0x80000000
 800398c:	6113      	str	r3, [r2, #16]
}
 800398e:	2000      	movs	r0, #0
 8003990:	4770      	bx	lr
 8003992:	bf00      	nop
 8003994:	40023c00 	.word	0x40023c00

08003998 <FLASH_WaitForLastOperation>:
  pFlash.ErrorCode = HAL_FLASH_ERROR_NONE;
 8003998:	4b11      	ldr	r3, [pc, #68]	@ (80039e0 <FLASH_WaitForLastOperation+0x48>)
{
 800399a:	b570      	push	{r4, r5, r6, lr}
  pFlash.ErrorCode = HAL_FLASH_ERROR_NONE;
 800399c:	2200      	movs	r2, #0
{
 800399e:	4604      	mov	r4, r0
  pFlash.ErrorCode = HAL_FLASH_ERROR_NONE;
 80039a0:	61da      	str	r2, [r3, #28]
  tickstart = HAL_GetTick();
 80039a2:	f7ff fedd 	bl	8003760 <HAL_GetTick>
  while (__HAL_FLASH_GET_FLAG(FLASH_FLAG_BSY) != RESET)
 80039a6:	4d0f      	ldr	r5, [pc, #60]	@ (80039e4 <FLASH_WaitForLastOperation+0x4c>)
  tickstart = HAL_GetTick();
 80039a8:	4606      	mov	r6, r0
  while (__HAL_FLASH_GET_FLAG(FLASH_FLAG_BSY) != RESET)
 80039aa:	68eb      	ldr	r3, [r5, #12]
 80039ac:	03da      	lsls	r2, r3, #15
 80039ae:	d40c      	bmi.n	80039ca <FLASH_WaitForLastOperation+0x32>
  if (__HAL_FLASH_GET_FLAG(FLASH_FLAG_EOP) != RESET)
 80039b0:	68eb      	ldr	r3, [r5, #12]
 80039b2:	07db      	lsls	r3, r3, #31
    __HAL_FLASH_CLEAR_FLAG(FLASH_FLAG_EOP);
 80039b4:	bf44      	itt	mi
 80039b6:	2301      	movmi	r3, #1
 80039b8:	60eb      	strmi	r3, [r5, #12]
  if (__HAL_FLASH_GET_FLAG((FLASH_FLAG_OPERR | FLASH_FLAG_WRPERR | FLASH_FLAG_PGAERR | \
 80039ba:	68e8      	ldr	r0, [r5, #12]
 80039bc:	f410 70f9 	ands.w	r0, r0, #498	@ 0x1f2
 80039c0:	d007      	beq.n	80039d2 <FLASH_WaitForLastOperation+0x3a>
    FLASH_SetErrorCode();
 80039c2:	f7ff ff87 	bl	80038d4 <FLASH_SetErrorCode>
    return HAL_ERROR;
 80039c6:	2001      	movs	r0, #1
 80039c8:	e003      	b.n	80039d2 <FLASH_WaitForLastOperation+0x3a>
    if (Timeout != HAL_MAX_DELAY)
 80039ca:	1c61      	adds	r1, r4, #1
 80039cc:	d0ed      	beq.n	80039aa <FLASH_WaitForLastOperation+0x12>
      if ((Timeout == 0U) || ((HAL_GetTick() - tickstart) > Timeout))
 80039ce:	b90c      	cbnz	r4, 80039d4 <FLASH_WaitForLastOperation+0x3c>
        return HAL_TIMEOUT;
 80039d0:	2003      	movs	r0, #3
}
 80039d2:	bd70      	pop	{r4, r5, r6, pc}
      if ((Timeout == 0U) || ((HAL_GetTick() - tickstart) > Timeout))
 80039d4:	f7ff fec4 	bl	8003760 <HAL_GetTick>
 80039d8:	1b80      	subs	r0, r0, r6
 80039da:	42a0      	cmp	r0, r4
 80039dc:	d9e5      	bls.n	80039aa <FLASH_WaitForLastOperation+0x12>
 80039de:	e7f7      	b.n	80039d0 <FLASH_WaitForLastOperation+0x38>
 80039e0:	20001f38 	.word	0x20001f38
 80039e4:	40023c00 	.word	0x40023c00

080039e8 <HAL_FLASH_Program>:
{
 80039e8:	e92d 41f0 	stmdb	sp!, {r4, r5, r6, r7, r8, lr}
  __HAL_LOCK(&pFlash);
 80039ec:	4e1f      	ldr	r6, [pc, #124]	@ (8003a6c <HAL_FLASH_Program+0x84>)
{
 80039ee:	4698      	mov	r8, r3
  __HAL_LOCK(&pFlash);
 80039f0:	7e33      	ldrb	r3, [r6, #24]
 80039f2:	2b01      	cmp	r3, #1
{
 80039f4:	4607      	mov	r7, r0
 80039f6:	460d      	mov	r5, r1
 80039f8:	4614      	mov	r4, r2
  __HAL_LOCK(&pFlash);
 80039fa:	d035      	beq.n	8003a68 <HAL_FLASH_Program+0x80>
 80039fc:	2301      	movs	r3, #1
  status = FLASH_WaitForLastOperation((uint32_t)FLASH_TIMEOUT_VALUE);
 80039fe:	f24c 3050 	movw	r0, #50000	@ 0xc350
  __HAL_LOCK(&pFlash);
 8003a02:	7633      	strb	r3, [r6, #24]
  status = FLASH_WaitForLastOperation((uint32_t)FLASH_TIMEOUT_VALUE);
 8003a04:	f7ff ffc8 	bl	8003998 <FLASH_WaitForLastOperation>
  if (status == HAL_OK)
 8003a08:	b9b0      	cbnz	r0, 8003a38 <HAL_FLASH_Program+0x50>
    if (TypeProgram == FLASH_TYPEPROGRAM_BYTE)
 8003a0a:	b9cf      	cbnz	r7, 8003a40 <HAL_FLASH_Program+0x58>
  CLEAR_BIT(FLASH->CR, FLASH_CR_PSIZE);
 8003a0c:	4b18      	ldr	r3, [pc, #96]	@ (8003a70 <HAL_FLASH_Program+0x88>)
 8003a0e:	691a      	ldr	r2, [r3, #16]
 8003a10:	f422 7240 	bic.w	r2, r2, #768	@ 0x300
 8003a14:	611a      	str	r2, [r3, #16]
  FLASH->CR |= FLASH_PSIZE_BYTE;
 8003a16:	691a      	ldr	r2, [r3, #16]
 8003a18:	611a      	str	r2, [r3, #16]
  FLASH->CR |= FLASH_CR_PG;
 8003a1a:	691a      	ldr	r2, [r3, #16]
      FLASH_Program_Byte(Address, (uint8_t) Data);
 8003a1c:	b2e4      	uxtb	r4, r4
  FLASH->CR |= FLASH_CR_PG;
 8003a1e:	f042 0201 	orr.w	r2, r2, #1
 8003a22:	611a      	str	r2, [r3, #16]
  *(__IO uint8_t *)Address = Data;
 8003a24:	702c      	strb	r4, [r5, #0]
    status = FLASH_WaitForLastOperation((uint32_t)FLASH_TIMEOUT_VALUE);
 8003a26:	f24c 3050 	movw	r0, #50000	@ 0xc350
 8003a2a:	f7ff ffb5 	bl	8003998 <FLASH_WaitForLastOperation>
    FLASH->CR &= (~FLASH_CR_PG);
 8003a2e:	4a10      	ldr	r2, [pc, #64]	@ (8003a70 <HAL_FLASH_Program+0x88>)
 8003a30:	6913      	ldr	r3, [r2, #16]
 8003a32:	f023 0301 	bic.w	r3, r3, #1
 8003a36:	6113      	str	r3, [r2, #16]
  __HAL_UNLOCK(&pFlash);
 8003a38:	2300      	movs	r3, #0
 8003a3a:	7633      	strb	r3, [r6, #24]
}
 8003a3c:	e8bd 81f0 	ldmia.w	sp!, {r4, r5, r6, r7, r8, pc}
    else if (TypeProgram == FLASH_TYPEPROGRAM_HALFWORD)
 8003a40:	2f01      	cmp	r7, #1
 8003a42:	d104      	bne.n	8003a4e <HAL_FLASH_Program+0x66>
      FLASH_Program_HalfWord(Address, (uint16_t) Data);
 8003a44:	b2a1      	uxth	r1, r4
 8003a46:	4628      	mov	r0, r5
 8003a48:	f7ff ff32 	bl	80038b0 <FLASH_Program_HalfWord>
 8003a4c:	e7eb      	b.n	8003a26 <HAL_FLASH_Program+0x3e>
    else if (TypeProgram == FLASH_TYPEPROGRAM_WORD)
 8003a4e:	2f02      	cmp	r7, #2
 8003a50:	d104      	bne.n	8003a5c <HAL_FLASH_Program+0x74>
      FLASH_Program_Word(Address, (uint32_t) Data);
 8003a52:	4621      	mov	r1, r4
 8003a54:	4628      	mov	r0, r5
 8003a56:	f7ff ff19 	bl	800388c <FLASH_Program_Word>
 8003a5a:	e7e4      	b.n	8003a26 <HAL_FLASH_Program+0x3e>
      FLASH_Program_DoubleWord(Address, Data);
 8003a5c:	4622      	mov	r2, r4
 8003a5e:	4643      	mov	r3, r8
 8003a60:	4628      	mov	r0, r5
 8003a62:	f7ff fefd 	bl	8003860 <FLASH_Program_DoubleWord>
 8003a66:	e7de      	b.n	8003a26 <HAL_FLASH_Program+0x3e>
  __HAL_LOCK(&pFlash);
 8003a68:	2002      	movs	r0, #2
 8003a6a:	e7e7      	b.n	8003a3c <HAL_FLASH_Program+0x54>
 8003a6c:	20001f38 	.word	0x20001f38
 8003a70:	40023c00 	.word	0x40023c00

08003a74 <FLASH_MassErase.isra.0>:
  /* Check the parameters */
  assert_param(IS_VOLTAGERANGE(VoltageRange));
  assert_param(IS_FLASH_BANK(Banks));

  /* If the previous operation is completed, proceed to erase all sectors */
  CLEAR_BIT(FLASH->CR, FLASH_CR_PSIZE);
 8003a74:	4b07      	ldr	r3, [pc, #28]	@ (8003a94 <FLASH_MassErase.isra.0+0x20>)
 8003a76:	691a      	ldr	r2, [r3, #16]
 8003a78:	f422 7240 	bic.w	r2, r2, #768	@ 0x300
 8003a7c:	611a      	str	r2, [r3, #16]
  FLASH->CR |= FLASH_CR_MER;
 8003a7e:	691a      	ldr	r2, [r3, #16]
 8003a80:	f042 0204 	orr.w	r2, r2, #4
 8003a84:	611a      	str	r2, [r3, #16]
  FLASH->CR |= FLASH_CR_STRT | ((uint32_t)VoltageRange << 8U);
 8003a86:	691a      	ldr	r2, [r3, #16]
 8003a88:	ea42 2200 	orr.w	r2, r2, r0, lsl #8
 8003a8c:	f442 3280 	orr.w	r2, r2, #65536	@ 0x10000
 8003a90:	611a      	str	r2, [r3, #16]
}
 8003a92:	4770      	bx	lr
 8003a94:	40023c00 	.word	0x40023c00

08003a98 <FLASH_Erase_Sector>:
  {
    tmp_psize = FLASH_PSIZE_DOUBLE_WORD;
  }

  /* If the previous operation is completed, proceed to erase the sector */
  CLEAR_BIT(FLASH->CR, FLASH_CR_PSIZE);
 8003a98:	4b0d      	ldr	r3, [pc, #52]	@ (8003ad0 <FLASH_Erase_Sector+0x38>)
 8003a9a:	691a      	ldr	r2, [r3, #16]
 8003a9c:	f422 7240 	bic.w	r2, r2, #768	@ 0x300
 8003aa0:	611a      	str	r2, [r3, #16]
  FLASH->CR |= tmp_psize;
 8003aa2:	691a      	ldr	r2, [r3, #16]
 8003aa4:	2902      	cmp	r1, #2
 8003aa6:	bf94      	ite	ls
 8003aa8:	0209      	lslls	r1, r1, #8
{
 8003aaa:	f44f 7140 	movhi.w	r1, #768	@ 0x300
  FLASH->CR |= tmp_psize;
 8003aae:	430a      	orrs	r2, r1
 8003ab0:	611a      	str	r2, [r3, #16]
  CLEAR_BIT(FLASH->CR, FLASH_CR_SNB);
 8003ab2:	691a      	ldr	r2, [r3, #16]
 8003ab4:	f022 02f8 	bic.w	r2, r2, #248	@ 0xf8
 8003ab8:	611a      	str	r2, [r3, #16]
  FLASH->CR |= FLASH_CR_SER | (Sector << FLASH_CR_SNB_Pos);
 8003aba:	691a      	ldr	r2, [r3, #16]
 8003abc:	ea42 00c0 	orr.w	r0, r2, r0, lsl #3
 8003ac0:	f040 0002 	orr.w	r0, r0, #2
 8003ac4:	6118      	str	r0, [r3, #16]
  FLASH->CR |= FLASH_CR_STRT;
 8003ac6:	691a      	ldr	r2, [r3, #16]
 8003ac8:	f442 3280 	orr.w	r2, r2, #65536	@ 0x10000
 8003acc:	611a      	str	r2, [r3, #16]
}
 8003ace:	4770      	bx	lr
 8003ad0:	40023c00 	.word	0x40023c00

08003ad4 <FLASH_FlushCaches>:
  * @retval None
  */
void FLASH_FlushCaches(void)
{
  /* Flush instruction cache  */
  if (READ_BIT(FLASH->ACR, FLASH_ACR_ICEN) != RESET)
 8003ad4:	4b14      	ldr	r3, [pc, #80]	@ (8003b28 <FLASH_FlushCaches+0x54>)
 8003ad6:	681a      	ldr	r2, [r3, #0]
 8003ad8:	0591      	lsls	r1, r2, #22
 8003ada:	d50f      	bpl.n	8003afc <FLASH_FlushCaches+0x28>
  {
    /* Disable instruction cache  */
    __HAL_FLASH_INSTRUCTION_CACHE_DISABLE();
 8003adc:	681a      	ldr	r2, [r3, #0]
 8003ade:	f422 7200 	bic.w	r2, r2, #512	@ 0x200
 8003ae2:	601a      	str	r2, [r3, #0]
    /* Reset instruction cache */
    __HAL_FLASH_INSTRUCTION_CACHE_RESET();
 8003ae4:	681a      	ldr	r2, [r3, #0]
 8003ae6:	f442 6200 	orr.w	r2, r2, #2048	@ 0x800
 8003aea:	601a      	str	r2, [r3, #0]
 8003aec:	681a      	ldr	r2, [r3, #0]
 8003aee:	f422 6200 	bic.w	r2, r2, #2048	@ 0x800
 8003af2:	601a      	str	r2, [r3, #0]
    /* Enable instruction cache */
    __HAL_FLASH_INSTRUCTION_CACHE_ENABLE();
 8003af4:	681a      	ldr	r2, [r3, #0]
 8003af6:	f442 7200 	orr.w	r2, r2, #512	@ 0x200
 8003afa:	601a      	str	r2, [r3, #0]
  }

  /* Flush data cache */
  if (READ_BIT(FLASH->ACR, FLASH_ACR_DCEN) != RESET)
 8003afc:	4b0a      	ldr	r3, [pc, #40]	@ (8003b28 <FLASH_FlushCaches+0x54>)
 8003afe:	681a      	ldr	r2, [r3, #0]
 8003b00:	0552      	lsls	r2, r2, #21
 8003b02:	d50f      	bpl.n	8003b24 <FLASH_FlushCaches+0x50>
  {
    /* Disable data cache  */
    __HAL_FLASH_DATA_CACHE_DISABLE();
 8003b04:	681a      	ldr	r2, [r3, #0]
 8003b06:	f422 6280 	bic.w	r2, r2, #1024	@ 0x400
 8003b0a:	601a      	str	r2, [r3, #0]
    /* Reset data cache */
    __HAL_FLASH_DATA_CACHE_RESET();
 8003b0c:	681a      	ldr	r2, [r3, #0]
 8003b0e:	f442 5280 	orr.w	r2, r2, #4096	@ 0x1000
 8003b12:	601a      	str	r2, [r3, #0]
 8003b14:	681a      	ldr	r2, [r3, #0]
 8003b16:	f422 5280 	bic.w	r2, r2, #4096	@ 0x1000
 8003b1a:	601a      	str	r2, [r3, #0]
    /* Enable data cache */
    __HAL_FLASH_DATA_CACHE_ENABLE();
 8003b1c:	681a      	ldr	r2, [r3, #0]
 8003b1e:	f442 6280 	orr.w	r2, r2, #1024	@ 0x400
 8003b22:	601a      	str	r2, [r3, #0]
  }
}
 8003b24:	4770      	bx	lr
 8003b26:	bf00      	nop
 8003b28:	40023c00 	.word	0x40023c00

08003b2c <HAL_FLASHEx_Erase>:
{
 8003b2c:	e92d 43f8 	stmdb	sp!, {r3, r4, r5, r6, r7, r8, r9, lr}
  __HAL_LOCK(&pFlash);
 8003b30:	f8df 8094 	ldr.w	r8, [pc, #148]	@ 8003bc8 <HAL_FLASHEx_Erase+0x9c>
 8003b34:	f898 3018 	ldrb.w	r3, [r8, #24]
 8003b38:	2b01      	cmp	r3, #1
{
 8003b3a:	4605      	mov	r5, r0
 8003b3c:	460f      	mov	r7, r1
  __HAL_LOCK(&pFlash);
 8003b3e:	d03f      	beq.n	8003bc0 <HAL_FLASHEx_Erase+0x94>
 8003b40:	2301      	movs	r3, #1
  status = FLASH_WaitForLastOperation((uint32_t)FLASH_TIMEOUT_VALUE);
 8003b42:	f24c 3050 	movw	r0, #50000	@ 0xc350
  __HAL_LOCK(&pFlash);
 8003b46:	f888 3018 	strb.w	r3, [r8, #24]
  status = FLASH_WaitForLastOperation((uint32_t)FLASH_TIMEOUT_VALUE);
 8003b4a:	f7ff ff25 	bl	8003998 <FLASH_WaitForLastOperation>
  if (status == HAL_OK)
 8003b4e:	4604      	mov	r4, r0
 8003b50:	b9a0      	cbnz	r0, 8003b7c <HAL_FLASHEx_Erase+0x50>
    *SectorError = 0xFFFFFFFFU;
 8003b52:	f04f 33ff 	mov.w	r3, #4294967295
 8003b56:	603b      	str	r3, [r7, #0]
    if (pEraseInit->TypeErase == FLASH_TYPEERASE_MASSERASE)
 8003b58:	682b      	ldr	r3, [r5, #0]
 8003b5a:	2b01      	cmp	r3, #1
 8003b5c:	d114      	bne.n	8003b88 <HAL_FLASHEx_Erase+0x5c>
      FLASH_MassErase((uint8_t) pEraseInit->VoltageRange, pEraseInit->Banks);
 8003b5e:	7c28      	ldrb	r0, [r5, #16]
 8003b60:	f7ff ff88 	bl	8003a74 <FLASH_MassErase.isra.0>
      status = FLASH_WaitForLastOperation((uint32_t)FLASH_TIMEOUT_VALUE);
 8003b64:	f24c 3050 	movw	r0, #50000	@ 0xc350
 8003b68:	f7ff ff16 	bl	8003998 <FLASH_WaitForLastOperation>
      FLASH->CR &= (~FLASH_MER_BIT);
 8003b6c:	4a15      	ldr	r2, [pc, #84]	@ (8003bc4 <HAL_FLASHEx_Erase+0x98>)
 8003b6e:	6913      	ldr	r3, [r2, #16]
 8003b70:	f023 0304 	bic.w	r3, r3, #4
      status = FLASH_WaitForLastOperation((uint32_t)FLASH_TIMEOUT_VALUE);
 8003b74:	4604      	mov	r4, r0
      FLASH->CR &= (~FLASH_MER_BIT);
 8003b76:	6113      	str	r3, [r2, #16]
    FLASH_FlushCaches();
 8003b78:	f7ff ffac 	bl	8003ad4 <FLASH_FlushCaches>
  __HAL_UNLOCK(&pFlash);
 8003b7c:	2300      	movs	r3, #0
 8003b7e:	f888 3018 	strb.w	r3, [r8, #24]
}
 8003b82:	4620      	mov	r0, r4
 8003b84:	e8bd 83f8 	ldmia.w	sp!, {r3, r4, r5, r6, r7, r8, r9, pc}
      for (index = pEraseInit->Sector; index < (pEraseInit->NbSectors + pEraseInit->Sector); index++)
 8003b88:	68ae      	ldr	r6, [r5, #8]
        CLEAR_BIT(FLASH->CR, (FLASH_CR_SER | FLASH_CR_SNB));
 8003b8a:	f8df 9038 	ldr.w	r9, [pc, #56]	@ 8003bc4 <HAL_FLASHEx_Erase+0x98>
      for (index = pEraseInit->Sector; index < (pEraseInit->NbSectors + pEraseInit->Sector); index++)
 8003b8e:	e9d5 2302 	ldrd	r2, r3, [r5, #8]
 8003b92:	4413      	add	r3, r2
 8003b94:	42b3      	cmp	r3, r6
 8003b96:	d9ef      	bls.n	8003b78 <HAL_FLASHEx_Erase+0x4c>
        FLASH_Erase_Sector(index, (uint8_t) pEraseInit->VoltageRange);
 8003b98:	7c29      	ldrb	r1, [r5, #16]
 8003b9a:	4630      	mov	r0, r6
 8003b9c:	f7ff ff7c 	bl	8003a98 <FLASH_Erase_Sector>
        status = FLASH_WaitForLastOperation((uint32_t)FLASH_TIMEOUT_VALUE);
 8003ba0:	f24c 3050 	movw	r0, #50000	@ 0xc350
 8003ba4:	f7ff fef8 	bl	8003998 <FLASH_WaitForLastOperation>
        CLEAR_BIT(FLASH->CR, (FLASH_CR_SER | FLASH_CR_SNB));
 8003ba8:	f8d9 3010 	ldr.w	r3, [r9, #16]
 8003bac:	f023 03fa 	bic.w	r3, r3, #250	@ 0xfa
 8003bb0:	f8c9 3010 	str.w	r3, [r9, #16]
        if (status != HAL_OK)
 8003bb4:	b110      	cbz	r0, 8003bbc <HAL_FLASHEx_Erase+0x90>
          *SectorError = index;
 8003bb6:	603e      	str	r6, [r7, #0]
        status = FLASH_WaitForLastOperation((uint32_t)FLASH_TIMEOUT_VALUE);
 8003bb8:	4604      	mov	r4, r0
          break;
 8003bba:	e7dd      	b.n	8003b78 <HAL_FLASHEx_Erase+0x4c>
      for (index = pEraseInit->Sector; index < (pEraseInit->NbSectors + pEraseInit->Sector); index++)
 8003bbc:	3601      	adds	r6, #1
 8003bbe:	e7e6      	b.n	8003b8e <HAL_FLASHEx_Erase+0x62>
  __HAL_LOCK(&pFlash);
 8003bc0:	2402      	movs	r4, #2
 8003bc2:	e7de      	b.n	8003b82 <HAL_FLASHEx_Erase+0x56>
 8003bc4:	40023c00 	.word	0x40023c00
 8003bc8:	20001f38 	.word	0x20001f38

08003bcc <HAL_GPIO_Init>:
  * @param  GPIO_Init pointer to a GPIO_InitTypeDef structure that contains
  *         the configuration information for the specified GPIO peripheral.
  * @retval None
  */
void HAL_GPIO_Init(GPIO_TypeDef  *GPIOx, GPIO_InitTypeDef *GPIO_Init)
{
 8003bcc:	e92d 4ff7 	stmdb	sp!, {r0, r1, r2, r4, r5, r6, r7, r8, r9, sl, fp, lr}
      /*--------------------- EXTI Mode Configuration ------------------------*/
      /* Configure the External Interrupt or event for the current IO */
      if((GPIO_Init->Mode & EXTI_MODE) != 0x00U)
      {
        /* Enable SYSCFG Clock */
        __HAL_RCC_SYSCFG_CLK_ENABLE();
 8003bd0:	f8df 9180 	ldr.w	r9, [pc, #384]	@ 8003d54 <HAL_GPIO_Init+0x188>
        temp &= ~(0x0FU << (4U * (position & 0x03U)));
        temp |= ((uint32_t)(GPIO_GET_INDEX(GPIOx)) << (4U * (position & 0x03U)));
        SYSCFG->EXTICR[position >> 2U] = temp;

        /* Clear Rising Falling edge configuration */
        temp = EXTI->RTSR;
 8003bd4:	4a5d      	ldr	r2, [pc, #372]	@ (8003d4c <HAL_GPIO_Init+0x180>)
  for(position = 0U; position < GPIO_NUMBER; position++)
 8003bd6:	2300      	movs	r3, #0
    iocurrent = (uint32_t)(GPIO_Init->Pin) & ioposition;
 8003bd8:	680d      	ldr	r5, [r1, #0]
    ioposition = 0x01U << position;
 8003bda:	2401      	movs	r4, #1
 8003bdc:	409c      	lsls	r4, r3
    iocurrent = (uint32_t)(GPIO_Init->Pin) & ioposition;
 8003bde:	ea04 0605 	and.w	r6, r4, r5
    if(iocurrent == ioposition)
 8003be2:	43ac      	bics	r4, r5
 8003be4:	f040 80a3 	bne.w	8003d2e <HAL_GPIO_Init+0x162>
      if(((GPIO_Init->Mode & GPIO_MODE) == MODE_OUTPUT) || \
 8003be8:	684d      	ldr	r5, [r1, #4]
        temp &= ~(GPIO_OSPEEDER_OSPEEDR0 << (position * 2U));
 8003bea:	2703      	movs	r7, #3
      if(((GPIO_Init->Mode & GPIO_MODE) == MODE_OUTPUT) || \
 8003bec:	f005 0403 	and.w	r4, r5, #3
 8003bf0:	ea4f 0843 	mov.w	r8, r3, lsl #1
        temp &= ~(GPIO_OSPEEDER_OSPEEDR0 << (position * 2U));
 8003bf4:	fa07 fc08 	lsl.w	ip, r7, r8
      if(((GPIO_Init->Mode & GPIO_MODE) == MODE_OUTPUT) || \
 8003bf8:	1e67      	subs	r7, r4, #1
 8003bfa:	2f01      	cmp	r7, #1
        temp &= ~(GPIO_OSPEEDER_OSPEEDR0 << (position * 2U));
 8003bfc:	ea6f 0c0c 	mvn.w	ip, ip
      if(((GPIO_Init->Mode & GPIO_MODE) == MODE_OUTPUT) || \
 8003c00:	d834      	bhi.n	8003c6c <HAL_GPIO_Init+0xa0>
        temp = GPIOx->OSPEEDR; 
 8003c02:	6887      	ldr	r7, [r0, #8]
        temp &= ~(GPIO_OSPEEDER_OSPEEDR0 << (position * 2U));
 8003c04:	ea07 0e0c 	and.w	lr, r7, ip
        temp |= (GPIO_Init->Speed << (position * 2U));
 8003c08:	68cf      	ldr	r7, [r1, #12]
 8003c0a:	fa07 f708 	lsl.w	r7, r7, r8
 8003c0e:	ea47 070e 	orr.w	r7, r7, lr
        GPIOx->OSPEEDR = temp;
 8003c12:	6087      	str	r7, [r0, #8]
        temp = GPIOx->OTYPER;
 8003c14:	6847      	ldr	r7, [r0, #4]
        temp &= ~(GPIO_OTYPER_OT_0 << position) ;
 8003c16:	ea27 0e06 	bic.w	lr, r7, r6
        temp |= (((GPIO_Init->Mode & OUTPUT_TYPE) >> OUTPUT_TYPE_Pos) << position);
 8003c1a:	f3c5 1700 	ubfx	r7, r5, #4, #1
 8003c1e:	409f      	lsls	r7, r3
 8003c20:	ea47 070e 	orr.w	r7, r7, lr
        GPIOx->OTYPER = temp;
 8003c24:	6047      	str	r7, [r0, #4]
        temp = GPIOx->PUPDR;
 8003c26:	68c7      	ldr	r7, [r0, #12]
        temp &= ~(GPIO_PUPDR_PUPDR0 << (position * 2U));
 8003c28:	ea07 0e0c 	and.w	lr, r7, ip
        temp |= ((GPIO_Init->Pull) << (position * 2U));
 8003c2c:	688f      	ldr	r7, [r1, #8]
 8003c2e:	fa07 f708 	lsl.w	r7, r7, r8
 8003c32:	ea47 070e 	orr.w	r7, r7, lr
      if((GPIO_Init->Mode & GPIO_MODE) == MODE_AF)
 8003c36:	2c02      	cmp	r4, #2
        GPIOx->PUPDR = temp;
 8003c38:	60c7      	str	r7, [r0, #12]
      if((GPIO_Init->Mode & GPIO_MODE) == MODE_AF)
 8003c3a:	d119      	bne.n	8003c70 <HAL_GPIO_Init+0xa4>
        temp = GPIOx->AFR[position >> 3U];
 8003c3c:	ea4f 0ad3 	mov.w	sl, r3, lsr #3
 8003c40:	eb00 0a8a 	add.w	sl, r0, sl, lsl #2
        temp &= ~(0xFU << ((uint32_t)(position & 0x07U) * 4U)) ;
 8003c44:	f003 0b07 	and.w	fp, r3, #7
        temp = GPIOx->AFR[position >> 3U];
 8003c48:	f8da 7020 	ldr.w	r7, [sl, #32]
        temp &= ~(0xFU << ((uint32_t)(position & 0x07U) * 4U)) ;
 8003c4c:	ea4f 0b8b 	mov.w	fp, fp, lsl #2
 8003c50:	f04f 0e0f 	mov.w	lr, #15
 8003c54:	fa0e fe0b 	lsl.w	lr, lr, fp
 8003c58:	ea27 0e0e 	bic.w	lr, r7, lr
        temp |= ((uint32_t)(GPIO_Init->Alternate) << (((uint32_t)position & 0x07U) * 4U));
 8003c5c:	690f      	ldr	r7, [r1, #16]
 8003c5e:	fa07 f70b 	lsl.w	r7, r7, fp
 8003c62:	ea47 070e 	orr.w	r7, r7, lr
        GPIOx->AFR[position >> 3U] = temp;
 8003c66:	f8ca 7020 	str.w	r7, [sl, #32]
 8003c6a:	e001      	b.n	8003c70 <HAL_GPIO_Init+0xa4>
      if((GPIO_Init->Mode & GPIO_MODE) != MODE_ANALOG)
 8003c6c:	2c03      	cmp	r4, #3
 8003c6e:	d1da      	bne.n	8003c26 <HAL_GPIO_Init+0x5a>
      temp = GPIOx->MODER;
 8003c70:	6807      	ldr	r7, [r0, #0]
      temp |= ((GPIO_Init->Mode & GPIO_MODE) << (position * 2U));
 8003c72:	fa04 f408 	lsl.w	r4, r4, r8
      temp &= ~(GPIO_MODER_MODER0 << (position * 2U));
 8003c76:	ea07 070c 	and.w	r7, r7, ip
      temp |= ((GPIO_Init->Mode & GPIO_MODE) << (position * 2U));
 8003c7a:	433c      	orrs	r4, r7
      if((GPIO_Init->Mode & EXTI_MODE) != 0x00U)
 8003c7c:	f415 3f40 	tst.w	r5, #196608	@ 0x30000
      GPIOx->MODER = temp;
 8003c80:	6004      	str	r4, [r0, #0]
      if((GPIO_Init->Mode & EXTI_MODE) != 0x00U)
 8003c82:	d054      	beq.n	8003d2e <HAL_GPIO_Init+0x162>
        __HAL_RCC_SYSCFG_CLK_ENABLE();
 8003c84:	2400      	movs	r4, #0
 8003c86:	9401      	str	r4, [sp, #4]
 8003c88:	f8d9 4044 	ldr.w	r4, [r9, #68]	@ 0x44
 8003c8c:	f444 4480 	orr.w	r4, r4, #16384	@ 0x4000
 8003c90:	f8c9 4044 	str.w	r4, [r9, #68]	@ 0x44
 8003c94:	f8d9 4044 	ldr.w	r4, [r9, #68]	@ 0x44
 8003c98:	f023 0703 	bic.w	r7, r3, #3
 8003c9c:	f107 4780 	add.w	r7, r7, #1073741824	@ 0x40000000
 8003ca0:	f404 4480 	and.w	r4, r4, #16384	@ 0x4000
 8003ca4:	f507 379c 	add.w	r7, r7, #79872	@ 0x13800
 8003ca8:	9401      	str	r4, [sp, #4]
        temp &= ~(0x0FU << (4U * (position & 0x03U)));
 8003caa:	f003 0c03 	and.w	ip, r3, #3
        __HAL_RCC_SYSCFG_CLK_ENABLE();
 8003cae:	9c01      	ldr	r4, [sp, #4]
        temp = SYSCFG->EXTICR[position >> 2U];
 8003cb0:	f8d7 e008 	ldr.w	lr, [r7, #8]
        temp &= ~(0x0FU << (4U * (position & 0x03U)));
 8003cb4:	ea4f 0c8c 	mov.w	ip, ip, lsl #2
 8003cb8:	240f      	movs	r4, #15
 8003cba:	fa04 f40c 	lsl.w	r4, r4, ip
 8003cbe:	ea2e 0e04 	bic.w	lr, lr, r4
        temp |= ((uint32_t)(GPIO_GET_INDEX(GPIOx)) << (4U * (position & 0x03U)));
 8003cc2:	4c23      	ldr	r4, [pc, #140]	@ (8003d50 <HAL_GPIO_Init+0x184>)
 8003cc4:	42a0      	cmp	r0, r4
 8003cc6:	d039      	beq.n	8003d3c <HAL_GPIO_Init+0x170>
 8003cc8:	f504 6480 	add.w	r4, r4, #1024	@ 0x400
 8003ccc:	42a0      	cmp	r0, r4
 8003cce:	d037      	beq.n	8003d40 <HAL_GPIO_Init+0x174>
 8003cd0:	f504 6480 	add.w	r4, r4, #1024	@ 0x400
 8003cd4:	42a0      	cmp	r0, r4
 8003cd6:	d035      	beq.n	8003d44 <HAL_GPIO_Init+0x178>
 8003cd8:	f504 6480 	add.w	r4, r4, #1024	@ 0x400
 8003cdc:	42a0      	cmp	r0, r4
 8003cde:	d033      	beq.n	8003d48 <HAL_GPIO_Init+0x17c>
 8003ce0:	f504 6480 	add.w	r4, r4, #1024	@ 0x400
 8003ce4:	42a0      	cmp	r0, r4
 8003ce6:	bf14      	ite	ne
 8003ce8:	2407      	movne	r4, #7
 8003cea:	2404      	moveq	r4, #4
 8003cec:	fa04 f40c 	lsl.w	r4, r4, ip
 8003cf0:	ea44 040e 	orr.w	r4, r4, lr
        SYSCFG->EXTICR[position >> 2U] = temp;
 8003cf4:	60bc      	str	r4, [r7, #8]
        temp = EXTI->RTSR;
 8003cf6:	6894      	ldr	r4, [r2, #8]
        temp &= ~((uint32_t)iocurrent);
 8003cf8:	43f7      	mvns	r7, r6
        if((GPIO_Init->Mode & TRIGGER_RISING) != 0x00U)
 8003cfa:	f415 1f80 	tst.w	r5, #1048576	@ 0x100000
        temp &= ~((uint32_t)iocurrent);
 8003cfe:	bf0c      	ite	eq
 8003d00:	403c      	andeq	r4, r7
        {
          temp |= iocurrent;
 8003d02:	4334      	orrne	r4, r6
        }
        EXTI->RTSR = temp;
 8003d04:	6094      	str	r4, [r2, #8]

        temp = EXTI->FTSR;
 8003d06:	68d4      	ldr	r4, [r2, #12]
        temp &= ~((uint32_t)iocurrent);
        if((GPIO_Init->Mode & TRIGGER_FALLING) != 0x00U)
 8003d08:	f415 1f00 	tst.w	r5, #2097152	@ 0x200000
        temp &= ~((uint32_t)iocurrent);
 8003d0c:	bf0c      	ite	eq
 8003d0e:	403c      	andeq	r4, r7
        {
          temp |= iocurrent;
 8003d10:	4334      	orrne	r4, r6
        }
        EXTI->FTSR = temp;
 8003d12:	60d4      	str	r4, [r2, #12]

        temp = EXTI->EMR;
 8003d14:	6854      	ldr	r4, [r2, #4]
        temp &= ~((uint32_t)iocurrent);
        if((GPIO_Init->Mode & EXTI_EVT) != 0x00U)
 8003d16:	f415 3f00 	tst.w	r5, #131072	@ 0x20000
        temp &= ~((uint32_t)iocurrent);
 8003d1a:	bf0c      	ite	eq
 8003d1c:	403c      	andeq	r4, r7
        {
          temp |= iocurrent;
 8003d1e:	4334      	orrne	r4, r6
        }
        EXTI->EMR = temp;
 8003d20:	6054      	str	r4, [r2, #4]

        /* Clear EXTI line configuration */
        temp = EXTI->IMR;
 8003d22:	6814      	ldr	r4, [r2, #0]
        temp &= ~((uint32_t)iocurrent);
        if((GPIO_Init->Mode & EXTI_IT) != 0x00U)
 8003d24:	03ed      	lsls	r5, r5, #15
        temp &= ~((uint32_t)iocurrent);
 8003d26:	bf54      	ite	pl
 8003d28:	403c      	andpl	r4, r7
        {
          temp |= iocurrent;
 8003d2a:	4334      	orrmi	r4, r6
        }
        EXTI->IMR = temp;
 8003d2c:	6014      	str	r4, [r2, #0]
  for(position = 0U; position < GPIO_NUMBER; position++)
 8003d2e:	3301      	adds	r3, #1
 8003d30:	2b10      	cmp	r3, #16
 8003d32:	f47f af51 	bne.w	8003bd8 <HAL_GPIO_Init+0xc>
      }
    }
  }
}
 8003d36:	b003      	add	sp, #12
 8003d38:	e8bd 8ff0 	ldmia.w	sp!, {r4, r5, r6, r7, r8, r9, sl, fp, pc}
        temp |= ((uint32_t)(GPIO_GET_INDEX(GPIOx)) << (4U * (position & 0x03U)));
 8003d3c:	2400      	movs	r4, #0
 8003d3e:	e7d5      	b.n	8003cec <HAL_GPIO_Init+0x120>
 8003d40:	2401      	movs	r4, #1
 8003d42:	e7d3      	b.n	8003cec <HAL_GPIO_Init+0x120>
 8003d44:	2402      	movs	r4, #2
 8003d46:	e7d1      	b.n	8003cec <HAL_GPIO_Init+0x120>
 8003d48:	2403      	movs	r4, #3
 8003d4a:	e7cf      	b.n	8003cec <HAL_GPIO_Init+0x120>
 8003d4c:	40013c00 	.word	0x40013c00
 8003d50:	40020000 	.word	0x40020000
 8003d54:	40023800 	.word	0x40023800

08003d58 <HAL_GPIO_ReadPin>:
  GPIO_PinState bitstatus;

  /* Check the parameters */
  assert_param(IS_GPIO_PIN(GPIO_Pin));

  if((GPIOx->IDR & GPIO_Pin) != (uint32_t)GPIO_PIN_RESET)
 8003d58:	6903      	ldr	r3, [r0, #16]
 8003d5a:	4219      	tst	r1, r3
  else
  {
    bitstatus = GPIO_PIN_RESET;
  }
  return bitstatus;
}
 8003d5c:	bf14      	ite	ne
 8003d5e:	2001      	movne	r0, #1
 8003d60:	2000      	moveq	r0, #0
 8003d62:	4770      	bx	lr

08003d64 <HAL_GPIO_WritePin>:
{
  /* Check the parameters */
  assert_param(IS_GPIO_PIN(GPIO_Pin));
  assert_param(IS_GPIO_PIN_ACTION(PinState));

  if(PinState != GPIO_PIN_RESET)
 8003d64:	b10a      	cbz	r2, 8003d6a <HAL_GPIO_WritePin+0x6>
  {
    GPIOx->BSRR = GPIO_Pin;
  }
  else
  {
    GPIOx->BSRR = (uint32_t)GPIO_Pin << 16U;
 8003d66:	6181      	str	r1, [r0, #24]
  }
}
 8003d68:	4770      	bx	lr
    GPIOx->BSRR = (uint32_t)GPIO_Pin << 16U;
 8003d6a:	0409      	lsls	r1, r1, #16
 8003d6c:	e7fb      	b.n	8003d66 <HAL_GPIO_WritePin+0x2>

08003d6e <HAL_GPIO_TogglePin>:

  /* Check the parameters */
  assert_param(IS_GPIO_PIN(GPIO_Pin));

  /* get current Output Data Register value */
  odr = GPIOx->ODR;
 8003d6e:	6943      	ldr	r3, [r0, #20]

  /* Set selected pins that were at low level, and reset ones that were high */
  GPIOx->BSRR = ((odr & GPIO_Pin) << GPIO_NUMBER) | (~odr & GPIO_Pin);
 8003d70:	ea01 0203 	and.w	r2, r1, r3
 8003d74:	ea21 0103 	bic.w	r1, r1, r3
 8003d78:	ea41 4102 	orr.w	r1, r1, r2, lsl #16
 8003d7c:	6181      	str	r1, [r0, #24]
}
 8003d7e:	4770      	bx	lr

08003d80 <HAL_PCD_Init>:
  *         parameters in the PCD_InitTypeDef and initialize the associated handle.
  * @param  hpcd PCD handle
  * @retval HAL status
  */
HAL_StatusTypeDef HAL_PCD_Init(PCD_HandleTypeDef *hpcd)
{
 8003d80:	b5f7      	push	{r0, r1, r2, r4, r5, r6, r7, lr}
  const USB_OTG_GlobalTypeDef *USBx;
#endif /* defined (USB_OTG_FS) */
  uint8_t i;

  /* Check the PCD handle allocation */
  if (hpcd == NULL)
 8003d82:	4604      	mov	r4, r0
 8003d84:	b310      	cbz	r0, 8003dcc <HAL_PCD_Init+0x4c>

#if defined (USB_OTG_FS)
  USBx = hpcd->Instance;
#endif /* defined (USB_OTG_FS) */

  if (hpcd->State == HAL_PCD_STATE_RESET)
 8003d86:	f890 3495 	ldrb.w	r3, [r0, #1173]	@ 0x495
  USBx = hpcd->Instance;
 8003d8a:	6805      	ldr	r5, [r0, #0]
  if (hpcd->State == HAL_PCD_STATE_RESET)
 8003d8c:	f003 02ff 	and.w	r2, r3, #255	@ 0xff
 8003d90:	b91b      	cbnz	r3, 8003d9a <HAL_PCD_Init+0x1a>
  {
    /* Allocate lock resource and initialize it */
    hpcd->Lock = HAL_UNLOCKED;
 8003d92:	f880 2494 	strb.w	r2, [r0, #1172]	@ 0x494

    /* Init the low level hardware */
    hpcd->MspInitCallback(hpcd);
#else
    /* Init the low level hardware : GPIO, CLOCK, NVIC... */
    HAL_PCD_MspInit(hpcd);
 8003d96:	f7ff fb4d 	bl	8003434 <HAL_PCD_MspInit>
#endif /* (USE_HAL_PCD_REGISTER_CALLBACKS) */
  }

  hpcd->State = HAL_PCD_STATE_BUSY;
 8003d9a:	2303      	movs	r3, #3

#if defined (USB_OTG_FS)
  /* Disable DMA mode for FS instance */
  if (USBx == USB_OTG_FS)
 8003d9c:	f1b5 4fa0 	cmp.w	r5, #1342177280	@ 0x50000000
  hpcd->State = HAL_PCD_STATE_BUSY;
 8003da0:	f884 3495 	strb.w	r3, [r4, #1173]	@ 0x495
  {
    hpcd->Init.dma_enable = 0U;
 8003da4:	bf04      	itt	eq
 8003da6:	2300      	moveq	r3, #0
 8003da8:	71a3      	strbeq	r3, [r4, #6]
  }
#endif /* defined (USB_OTG_FS) */

  /* Disable the Interrupts */
  __HAL_PCD_DISABLE(hpcd);
 8003daa:	6820      	ldr	r0, [r4, #0]
 8003dac:	f001 f878 	bl	8004ea0 <USB_DisableGlobalInt>

  /*Init the Core (common init.) */
  if (USB_CoreInit(hpcd->Instance, hpcd->Init) != HAL_OK)
 8003db0:	7c23      	ldrb	r3, [r4, #16]
 8003db2:	f88d 3000 	strb.w	r3, [sp]
 8003db6:	1d25      	adds	r5, r4, #4
 8003db8:	e895 000e 	ldmia.w	r5, {r1, r2, r3}
 8003dbc:	6820      	ldr	r0, [r4, #0]
 8003dbe:	f000 ffb5 	bl	8004d2c <USB_CoreInit>
 8003dc2:	4601      	mov	r1, r0
 8003dc4:	b130      	cbz	r0, 8003dd4 <HAL_PCD_Init+0x54>
  {
    hpcd->State = HAL_PCD_STATE_ERROR;
 8003dc6:	2302      	movs	r3, #2
 8003dc8:	f884 3495 	strb.w	r3, [r4, #1173]	@ 0x495
    return HAL_ERROR;
 8003dcc:	2501      	movs	r5, #1
          defined(STM32F412Vx) || defined(STM32F412Rx) || defined(STM32F412Cx) || defined(STM32F413xx) ||
          defined(STM32F423xx) */
  (void)USB_DevDisconnect(hpcd->Instance);

  return HAL_OK;
}
 8003dce:	4628      	mov	r0, r5
 8003dd0:	b003      	add	sp, #12
 8003dd2:	bdf0      	pop	{r4, r5, r6, r7, pc}
  if (USB_SetCurrentMode(hpcd->Instance, USB_DEVICE_MODE) != HAL_OK)
 8003dd4:	6820      	ldr	r0, [r4, #0]
 8003dd6:	f001 f869 	bl	8004eac <USB_SetCurrentMode>
 8003dda:	2800      	cmp	r0, #0
 8003ddc:	d1f3      	bne.n	8003dc6 <HAL_PCD_Init+0x46>
  for (i = 0U; i < hpcd->Init.dev_endpoints; i++)
 8003dde:	7926      	ldrb	r6, [r4, #4]
 8003de0:	f104 0314 	add.w	r3, r4, #20
    hpcd->IN_ep[i].is_in = 1U;
 8003de4:	2701      	movs	r7, #1
    hpcd->IN_ep[i].type = EP_TYPE_CTRL;
 8003de6:	4602      	mov	r2, r0
 8003de8:	b2c1      	uxtb	r1, r0
  for (i = 0U; i < hpcd->Init.dev_endpoints; i++)
 8003dea:	428e      	cmp	r6, r1
 8003dec:	f103 0324 	add.w	r3, r3, #36	@ 0x24
 8003df0:	d81b      	bhi.n	8003e2a <HAL_PCD_Init+0xaa>
 8003df2:	2100      	movs	r1, #0
 8003df4:	f504 7315 	add.w	r3, r4, #596	@ 0x254
    hpcd->OUT_ep[i].is_in = 0U;
 8003df8:	460a      	mov	r2, r1
 8003dfa:	b2c8      	uxtb	r0, r1
  for (i = 0U; i < hpcd->Init.dev_endpoints; i++)
 8003dfc:	4286      	cmp	r6, r0
 8003dfe:	f103 0324 	add.w	r3, r3, #36	@ 0x24
 8003e02:	d820      	bhi.n	8003e46 <HAL_PCD_Init+0xc6>
  if (USB_DevInit(hpcd->Instance, hpcd->Init) != HAL_OK)
 8003e04:	7c23      	ldrb	r3, [r4, #16]
 8003e06:	f88d 3000 	strb.w	r3, [sp]
 8003e0a:	e895 000e 	ldmia.w	r5, {r1, r2, r3}
 8003e0e:	6820      	ldr	r0, [r4, #0]
 8003e10:	f001 f8c8 	bl	8004fa4 <USB_DevInit>
 8003e14:	4605      	mov	r5, r0
 8003e16:	2800      	cmp	r0, #0
 8003e18:	d1d5      	bne.n	8003dc6 <HAL_PCD_Init+0x46>
  hpcd->State = HAL_PCD_STATE_READY;
 8003e1a:	2301      	movs	r3, #1
  hpcd->USB_Address = 0U;
 8003e1c:	7460      	strb	r0, [r4, #17]
  (void)USB_DevDisconnect(hpcd->Instance);
 8003e1e:	6820      	ldr	r0, [r4, #0]
  hpcd->State = HAL_PCD_STATE_READY;
 8003e20:	f884 3495 	strb.w	r3, [r4, #1173]	@ 0x495
  (void)USB_DevDisconnect(hpcd->Instance);
 8003e24:	f001 fc02 	bl	800562c <USB_DevDisconnect>
  return HAL_OK;
 8003e28:	e7d1      	b.n	8003dce <HAL_PCD_Init+0x4e>
    hpcd->IN_ep[i].tx_fifo_num = i;
 8003e2a:	f823 0c0a 	strh.w	r0, [r3, #-10]
    hpcd->IN_ep[i].xfer_buff = 0U;
 8003e2e:	e943 2207 	strd	r2, r2, [r3, #-28]
    hpcd->IN_ep[i].is_in = 1U;
 8003e32:	f803 7c23 	strb.w	r7, [r3, #-35]
    hpcd->IN_ep[i].num = i;
 8003e36:	f803 1c24 	strb.w	r1, [r3, #-36]
    hpcd->IN_ep[i].type = EP_TYPE_CTRL;
 8003e3a:	f803 2c20 	strb.w	r2, [r3, #-32]
    hpcd->IN_ep[i].xfer_len = 0U;
 8003e3e:	f843 2c14 	str.w	r2, [r3, #-20]
  for (i = 0U; i < hpcd->Init.dev_endpoints; i++)
 8003e42:	3001      	adds	r0, #1
 8003e44:	e7d0      	b.n	8003de8 <HAL_PCD_Init+0x68>
    hpcd->OUT_ep[i].xfer_buff = 0U;
 8003e46:	e943 2207 	strd	r2, r2, [r3, #-28]
    hpcd->OUT_ep[i].is_in = 0U;
 8003e4a:	f803 2c23 	strb.w	r2, [r3, #-35]
    hpcd->OUT_ep[i].num = i;
 8003e4e:	f803 0c24 	strb.w	r0, [r3, #-36]
    hpcd->OUT_ep[i].type = EP_TYPE_CTRL;
 8003e52:	f803 2c20 	strb.w	r2, [r3, #-32]
    hpcd->OUT_ep[i].xfer_len = 0U;
 8003e56:	f843 2c14 	str.w	r2, [r3, #-20]
  for (i = 0U; i < hpcd->Init.dev_endpoints; i++)
 8003e5a:	3101      	adds	r1, #1
 8003e5c:	e7cd      	b.n	8003dfa <HAL_PCD_Init+0x7a>

08003e5e <HAL_PCD_Start>:
  * @brief  Start the USB device
  * @param  hpcd PCD handle
  * @retval HAL status
  */
HAL_StatusTypeDef HAL_PCD_Start(PCD_HandleTypeDef *hpcd)
{
 8003e5e:	b510      	push	{r4, lr}
 8003e60:	4604      	mov	r4, r0
  USB_OTG_GlobalTypeDef *USBx = hpcd->Instance;
 8003e62:	6800      	ldr	r0, [r0, #0]

  __HAL_LOCK(hpcd);
 8003e64:	f894 3494 	ldrb.w	r3, [r4, #1172]	@ 0x494
 8003e68:	2b01      	cmp	r3, #1
 8003e6a:	d015      	beq.n	8003e98 <HAL_PCD_Start+0x3a>
 8003e6c:	2301      	movs	r3, #1
 8003e6e:	f884 3494 	strb.w	r3, [r4, #1172]	@ 0x494

  if (((USBx->GUSBCFG & USB_OTG_GUSBCFG_PHYSEL) != 0U) &&
 8003e72:	68c3      	ldr	r3, [r0, #12]
 8003e74:	065b      	lsls	r3, r3, #25
 8003e76:	d506      	bpl.n	8003e86 <HAL_PCD_Start+0x28>
 8003e78:	7b63      	ldrb	r3, [r4, #13]
 8003e7a:	2b01      	cmp	r3, #1
      (hpcd->Init.battery_charging_enable == 1U))
  {
    /* Enable USB Transceiver */
    USBx->GCCFG |= USB_OTG_GCCFG_PWRDWN;
 8003e7c:	bf02      	ittt	eq
 8003e7e:	6b83      	ldreq	r3, [r0, #56]	@ 0x38
 8003e80:	f443 3380 	orreq.w	r3, r3, #65536	@ 0x10000
 8003e84:	6383      	streq	r3, [r0, #56]	@ 0x38
  }

  __HAL_PCD_ENABLE(hpcd);
 8003e86:	f001 f805 	bl	8004e94 <USB_EnableGlobalInt>
  (void)USB_DevConnect(hpcd->Instance);
 8003e8a:	6820      	ldr	r0, [r4, #0]
 8003e8c:	f001 fbc0 	bl	8005610 <USB_DevConnect>
  __HAL_UNLOCK(hpcd);
 8003e90:	2000      	movs	r0, #0
 8003e92:	f884 0494 	strb.w	r0, [r4, #1172]	@ 0x494

  return HAL_OK;
}
 8003e96:	bd10      	pop	{r4, pc}
  __HAL_LOCK(hpcd);
 8003e98:	2002      	movs	r0, #2
 8003e9a:	e7fc      	b.n	8003e96 <HAL_PCD_Start+0x38>

08003e9c <HAL_PCD_SetAddress>:
  * @param  hpcd PCD handle
  * @param  address new device address
  * @retval HAL status
  */
HAL_StatusTypeDef HAL_PCD_SetAddress(PCD_HandleTypeDef *hpcd, uint8_t address)
{
 8003e9c:	b510      	push	{r4, lr}
  __HAL_LOCK(hpcd);
 8003e9e:	f890 2494 	ldrb.w	r2, [r0, #1172]	@ 0x494
 8003ea2:	2a01      	cmp	r2, #1
{
 8003ea4:	4604      	mov	r4, r0
  __HAL_LOCK(hpcd);
 8003ea6:	d00a      	beq.n	8003ebe <HAL_PCD_SetAddress+0x22>
 8003ea8:	2201      	movs	r2, #1
 8003eaa:	f880 2494 	strb.w	r2, [r0, #1172]	@ 0x494
  hpcd->USB_Address = address;
 8003eae:	7441      	strb	r1, [r0, #17]
  (void)USB_SetDevAddress(hpcd->Instance, address);
 8003eb0:	6800      	ldr	r0, [r0, #0]
 8003eb2:	f001 fb9d 	bl	80055f0 <USB_SetDevAddress>
  __HAL_UNLOCK(hpcd);
 8003eb6:	2000      	movs	r0, #0
 8003eb8:	f884 0494 	strb.w	r0, [r4, #1172]	@ 0x494

  return HAL_OK;
}
 8003ebc:	bd10      	pop	{r4, pc}
  __HAL_LOCK(hpcd);
 8003ebe:	2002      	movs	r0, #2
 8003ec0:	e7fc      	b.n	8003ebc <HAL_PCD_SetAddress+0x20>

08003ec2 <HAL_PCD_EP_Open>:
  * @param  ep_type endpoint type
  * @retval HAL status
  */
HAL_StatusTypeDef HAL_PCD_EP_Open(PCD_HandleTypeDef *hpcd, uint8_t ep_addr,
                                  uint16_t ep_mps, uint8_t ep_type)
{
 8003ec2:	b570      	push	{r4, r5, r6, lr}
 8003ec4:	f001 060f 	and.w	r6, r1, #15
 8003ec8:	eb06 04c6 	add.w	r4, r6, r6, lsl #3
  HAL_StatusTypeDef ret = HAL_OK;
  PCD_EPTypeDef *ep;

  if ((ep_addr & 0x80U) == 0x80U)
 8003ecc:	f011 0f80 	tst.w	r1, #128	@ 0x80
{
 8003ed0:	4605      	mov	r5, r0
 8003ed2:	ea4f 0484 	mov.w	r4, r4, lsl #2
 8003ed6:	f04f 0024 	mov.w	r0, #36	@ 0x24
  if ((ep_addr & 0x80U) == 0x80U)
 8003eda:	d020      	beq.n	8003f1e <HAL_PCD_EP_Open+0x5c>
  {
    ep = &hpcd->IN_ep[ep_addr & EP_ADDR_MSK];
    ep->is_in = 1U;
 8003edc:	fb00 5006 	mla	r0, r0, r6, r5
    ep = &hpcd->IN_ep[ep_addr & EP_ADDR_MSK];
 8003ee0:	f104 0114 	add.w	r1, r4, #20
    ep->is_in = 1U;
 8003ee4:	2401      	movs	r4, #1
    ep = &hpcd->IN_ep[ep_addr & EP_ADDR_MSK];
 8003ee6:	4429      	add	r1, r5
    ep->is_in = 1U;
 8003ee8:	7544      	strb	r4, [r0, #21]
    ep = &hpcd->OUT_ep[ep_addr & EP_ADDR_MSK];
    ep->is_in = 0U;
  }

  ep->num = ep_addr & EP_ADDR_MSK;
  ep->maxpacket = (uint32_t)ep_mps & 0x7FFU;
 8003eea:	f3c2 020a 	ubfx	r2, r2, #0, #11
 8003eee:	608a      	str	r2, [r1, #8]
  ep->type = ep_type;

  if (ep->is_in != 0U)
 8003ef0:	784a      	ldrb	r2, [r1, #1]
  ep->num = ep_addr & EP_ADDR_MSK;
 8003ef2:	700e      	strb	r6, [r1, #0]
  ep->type = ep_type;
 8003ef4:	710b      	strb	r3, [r1, #4]
  if (ep->is_in != 0U)
 8003ef6:	b102      	cbz	r2, 8003efa <HAL_PCD_EP_Open+0x38>
  {
    /* Assign a Tx FIFO */
    ep->tx_fifo_num = ep->num;
 8003ef8:	834e      	strh	r6, [r1, #26]
  }

  /* Set initial data PID. */
  if (ep_type == EP_TYPE_BULK)
 8003efa:	2b02      	cmp	r3, #2
  {
    ep->data_pid_start = 0U;
 8003efc:	bf04      	itt	eq
 8003efe:	2300      	moveq	r3, #0
 8003f00:	714b      	strbeq	r3, [r1, #5]
  }

  __HAL_LOCK(hpcd);
 8003f02:	f895 3494 	ldrb.w	r3, [r5, #1172]	@ 0x494
 8003f06:	2b01      	cmp	r3, #1
 8003f08:	d012      	beq.n	8003f30 <HAL_PCD_EP_Open+0x6e>
 8003f0a:	2301      	movs	r3, #1
  (void)USB_ActivateEndpoint(hpcd->Instance, ep);
 8003f0c:	6828      	ldr	r0, [r5, #0]
  __HAL_LOCK(hpcd);
 8003f0e:	f885 3494 	strb.w	r3, [r5, #1172]	@ 0x494
  (void)USB_ActivateEndpoint(hpcd->Instance, ep);
 8003f12:	f001 f90c 	bl	800512e <USB_ActivateEndpoint>
  __HAL_UNLOCK(hpcd);
 8003f16:	2000      	movs	r0, #0
 8003f18:	f885 0494 	strb.w	r0, [r5, #1172]	@ 0x494

  return ret;
}
 8003f1c:	bd70      	pop	{r4, r5, r6, pc}
    ep->is_in = 0U;
 8003f1e:	fb00 5006 	mla	r0, r0, r6, r5
    ep = &hpcd->OUT_ep[ep_addr & EP_ADDR_MSK];
 8003f22:	f504 7115 	add.w	r1, r4, #596	@ 0x254
    ep->is_in = 0U;
 8003f26:	2400      	movs	r4, #0
    ep = &hpcd->OUT_ep[ep_addr & EP_ADDR_MSK];
 8003f28:	4429      	add	r1, r5
    ep->is_in = 0U;
 8003f2a:	f880 4255 	strb.w	r4, [r0, #597]	@ 0x255
 8003f2e:	e7dc      	b.n	8003eea <HAL_PCD_EP_Open+0x28>
  __HAL_LOCK(hpcd);
 8003f30:	2002      	movs	r0, #2
 8003f32:	e7f3      	b.n	8003f1c <HAL_PCD_EP_Open+0x5a>

08003f34 <HAL_PCD_EP_Close>:
  * @param  hpcd PCD handle
  * @param  ep_addr endpoint address
  * @retval HAL status
  */
HAL_StatusTypeDef HAL_PCD_EP_Close(PCD_HandleTypeDef *hpcd, uint8_t ep_addr)
{
 8003f34:	b510      	push	{r4, lr}
 8003f36:	4604      	mov	r4, r0
 8003f38:	f001 000f 	and.w	r0, r1, #15
 8003f3c:	eb00 03c0 	add.w	r3, r0, r0, lsl #3
  PCD_EPTypeDef *ep;

  if ((ep_addr & 0x80U) == 0x80U)
 8003f40:	f011 0f80 	tst.w	r1, #128	@ 0x80
 8003f44:	ea4f 0383 	mov.w	r3, r3, lsl #2
 8003f48:	f04f 0224 	mov.w	r2, #36	@ 0x24
 8003f4c:	d015      	beq.n	8003f7a <HAL_PCD_EP_Close+0x46>
  {
    ep = &hpcd->IN_ep[ep_addr & EP_ADDR_MSK];
    ep->is_in = 1U;
 8003f4e:	fb02 4200 	mla	r2, r2, r0, r4
    ep = &hpcd->IN_ep[ep_addr & EP_ADDR_MSK];
 8003f52:	f103 0114 	add.w	r1, r3, #20
    ep->is_in = 1U;
 8003f56:	2301      	movs	r3, #1
    ep = &hpcd->IN_ep[ep_addr & EP_ADDR_MSK];
 8003f58:	4421      	add	r1, r4
    ep->is_in = 1U;
 8003f5a:	7553      	strb	r3, [r2, #21]
  else
  {
    ep = &hpcd->OUT_ep[ep_addr & EP_ADDR_MSK];
    ep->is_in = 0U;
  }
  ep->num = ep_addr & EP_ADDR_MSK;
 8003f5c:	7008      	strb	r0, [r1, #0]

  __HAL_LOCK(hpcd);
 8003f5e:	f894 3494 	ldrb.w	r3, [r4, #1172]	@ 0x494
 8003f62:	2b01      	cmp	r3, #1
 8003f64:	d012      	beq.n	8003f8c <HAL_PCD_EP_Close+0x58>
 8003f66:	2301      	movs	r3, #1
  (void)USB_DeactivateEndpoint(hpcd->Instance, ep);
 8003f68:	6820      	ldr	r0, [r4, #0]
  __HAL_LOCK(hpcd);
 8003f6a:	f884 3494 	strb.w	r3, [r4, #1172]	@ 0x494
  (void)USB_DeactivateEndpoint(hpcd->Instance, ep);
 8003f6e:	f001 f91d 	bl	80051ac <USB_DeactivateEndpoint>
  __HAL_UNLOCK(hpcd);
 8003f72:	2000      	movs	r0, #0
 8003f74:	f884 0494 	strb.w	r0, [r4, #1172]	@ 0x494
  return HAL_OK;
}
 8003f78:	bd10      	pop	{r4, pc}
    ep->is_in = 0U;
 8003f7a:	fb02 4200 	mla	r2, r2, r0, r4
    ep = &hpcd->OUT_ep[ep_addr & EP_ADDR_MSK];
 8003f7e:	f503 7115 	add.w	r1, r3, #596	@ 0x254
    ep->is_in = 0U;
 8003f82:	2300      	movs	r3, #0
    ep = &hpcd->OUT_ep[ep_addr & EP_ADDR_MSK];
 8003f84:	4421      	add	r1, r4
    ep->is_in = 0U;
 8003f86:	f882 3255 	strb.w	r3, [r2, #597]	@ 0x255
 8003f8a:	e7e7      	b.n	8003f5c <HAL_PCD_EP_Close+0x28>
  __HAL_LOCK(hpcd);
 8003f8c:	2002      	movs	r0, #2
 8003f8e:	e7f3      	b.n	8003f78 <HAL_PCD_EP_Close+0x44>

08003f90 <HAL_PCD_EP_Receive>:
  * @param  pBuf pointer to the reception buffer
  * @param  len amount of data to be received
  * @retval HAL status
  */
HAL_StatusTypeDef HAL_PCD_EP_Receive(PCD_HandleTypeDef *hpcd, uint8_t ep_addr, uint8_t *pBuf, uint32_t len)
{
 8003f90:	b570      	push	{r4, r5, r6, lr}
 8003f92:	f001 050f 	and.w	r5, r1, #15
  PCD_EPTypeDef *ep;

  ep = &hpcd->OUT_ep[ep_addr & EP_ADDR_MSK];
 8003f96:	2424      	movs	r4, #36	@ 0x24
 8003f98:	fb04 0105 	mla	r1, r4, r5, r0

  /*setup and start the Xfer */
  ep->xfer_buff = pBuf;
 8003f9c:	fb04 0405 	mla	r4, r4, r5, r0
  ep->xfer_len = len;
 8003fa0:	e9c4 2398 	strd	r2, r3, [r4, #608]	@ 0x260
  ep->xfer_count = 0U;
 8003fa4:	2300      	movs	r3, #0
 8003fa6:	f8c4 3268 	str.w	r3, [r4, #616]	@ 0x268
  ep->is_in = 0U;
 8003faa:	f884 3255 	strb.w	r3, [r4, #597]	@ 0x255
  ep->num = ep_addr & EP_ADDR_MSK;
 8003fae:	f884 5254 	strb.w	r5, [r4, #596]	@ 0x254
{
 8003fb2:	4616      	mov	r6, r2

  if (hpcd->Init.dma_enable == 1U)
 8003fb4:	7982      	ldrb	r2, [r0, #6]
  {
    ep->dma_addr = (uint32_t)pBuf;
  }

  (void)USB_EPStartXfer(hpcd->Instance, ep, (uint8_t)hpcd->Init.dma_enable);
 8003fb6:	6800      	ldr	r0, [r0, #0]
  if (hpcd->Init.dma_enable == 1U)
 8003fb8:	2a01      	cmp	r2, #1
  ep = &hpcd->OUT_ep[ep_addr & EP_ADDR_MSK];
 8003fba:	f501 7115 	add.w	r1, r1, #596	@ 0x254
    ep->dma_addr = (uint32_t)pBuf;
 8003fbe:	bf08      	it	eq
 8003fc0:	f8c4 6270 	streq.w	r6, [r4, #624]	@ 0x270
  (void)USB_EPStartXfer(hpcd->Instance, ep, (uint8_t)hpcd->Init.dma_enable);
 8003fc4:	f001 f99e 	bl	8005304 <USB_EPStartXfer>

  return HAL_OK;
}
 8003fc8:	2000      	movs	r0, #0
 8003fca:	bd70      	pop	{r4, r5, r6, pc}

08003fcc <HAL_PCD_EP_GetRxCount>:
  * @param  ep_addr endpoint address
  * @retval Data Size
  */
uint32_t HAL_PCD_EP_GetRxCount(PCD_HandleTypeDef const *hpcd, uint8_t ep_addr)
{
  return hpcd->OUT_ep[ep_addr & EP_ADDR_MSK].xfer_count;
 8003fcc:	f001 010f 	and.w	r1, r1, #15
 8003fd0:	2324      	movs	r3, #36	@ 0x24
 8003fd2:	fb03 0001 	mla	r0, r3, r1, r0
}
 8003fd6:	f8d0 0268 	ldr.w	r0, [r0, #616]	@ 0x268
 8003fda:	4770      	bx	lr

08003fdc <HAL_PCD_EP_Transmit>:
  * @param  pBuf pointer to the transmission buffer
  * @param  len amount of data to be sent
  * @retval HAL status
  */
HAL_StatusTypeDef HAL_PCD_EP_Transmit(PCD_HandleTypeDef *hpcd, uint8_t ep_addr, uint8_t *pBuf, uint32_t len)
{
 8003fdc:	b570      	push	{r4, r5, r6, lr}
 8003fde:	f001 050f 	and.w	r5, r1, #15
  PCD_EPTypeDef *ep;

  ep = &hpcd->IN_ep[ep_addr & EP_ADDR_MSK];
 8003fe2:	2424      	movs	r4, #36	@ 0x24
 8003fe4:	fb04 0105 	mla	r1, r4, r5, r0

  /*setup and start the Xfer */
  ep->xfer_buff = pBuf;
 8003fe8:	fb04 0405 	mla	r4, r4, r5, r0
  ep->xfer_len = len;
 8003fec:	e9c4 2308 	strd	r2, r3, [r4, #32]
  ep->xfer_count = 0U;
 8003ff0:	2300      	movs	r3, #0
 8003ff2:	62a3      	str	r3, [r4, #40]	@ 0x28
  ep->is_in = 1U;
 8003ff4:	2301      	movs	r3, #1
 8003ff6:	7563      	strb	r3, [r4, #21]
  ep->num = ep_addr & EP_ADDR_MSK;
 8003ff8:	7525      	strb	r5, [r4, #20]
{
 8003ffa:	4616      	mov	r6, r2

  if (hpcd->Init.dma_enable == 1U)
 8003ffc:	7982      	ldrb	r2, [r0, #6]
  {
    ep->dma_addr = (uint32_t)pBuf;
  }

  (void)USB_EPStartXfer(hpcd->Instance, ep, (uint8_t)hpcd->Init.dma_enable);
 8003ffe:	6800      	ldr	r0, [r0, #0]
  if (hpcd->Init.dma_enable == 1U)
 8004000:	429a      	cmp	r2, r3
  ep = &hpcd->IN_ep[ep_addr & EP_ADDR_MSK];
 8004002:	f101 0114 	add.w	r1, r1, #20
    ep->dma_addr = (uint32_t)pBuf;
 8004006:	bf08      	it	eq
 8004008:	6326      	streq	r6, [r4, #48]	@ 0x30
  (void)USB_EPStartXfer(hpcd->Instance, ep, (uint8_t)hpcd->Init.dma_enable);
 800400a:	f001 f97b 	bl	8005304 <USB_EPStartXfer>

  return HAL_OK;
}
 800400e:	2000      	movs	r0, #0
 8004010:	bd70      	pop	{r4, r5, r6, pc}

08004012 <HAL_PCD_EP_SetStall>:
  * @param  hpcd PCD handle
  * @param  ep_addr endpoint address
  * @retval HAL status
  */
HAL_StatusTypeDef HAL_PCD_EP_SetStall(PCD_HandleTypeDef *hpcd, uint8_t ep_addr)
{
 8004012:	b538      	push	{r3, r4, r5, lr}
  PCD_EPTypeDef *ep;

  if (((uint32_t)ep_addr & EP_ADDR_MSK) > hpcd->Init.dev_endpoints)
 8004014:	7903      	ldrb	r3, [r0, #4]
 8004016:	f001 050f 	and.w	r5, r1, #15
 800401a:	42ab      	cmp	r3, r5
{
 800401c:	4604      	mov	r4, r0
  if (((uint32_t)ep_addr & EP_ADDR_MSK) > hpcd->Init.dev_endpoints)
 800401e:	d32b      	bcc.n	8004078 <HAL_PCD_EP_SetStall+0x66>
  {
    return HAL_ERROR;
  }

  if ((0x80U & ep_addr) == 0x80U)
 8004020:	f011 0f80 	tst.w	r1, #128	@ 0x80
 8004024:	f04f 0024 	mov.w	r0, #36	@ 0x24
 8004028:	d01d      	beq.n	8004066 <HAL_PCD_EP_SetStall+0x54>
  {
    ep = &hpcd->IN_ep[ep_addr & EP_ADDR_MSK];
 800402a:	fb00 4105 	mla	r1, r0, r5, r4
    ep->is_in = 1U;
 800402e:	fb00 4005 	mla	r0, r0, r5, r4
 8004032:	2301      	movs	r3, #1
    ep = &hpcd->IN_ep[ep_addr & EP_ADDR_MSK];
 8004034:	3114      	adds	r1, #20
    ep->is_in = 1U;
 8004036:	7543      	strb	r3, [r0, #21]
  {
    ep = &hpcd->OUT_ep[ep_addr];
    ep->is_in = 0U;
  }

  ep->is_stall = 1U;
 8004038:	2301      	movs	r3, #1
 800403a:	708b      	strb	r3, [r1, #2]
  ep->num = ep_addr & EP_ADDR_MSK;
 800403c:	700d      	strb	r5, [r1, #0]

  __HAL_LOCK(hpcd);
 800403e:	f894 2494 	ldrb.w	r2, [r4, #1172]	@ 0x494
 8004042:	429a      	cmp	r2, r3
 8004044:	d01a      	beq.n	800407c <HAL_PCD_EP_SetStall+0x6a>

  (void)USB_EPSetStall(hpcd->Instance, ep);
 8004046:	6820      	ldr	r0, [r4, #0]
  __HAL_LOCK(hpcd);
 8004048:	f884 3494 	strb.w	r3, [r4, #1172]	@ 0x494
  (void)USB_EPSetStall(hpcd->Instance, ep);
 800404c:	f001 fa7c 	bl	8005548 <USB_EPSetStall>

  if ((ep_addr & EP_ADDR_MSK) == 0U)
 8004050:	b92d      	cbnz	r5, 800405e <HAL_PCD_EP_SetStall+0x4c>
  {
    (void)USB_EP0_OutStart(hpcd->Instance, (uint8_t)hpcd->Init.dma_enable, (uint8_t *)hpcd->Setup);
 8004052:	79a1      	ldrb	r1, [r4, #6]
 8004054:	6820      	ldr	r0, [r4, #0]
 8004056:	f204 429c 	addw	r2, r4, #1180	@ 0x49c
 800405a:	f001 fb35 	bl	80056c8 <USB_EP0_OutStart>
  }

  __HAL_UNLOCK(hpcd);
 800405e:	2000      	movs	r0, #0
 8004060:	f884 0494 	strb.w	r0, [r4, #1172]	@ 0x494

  return HAL_OK;
}
 8004064:	bd38      	pop	{r3, r4, r5, pc}
    ep = &hpcd->OUT_ep[ep_addr];
 8004066:	fb00 4301 	mla	r3, r0, r1, r4
    ep->is_in = 0U;
 800406a:	461a      	mov	r2, r3
    ep = &hpcd->OUT_ep[ep_addr];
 800406c:	f503 7115 	add.w	r1, r3, #596	@ 0x254
    ep->is_in = 0U;
 8004070:	2300      	movs	r3, #0
 8004072:	f882 3255 	strb.w	r3, [r2, #597]	@ 0x255
 8004076:	e7df      	b.n	8004038 <HAL_PCD_EP_SetStall+0x26>
    return HAL_ERROR;
 8004078:	2001      	movs	r0, #1
 800407a:	e7f3      	b.n	8004064 <HAL_PCD_EP_SetStall+0x52>
  __HAL_LOCK(hpcd);
 800407c:	2002      	movs	r0, #2
 800407e:	e7f1      	b.n	8004064 <HAL_PCD_EP_SetStall+0x52>

08004080 <HAL_PCD_EP_ClrStall>:
  * @param  hpcd PCD handle
  * @param  ep_addr endpoint address
  * @retval HAL status
  */
HAL_StatusTypeDef HAL_PCD_EP_ClrStall(PCD_HandleTypeDef *hpcd, uint8_t ep_addr)
{
 8004080:	b538      	push	{r3, r4, r5, lr}
  PCD_EPTypeDef *ep;

  if (((uint32_t)ep_addr & 0x0FU) > hpcd->Init.dev_endpoints)
 8004082:	7903      	ldrb	r3, [r0, #4]
 8004084:	f001 020f 	and.w	r2, r1, #15
 8004088:	4293      	cmp	r3, r2
{
 800408a:	4604      	mov	r4, r0
  if (((uint32_t)ep_addr & 0x0FU) > hpcd->Init.dev_endpoints)
 800408c:	d329      	bcc.n	80040e2 <HAL_PCD_EP_ClrStall+0x62>
  {
    return HAL_ERROR;
  }

  if ((0x80U & ep_addr) == 0x80U)
 800408e:	eb02 03c2 	add.w	r3, r2, r2, lsl #3
 8004092:	f011 0f80 	tst.w	r1, #128	@ 0x80
 8004096:	ea4f 0383 	mov.w	r3, r3, lsl #2
 800409a:	f04f 0024 	mov.w	r0, #36	@ 0x24
 800409e:	d017      	beq.n	80040d0 <HAL_PCD_EP_ClrStall+0x50>
  {
    ep = &hpcd->IN_ep[ep_addr & EP_ADDR_MSK];
    ep->is_in = 1U;
 80040a0:	fb00 4002 	mla	r0, r0, r2, r4
    ep = &hpcd->IN_ep[ep_addr & EP_ADDR_MSK];
 80040a4:	f103 0114 	add.w	r1, r3, #20
    ep->is_in = 1U;
 80040a8:	2301      	movs	r3, #1
    ep = &hpcd->IN_ep[ep_addr & EP_ADDR_MSK];
 80040aa:	4421      	add	r1, r4
    ep->is_in = 1U;
 80040ac:	7543      	strb	r3, [r0, #21]
  {
    ep = &hpcd->OUT_ep[ep_addr & EP_ADDR_MSK];
    ep->is_in = 0U;
  }

  ep->is_stall = 0U;
 80040ae:	2500      	movs	r5, #0
 80040b0:	708d      	strb	r5, [r1, #2]
  ep->num = ep_addr & EP_ADDR_MSK;
 80040b2:	700a      	strb	r2, [r1, #0]

  __HAL_LOCK(hpcd);
 80040b4:	f894 3494 	ldrb.w	r3, [r4, #1172]	@ 0x494
 80040b8:	2b01      	cmp	r3, #1
 80040ba:	d014      	beq.n	80040e6 <HAL_PCD_EP_ClrStall+0x66>
 80040bc:	2301      	movs	r3, #1
  (void)USB_EPClearStall(hpcd->Instance, ep);
 80040be:	6820      	ldr	r0, [r4, #0]
  __HAL_LOCK(hpcd);
 80040c0:	f884 3494 	strb.w	r3, [r4, #1172]	@ 0x494
  (void)USB_EPClearStall(hpcd->Instance, ep);
 80040c4:	f001 fa6b 	bl	800559e <USB_EPClearStall>
  __HAL_UNLOCK(hpcd);
 80040c8:	f884 5494 	strb.w	r5, [r4, #1172]	@ 0x494

  return HAL_OK;
 80040cc:	4628      	mov	r0, r5
}
 80040ce:	bd38      	pop	{r3, r4, r5, pc}
    ep->is_in = 0U;
 80040d0:	fb00 4002 	mla	r0, r0, r2, r4
    ep = &hpcd->OUT_ep[ep_addr & EP_ADDR_MSK];
 80040d4:	f503 7115 	add.w	r1, r3, #596	@ 0x254
    ep->is_in = 0U;
 80040d8:	2300      	movs	r3, #0
    ep = &hpcd->OUT_ep[ep_addr & EP_ADDR_MSK];
 80040da:	4421      	add	r1, r4
    ep->is_in = 0U;
 80040dc:	f880 3255 	strb.w	r3, [r0, #597]	@ 0x255
 80040e0:	e7e5      	b.n	80040ae <HAL_PCD_EP_ClrStall+0x2e>
    return HAL_ERROR;
 80040e2:	2001      	movs	r0, #1
 80040e4:	e7f3      	b.n	80040ce <HAL_PCD_EP_ClrStall+0x4e>
  __HAL_LOCK(hpcd);
 80040e6:	2002      	movs	r0, #2
 80040e8:	e7f1      	b.n	80040ce <HAL_PCD_EP_ClrStall+0x4e>

080040ea <HAL_PCD_EP_Abort>:
HAL_StatusTypeDef HAL_PCD_EP_Abort(PCD_HandleTypeDef *hpcd, uint8_t ep_addr)
{
  HAL_StatusTypeDef ret;
  PCD_EPTypeDef *ep;

  if ((0x80U & ep_addr) == 0x80U)
 80040ea:	f001 030f 	and.w	r3, r1, #15
 80040ee:	eb03 03c3 	add.w	r3, r3, r3, lsl #3
 80040f2:	060a      	lsls	r2, r1, #24
  {
    ep = &hpcd->IN_ep[ep_addr & EP_ADDR_MSK];
 80040f4:	ea4f 0383 	mov.w	r3, r3, lsl #2
 80040f8:	bf4c      	ite	mi
 80040fa:	f103 0114 	addmi.w	r1, r3, #20
  }
  else
  {
    ep = &hpcd->OUT_ep[ep_addr & EP_ADDR_MSK];
 80040fe:	f503 7115 	addpl.w	r1, r3, #596	@ 0x254
 8004102:	4401      	add	r1, r0
  }

  /* Stop Xfer */
  ret = USB_EPStopXfer(hpcd->Instance, ep);
 8004104:	6800      	ldr	r0, [r0, #0]
 8004106:	f001 b8a7 	b.w	8005258 <USB_EPStopXfer>
	...

0800410c <HAL_PCD_IRQHandler>:
{
 800410c:	e92d 4ff0 	stmdb	sp!, {r4, r5, r6, r7, r8, r9, sl, fp, lr}
  USB_OTG_GlobalTypeDef *USBx = hpcd->Instance;
 8004110:	6806      	ldr	r6, [r0, #0]
{
 8004112:	b089      	sub	sp, #36	@ 0x24
 8004114:	4604      	mov	r4, r0
  if (USB_GetMode(hpcd->Instance) == USB_OTG_MODE_DEVICE)
 8004116:	4630      	mov	r0, r6
 8004118:	f001 fac4 	bl	80056a4 <USB_GetMode>
 800411c:	9003      	str	r0, [sp, #12]
 800411e:	2800      	cmp	r0, #0
 8004120:	f040 8156 	bne.w	80043d0 <HAL_PCD_IRQHandler+0x2c4>
    if (__HAL_PCD_IS_INVALID_INTERRUPT(hpcd))
 8004124:	6820      	ldr	r0, [r4, #0]
 8004126:	f001 fa8f 	bl	8005648 <USB_ReadInterrupts>
 800412a:	2800      	cmp	r0, #0
 800412c:	f000 8150 	beq.w	80043d0 <HAL_PCD_IRQHandler+0x2c4>
    hpcd->FrameNumber = (USBx_DEVICE->DSTS & USB_OTG_DSTS_FNSOF_Msk) >> USB_OTG_DSTS_FNSOF_Pos;
 8004130:	f8d6 3808 	ldr.w	r3, [r6, #2056]	@ 0x808
    if (__HAL_PCD_GET_FLAG(hpcd, USB_OTG_GINTSTS_MMIS))
 8004134:	6820      	ldr	r0, [r4, #0]
    hpcd->FrameNumber = (USBx_DEVICE->DSTS & USB_OTG_DSTS_FNSOF_Msk) >> USB_OTG_DSTS_FNSOF_Pos;
 8004136:	f3c3 230d 	ubfx	r3, r3, #8, #14
 800413a:	f8c4 34d4 	str.w	r3, [r4, #1236]	@ 0x4d4
    if (__HAL_PCD_GET_FLAG(hpcd, USB_OTG_GINTSTS_MMIS))
 800413e:	f001 fa83 	bl	8005648 <USB_ReadInterrupts>
 8004142:	0787      	lsls	r7, r0, #30
      __HAL_PCD_CLEAR_FLAG(hpcd, USB_OTG_GINTSTS_MMIS);
 8004144:	bf48      	it	mi
 8004146:	6822      	ldrmi	r2, [r4, #0]
    if (__HAL_PCD_GET_FLAG(hpcd, USB_OTG_GINTSTS_RXFLVL))
 8004148:	6820      	ldr	r0, [r4, #0]
      __HAL_PCD_CLEAR_FLAG(hpcd, USB_OTG_GINTSTS_MMIS);
 800414a:	bf42      	ittt	mi
 800414c:	6953      	ldrmi	r3, [r2, #20]
 800414e:	f003 0302 	andmi.w	r3, r3, #2
 8004152:	6153      	strmi	r3, [r2, #20]
    if (__HAL_PCD_GET_FLAG(hpcd, USB_OTG_GINTSTS_RXFLVL))
 8004154:	f001 fa78 	bl	8005648 <USB_ReadInterrupts>
 8004158:	06c0      	lsls	r0, r0, #27
    hpcd->FrameNumber = (USBx_DEVICE->DSTS & USB_OTG_DSTS_FNSOF_Msk) >> USB_OTG_DSTS_FNSOF_Pos;
 800415a:	f506 6500 	add.w	r5, r6, #2048	@ 0x800
    if (__HAL_PCD_GET_FLAG(hpcd, USB_OTG_GINTSTS_RXFLVL))
 800415e:	d52d      	bpl.n	80041bc <HAL_PCD_IRQHandler+0xb0>
      USB_MASK_INTERRUPT(hpcd->Instance, USB_OTG_GINTSTS_RXFLVL);
 8004160:	6822      	ldr	r2, [r4, #0]
 8004162:	6993      	ldr	r3, [r2, #24]
 8004164:	f023 0310 	bic.w	r3, r3, #16
 8004168:	6193      	str	r3, [r2, #24]
      RegVal = USBx->GRXSTSP;
 800416a:	f8d6 8020 	ldr.w	r8, [r6, #32]
      if (((RegVal & USB_OTG_GRXSTSP_PKTSTS) >> 17) ==  STS_DATA_UPDT)
 800416e:	f408 13f0 	and.w	r3, r8, #1966080	@ 0x1e0000
 8004172:	f5b3 2f80 	cmp.w	r3, #262144	@ 0x40000
      ep = &hpcd->OUT_ep[RegVal & USB_OTG_GRXSTSP_EPNUM];
 8004176:	f008 070f 	and.w	r7, r8, #15
      if (((RegVal & USB_OTG_GRXSTSP_PKTSTS) >> 17) ==  STS_DATA_UPDT)
 800417a:	f040 812c 	bne.w	80043d6 <HAL_PCD_IRQHandler+0x2ca>
        if ((RegVal & USB_OTG_GRXSTSP_BCNT) != 0U)
 800417e:	f647 73f0 	movw	r3, #32752	@ 0x7ff0
 8004182:	ea18 0f03 	tst.w	r8, r3
 8004186:	d014      	beq.n	80041b2 <HAL_PCD_IRQHandler+0xa6>
          (void)USB_ReadPacket(USBx, ep->xfer_buff,
 8004188:	2324      	movs	r3, #36	@ 0x24
 800418a:	fb03 4707 	mla	r7, r3, r7, r4
 800418e:	f3c8 190a 	ubfx	r9, r8, #4, #11
 8004192:	f8d7 1260 	ldr.w	r1, [r7, #608]	@ 0x260
 8004196:	464a      	mov	r2, r9
 8004198:	4630      	mov	r0, r6
 800419a:	f001 f9b5 	bl	8005508 <USB_ReadPacket>
          ep->xfer_buff += (RegVal & USB_OTG_GRXSTSP_BCNT) >> 4;
 800419e:	f8d7 3260 	ldr.w	r3, [r7, #608]	@ 0x260
 80041a2:	444b      	add	r3, r9
 80041a4:	f8c7 3260 	str.w	r3, [r7, #608]	@ 0x260
          ep->xfer_count += (RegVal & USB_OTG_GRXSTSP_BCNT) >> 4;
 80041a8:	f8d7 3268 	ldr.w	r3, [r7, #616]	@ 0x268
 80041ac:	444b      	add	r3, r9
        ep->xfer_count += (RegVal & USB_OTG_GRXSTSP_BCNT) >> 4;
 80041ae:	f8c7 3268 	str.w	r3, [r7, #616]	@ 0x268
      USB_UNMASK_INTERRUPT(hpcd->Instance, USB_OTG_GINTSTS_RXFLVL);
 80041b2:	6822      	ldr	r2, [r4, #0]
 80041b4:	6993      	ldr	r3, [r2, #24]
 80041b6:	f043 0310 	orr.w	r3, r3, #16
 80041ba:	6193      	str	r3, [r2, #24]
    if (__HAL_PCD_GET_FLAG(hpcd, USB_OTG_GINTSTS_OEPINT))
 80041bc:	6820      	ldr	r0, [r4, #0]
 80041be:	f001 fa43 	bl	8005648 <USB_ReadInterrupts>
 80041c2:	0301      	lsls	r1, r0, #12
 80041c4:	f100 811a 	bmi.w	80043fc <HAL_PCD_IRQHandler+0x2f0>
    if (__HAL_PCD_GET_FLAG(hpcd, USB_OTG_GINTSTS_IEPINT))
 80041c8:	6820      	ldr	r0, [r4, #0]
 80041ca:	f001 fa3d 	bl	8005648 <USB_ReadInterrupts>
 80041ce:	0342      	lsls	r2, r0, #13
 80041d0:	d50d      	bpl.n	80041ee <HAL_PCD_IRQHandler+0xe2>
      ep_intr = USB_ReadDevAllInEpInterrupt(hpcd->Instance);
 80041d2:	6820      	ldr	r0, [r4, #0]
 80041d4:	f001 fa44 	bl	8005660 <USB_ReadDevAllInEpInterrupt>
 80041d8:	4627      	mov	r7, r4
 80041da:	9004      	str	r0, [sp, #16]
      while (ep_intr != 0U)
 80041dc:	f506 6b10 	add.w	fp, r6, #2304	@ 0x900
      epnum = 0U;
 80041e0:	f04f 0a00 	mov.w	sl, #0
      while (ep_intr != 0U)
 80041e4:	9b04      	ldr	r3, [sp, #16]
          epint = USB_ReadDevInEPInterrupt(hpcd->Instance, (uint8_t)epnum);
 80041e6:	6820      	ldr	r0, [r4, #0]
      while (ep_intr != 0U)
 80041e8:	2b00      	cmp	r3, #0
 80041ea:	f040 81d1 	bne.w	8004590 <HAL_PCD_IRQHandler+0x484>
    if (__HAL_PCD_GET_FLAG(hpcd, USB_OTG_GINTSTS_WKUINT))
 80041ee:	6820      	ldr	r0, [r4, #0]
 80041f0:	f001 fa2a 	bl	8005648 <USB_ReadInterrupts>
 80041f4:	2800      	cmp	r0, #0
 80041f6:	da13      	bge.n	8004220 <HAL_PCD_IRQHandler+0x114>
      USBx_DEVICE->DCTL &= ~USB_OTG_DCTL_RWUSIG;
 80041f8:	686b      	ldr	r3, [r5, #4]
 80041fa:	f023 0301 	bic.w	r3, r3, #1
 80041fe:	606b      	str	r3, [r5, #4]
      if (hpcd->LPM_State == LPM_L1)
 8004200:	f894 34cc 	ldrb.w	r3, [r4, #1228]	@ 0x4cc
 8004204:	2b01      	cmp	r3, #1
 8004206:	f040 8269 	bne.w	80046dc <HAL_PCD_IRQHandler+0x5d0>
        hpcd->LPM_State = LPM_L0;
 800420a:	2100      	movs	r1, #0
 800420c:	f884 14cc 	strb.w	r1, [r4, #1228]	@ 0x4cc
        HAL_PCDEx_LPM_Callback(hpcd, PCD_LPM_L0_ACTIVE);
 8004210:	4620      	mov	r0, r4
 8004212:	f000 fae6 	bl	80047e2 <HAL_PCDEx_LPM_Callback>
      __HAL_PCD_CLEAR_FLAG(hpcd, USB_OTG_GINTSTS_WKUINT);
 8004216:	6822      	ldr	r2, [r4, #0]
 8004218:	6953      	ldr	r3, [r2, #20]
 800421a:	f003 4300 	and.w	r3, r3, #2147483648	@ 0x80000000
 800421e:	6153      	str	r3, [r2, #20]
    if (__HAL_PCD_GET_FLAG(hpcd, USB_OTG_GINTSTS_USBSUSP))
 8004220:	6820      	ldr	r0, [r4, #0]
 8004222:	f001 fa11 	bl	8005648 <USB_ReadInterrupts>
 8004226:	0507      	lsls	r7, r0, #20
 8004228:	d50a      	bpl.n	8004240 <HAL_PCD_IRQHandler+0x134>
      if ((USBx_DEVICE->DSTS & USB_OTG_DSTS_SUSPSTS) == USB_OTG_DSTS_SUSPSTS)
 800422a:	68ab      	ldr	r3, [r5, #8]
 800422c:	07d8      	lsls	r0, r3, #31
 800422e:	d502      	bpl.n	8004236 <HAL_PCD_IRQHandler+0x12a>
        HAL_PCD_SuspendCallback(hpcd);
 8004230:	4620      	mov	r0, r4
 8004232:	f7ff f96f 	bl	8003514 <HAL_PCD_SuspendCallback>
      __HAL_PCD_CLEAR_FLAG(hpcd, USB_OTG_GINTSTS_USBSUSP);
 8004236:	6822      	ldr	r2, [r4, #0]
 8004238:	6953      	ldr	r3, [r2, #20]
 800423a:	f403 6300 	and.w	r3, r3, #2048	@ 0x800
 800423e:	6153      	str	r3, [r2, #20]
    if (__HAL_PCD_GET_FLAG(hpcd, USB_OTG_GINTSTS_USBRST))
 8004240:	6820      	ldr	r0, [r4, #0]
 8004242:	f001 fa01 	bl	8005648 <USB_ReadInterrupts>
 8004246:	04c1      	lsls	r1, r0, #19
 8004248:	d533      	bpl.n	80042b2 <HAL_PCD_IRQHandler+0x1a6>
      USBx_DEVICE->DCTL &= ~USB_OTG_DCTL_RWUSIG;
 800424a:	686b      	ldr	r3, [r5, #4]
      (void)USB_FlushTxFifo(hpcd->Instance, 0x10U);
 800424c:	6820      	ldr	r0, [r4, #0]
      USBx_DEVICE->DCTL &= ~USB_OTG_DCTL_RWUSIG;
 800424e:	f023 0301 	bic.w	r3, r3, #1
 8004252:	606b      	str	r3, [r5, #4]
      (void)USB_FlushTxFifo(hpcd->Instance, 0x10U);
 8004254:	2110      	movs	r1, #16
 8004256:	f000 fe59 	bl	8004f0c <USB_FlushTxFifo>
      for (i = 0U; i < hpcd->Init.dev_endpoints; i++)
 800425a:	7920      	ldrb	r0, [r4, #4]
 800425c:	f506 6310 	add.w	r3, r6, #2304	@ 0x900
        USBx_INEP(i)->DIEPINT = 0xFB7FU;
 8004260:	f64f 317f 	movw	r1, #64383	@ 0xfb7f
      for (i = 0U; i < hpcd->Init.dev_endpoints; i++)
 8004264:	9a03      	ldr	r2, [sp, #12]
 8004266:	4290      	cmp	r0, r2
 8004268:	f200 823c 	bhi.w	80046e4 <HAL_PCD_IRQHandler+0x5d8>
      USBx_DEVICE->DAINTMSK |= 0x10001U;
 800426c:	69eb      	ldr	r3, [r5, #28]
 800426e:	f043 1301 	orr.w	r3, r3, #65537	@ 0x10001
 8004272:	61eb      	str	r3, [r5, #28]
      if (hpcd->Init.use_dedicated_ep1 != 0U)
 8004274:	7be3      	ldrb	r3, [r4, #15]
 8004276:	2b00      	cmp	r3, #0
 8004278:	f000 8250 	beq.w	800471c <HAL_PCD_IRQHandler+0x610>
        USBx_DEVICE->DOUTEP1MSK |= USB_OTG_DOEPMSK_STUPM |
 800427c:	f8d5 3084 	ldr.w	r3, [r5, #132]	@ 0x84
 8004280:	f043 030b 	orr.w	r3, r3, #11
 8004284:	f8c5 3084 	str.w	r3, [r5, #132]	@ 0x84
        USBx_DEVICE->DINEP1MSK |= USB_OTG_DIEPMSK_TOM |
 8004288:	6c6b      	ldr	r3, [r5, #68]	@ 0x44
 800428a:	f043 030b 	orr.w	r3, r3, #11
 800428e:	646b      	str	r3, [r5, #68]	@ 0x44
      USBx_DEVICE->DCFG &= ~USB_OTG_DCFG_DAD;
 8004290:	f8d6 3800 	ldr.w	r3, [r6, #2048]	@ 0x800
      (void)USB_EP0_OutStart(hpcd->Instance, (uint8_t)hpcd->Init.dma_enable,
 8004294:	6820      	ldr	r0, [r4, #0]
      USBx_DEVICE->DCFG &= ~USB_OTG_DCFG_DAD;
 8004296:	f423 63fe 	bic.w	r3, r3, #2032	@ 0x7f0
 800429a:	f8c6 3800 	str.w	r3, [r6, #2048]	@ 0x800
      (void)USB_EP0_OutStart(hpcd->Instance, (uint8_t)hpcd->Init.dma_enable,
 800429e:	f204 429c 	addw	r2, r4, #1180	@ 0x49c
 80042a2:	79a1      	ldrb	r1, [r4, #6]
 80042a4:	f001 fa10 	bl	80056c8 <USB_EP0_OutStart>
      __HAL_PCD_CLEAR_FLAG(hpcd, USB_OTG_GINTSTS_USBRST);
 80042a8:	6822      	ldr	r2, [r4, #0]
 80042aa:	6953      	ldr	r3, [r2, #20]
 80042ac:	f403 5380 	and.w	r3, r3, #4096	@ 0x1000
 80042b0:	6153      	str	r3, [r2, #20]
    if (__HAL_PCD_GET_FLAG(hpcd, USB_OTG_GINTSTS_ENUMDNE))
 80042b2:	6820      	ldr	r0, [r4, #0]
 80042b4:	f001 f9c8 	bl	8005648 <USB_ReadInterrupts>
 80042b8:	0482      	lsls	r2, r0, #18
 80042ba:	d516      	bpl.n	80042ea <HAL_PCD_IRQHandler+0x1de>
      (void)USB_ActivateSetup(hpcd->Instance);
 80042bc:	6820      	ldr	r0, [r4, #0]
 80042be:	f001 f9f5 	bl	80056ac <USB_ActivateSetup>
      hpcd->Init.speed = USB_GetDevSpeed(hpcd->Instance);
 80042c2:	6820      	ldr	r0, [r4, #0]
 80042c4:	f000 ff28 	bl	8005118 <USB_GetDevSpeed>
 80042c8:	71e0      	strb	r0, [r4, #7]
      (void)USB_SetTurnaroundTime(hpcd->Instance,
 80042ca:	6827      	ldr	r7, [r4, #0]
 80042cc:	f000 fd00 	bl	8004cd0 <HAL_RCC_GetHCLKFreq>
 80042d0:	79e2      	ldrb	r2, [r4, #7]
 80042d2:	4601      	mov	r1, r0
 80042d4:	4638      	mov	r0, r7
 80042d6:	f000 fd6d 	bl	8004db4 <USB_SetTurnaroundTime>
      HAL_PCD_ResetCallback(hpcd);
 80042da:	4620      	mov	r0, r4
 80042dc:	f7ff f907 	bl	80034ee <HAL_PCD_ResetCallback>
      __HAL_PCD_CLEAR_FLAG(hpcd, USB_OTG_GINTSTS_ENUMDNE);
 80042e0:	6822      	ldr	r2, [r4, #0]
 80042e2:	6953      	ldr	r3, [r2, #20]
 80042e4:	f403 5300 	and.w	r3, r3, #8192	@ 0x2000
 80042e8:	6153      	str	r3, [r2, #20]
    if (__HAL_PCD_GET_FLAG(hpcd, USB_OTG_GINTSTS_SOF))
 80042ea:	6820      	ldr	r0, [r4, #0]
 80042ec:	f001 f9ac 	bl	8005648 <USB_ReadInterrupts>
 80042f0:	0703      	lsls	r3, r0, #28
 80042f2:	d507      	bpl.n	8004304 <HAL_PCD_IRQHandler+0x1f8>
      HAL_PCD_SOFCallback(hpcd);
 80042f4:	4620      	mov	r0, r4
 80042f6:	f7ff f8f6 	bl	80034e6 <HAL_PCD_SOFCallback>
      __HAL_PCD_CLEAR_FLAG(hpcd, USB_OTG_GINTSTS_SOF);
 80042fa:	6822      	ldr	r2, [r4, #0]
 80042fc:	6953      	ldr	r3, [r2, #20]
 80042fe:	f003 0308 	and.w	r3, r3, #8
 8004302:	6153      	str	r3, [r2, #20]
    if (__HAL_PCD_GET_FLAG(hpcd, USB_OTG_GINTSTS_BOUTNAKEFF))
 8004304:	6820      	ldr	r0, [r4, #0]
 8004306:	f001 f99f 	bl	8005648 <USB_ReadInterrupts>
 800430a:	0607      	lsls	r7, r0, #24
 800430c:	f100 8211 	bmi.w	8004732 <HAL_PCD_IRQHandler+0x626>
    if (__HAL_PCD_GET_FLAG(hpcd, USB_OTG_GINTSTS_IISOIXFR))
 8004310:	6820      	ldr	r0, [r4, #0]
 8004312:	f001 f999 	bl	8005648 <USB_ReadInterrupts>
 8004316:	02c0      	lsls	r0, r0, #11
 8004318:	d50c      	bpl.n	8004334 <HAL_PCD_IRQHandler+0x228>
 800431a:	46a0      	mov	r8, r4
 800431c:	f506 6912 	add.w	r9, r6, #2336	@ 0x920
      for (epnum = 1U; epnum < hpcd->Init.dev_endpoints; epnum++)
 8004320:	2701      	movs	r7, #1
 8004322:	7923      	ldrb	r3, [r4, #4]
 8004324:	42bb      	cmp	r3, r7
 8004326:	f200 821d 	bhi.w	8004764 <HAL_PCD_IRQHandler+0x658>
      __HAL_PCD_CLEAR_FLAG(hpcd, USB_OTG_GINTSTS_IISOIXFR);
 800432a:	6822      	ldr	r2, [r4, #0]
 800432c:	6953      	ldr	r3, [r2, #20]
 800432e:	f403 1380 	and.w	r3, r3, #1048576	@ 0x100000
 8004332:	6153      	str	r3, [r2, #20]
    if (__HAL_PCD_GET_FLAG(hpcd, USB_OTG_GINTSTS_PXFR_INCOMPISOOUT))
 8004334:	6820      	ldr	r0, [r4, #0]
 8004336:	f001 f987 	bl	8005648 <USB_ReadInterrupts>
 800433a:	0281      	lsls	r1, r0, #10
 800433c:	d52b      	bpl.n	8004396 <HAL_PCD_IRQHandler+0x28a>
      for (epnum = 1U; epnum < hpcd->Init.dev_endpoints; epnum++)
 800433e:	f894 e004 	ldrb.w	lr, [r4, #4]
 8004342:	4623      	mov	r3, r4
 8004344:	f506 6132 	add.w	r1, r6, #2848	@ 0xb20
 8004348:	f04f 0c01 	mov.w	ip, #1
 800434c:	45e6      	cmp	lr, ip
 800434e:	d91d      	bls.n	800438c <HAL_PCD_IRQHandler+0x280>
        if ((hpcd->OUT_ep[epnum].type == EP_TYPE_ISOC) &&
 8004350:	f893 727c 	ldrb.w	r7, [r3, #636]	@ 0x27c
        RegVal = USBx_OUTEP(epnum)->DOEPCTL;
 8004354:	6808      	ldr	r0, [r1, #0]
        if ((hpcd->OUT_ep[epnum].type == EP_TYPE_ISOC) &&
 8004356:	2f01      	cmp	r7, #1
 8004358:	f040 821a 	bne.w	8004790 <HAL_PCD_IRQHandler+0x684>
 800435c:	2800      	cmp	r0, #0
 800435e:	f280 8217 	bge.w	8004790 <HAL_PCD_IRQHandler+0x684>
            (((RegVal & (0x1U << 16)) >> 16U) == (hpcd->FrameNumber & 0x1U)))
 8004362:	f8d4 24d4 	ldr.w	r2, [r4, #1236]	@ 0x4d4
 8004366:	ea82 4010 	eor.w	r0, r2, r0, lsr #16
            ((RegVal & USB_OTG_DOEPCTL_EPENA) == USB_OTG_DOEPCTL_EPENA) &&
 800436a:	07c2      	lsls	r2, r0, #31
 800436c:	f100 8210 	bmi.w	8004790 <HAL_PCD_IRQHandler+0x684>
          hpcd->OUT_ep[epnum].is_iso_incomplete = 1U;
 8004370:	f883 727b 	strb.w	r7, [r3, #635]	@ 0x27b
          USBx->GINTMSK |= USB_OTG_GINTMSK_GONAKEFFM;
 8004374:	69b0      	ldr	r0, [r6, #24]
 8004376:	f040 0080 	orr.w	r0, r0, #128	@ 0x80
 800437a:	61b0      	str	r0, [r6, #24]
          if ((USBx->GINTSTS & USB_OTG_GINTSTS_BOUTNAKEFF) == 0U)
 800437c:	6970      	ldr	r0, [r6, #20]
 800437e:	0600      	lsls	r0, r0, #24
 8004380:	f100 8206 	bmi.w	8004790 <HAL_PCD_IRQHandler+0x684>
            USBx_DEVICE->DCTL |= USB_OTG_DCTL_SGONAK;
 8004384:	686b      	ldr	r3, [r5, #4]
 8004386:	f443 7300 	orr.w	r3, r3, #512	@ 0x200
 800438a:	606b      	str	r3, [r5, #4]
      __HAL_PCD_CLEAR_FLAG(hpcd, USB_OTG_GINTSTS_PXFR_INCOMPISOOUT);
 800438c:	6822      	ldr	r2, [r4, #0]
 800438e:	6953      	ldr	r3, [r2, #20]
 8004390:	f403 1300 	and.w	r3, r3, #2097152	@ 0x200000
 8004394:	6153      	str	r3, [r2, #20]
    if (__HAL_PCD_GET_FLAG(hpcd, USB_OTG_GINTSTS_SRQINT))
 8004396:	6820      	ldr	r0, [r4, #0]
 8004398:	f001 f956 	bl	8005648 <USB_ReadInterrupts>
 800439c:	0041      	lsls	r1, r0, #1
 800439e:	d507      	bpl.n	80043b0 <HAL_PCD_IRQHandler+0x2a4>
      HAL_PCD_ConnectCallback(hpcd);
 80043a0:	4620      	mov	r0, r4
 80043a2:	f7ff f8db 	bl	800355c <HAL_PCD_ConnectCallback>
      __HAL_PCD_CLEAR_FLAG(hpcd, USB_OTG_GINTSTS_SRQINT);
 80043a6:	6822      	ldr	r2, [r4, #0]
 80043a8:	6953      	ldr	r3, [r2, #20]
 80043aa:	f003 4380 	and.w	r3, r3, #1073741824	@ 0x40000000
 80043ae:	6153      	str	r3, [r2, #20]
    if (__HAL_PCD_GET_FLAG(hpcd, USB_OTG_GINTSTS_OTGINT))
 80043b0:	6820      	ldr	r0, [r4, #0]
 80043b2:	f001 f949 	bl	8005648 <USB_ReadInterrupts>
 80043b6:	0742      	lsls	r2, r0, #29
 80043b8:	d50a      	bpl.n	80043d0 <HAL_PCD_IRQHandler+0x2c4>
      RegVal = hpcd->Instance->GOTGINT;
 80043ba:	6823      	ldr	r3, [r4, #0]
 80043bc:	685d      	ldr	r5, [r3, #4]
      if ((RegVal & USB_OTG_GOTGINT_SEDET) == USB_OTG_GOTGINT_SEDET)
 80043be:	076b      	lsls	r3, r5, #29
 80043c0:	d502      	bpl.n	80043c8 <HAL_PCD_IRQHandler+0x2bc>
        HAL_PCD_DisconnectCallback(hpcd);
 80043c2:	4620      	mov	r0, r4
 80043c4:	f7ff f8ce 	bl	8003564 <HAL_PCD_DisconnectCallback>
      hpcd->Instance->GOTGINT |= RegVal;
 80043c8:	6822      	ldr	r2, [r4, #0]
 80043ca:	6853      	ldr	r3, [r2, #4]
 80043cc:	432b      	orrs	r3, r5
 80043ce:	6053      	str	r3, [r2, #4]
}
 80043d0:	b009      	add	sp, #36	@ 0x24
 80043d2:	e8bd 8ff0 	ldmia.w	sp!, {r4, r5, r6, r7, r8, r9, sl, fp, pc}
      else if (((RegVal & USB_OTG_GRXSTSP_PKTSTS) >> 17) == STS_SETUP_UPDT)
 80043d6:	f5b3 2f40 	cmp.w	r3, #786432	@ 0xc0000
 80043da:	f47f aeea 	bne.w	80041b2 <HAL_PCD_IRQHandler+0xa6>
        (void)USB_ReadPacket(USBx, (uint8_t *)hpcd->Setup, 8U);
 80043de:	2208      	movs	r2, #8
 80043e0:	f204 419c 	addw	r1, r4, #1180	@ 0x49c
 80043e4:	4630      	mov	r0, r6
 80043e6:	f001 f88f 	bl	8005508 <USB_ReadPacket>
        ep->xfer_count += (RegVal & USB_OTG_GRXSTSP_BCNT) >> 4;
 80043ea:	2324      	movs	r3, #36	@ 0x24
 80043ec:	fb03 4707 	mla	r7, r3, r7, r4
 80043f0:	f3c8 180a 	ubfx	r8, r8, #4, #11
 80043f4:	f8d7 3268 	ldr.w	r3, [r7, #616]	@ 0x268
 80043f8:	4443      	add	r3, r8
 80043fa:	e6d8      	b.n	80041ae <HAL_PCD_IRQHandler+0xa2>
      ep_intr = USB_ReadDevAllOutEpInterrupt(hpcd->Instance);
 80043fc:	6820      	ldr	r0, [r4, #0]
 80043fe:	f001 f927 	bl	8005650 <USB_ReadDevAllOutEpInterrupt>
 8004402:	f506 6830 	add.w	r8, r6, #2816	@ 0xb00
 8004406:	9004      	str	r0, [sp, #16]
      while (ep_intr != 0U)
 8004408:	46a2      	mov	sl, r4
      epnum = 0U;
 800440a:	2700      	movs	r7, #0
      while (ep_intr != 0U)
 800440c:	9b04      	ldr	r3, [sp, #16]
          epint = USB_ReadDevOutEPInterrupt(hpcd->Instance, (uint8_t)epnum);
 800440e:	6820      	ldr	r0, [r4, #0]
      while (ep_intr != 0U)
 8004410:	2b00      	cmp	r3, #0
 8004412:	f43f aed9 	beq.w	80041c8 <HAL_PCD_IRQHandler+0xbc>
        if ((ep_intr & 0x1U) != 0U)
 8004416:	9b04      	ldr	r3, [sp, #16]
 8004418:	07db      	lsls	r3, r3, #31
 800441a:	d578      	bpl.n	800450e <HAL_PCD_IRQHandler+0x402>
          epint = USB_ReadDevOutEPInterrupt(hpcd->Instance, (uint8_t)epnum);
 800441c:	fa5f fb87 	uxtb.w	fp, r7
 8004420:	4659      	mov	r1, fp
 8004422:	f001 f925 	bl	8005670 <USB_ReadDevOutEPInterrupt>
          if ((epint & USB_OTG_DOEPINT_XFRC) == USB_OTG_DOEPINT_XFRC)
 8004426:	f010 0f01 	tst.w	r0, #1
          epint = USB_ReadDevOutEPInterrupt(hpcd->Instance, (uint8_t)epnum);
 800442a:	4681      	mov	r9, r0
          if ((epint & USB_OTG_DOEPINT_XFRC) == USB_OTG_DOEPINT_XFRC)
 800442c:	d01f      	beq.n	800446e <HAL_PCD_IRQHandler+0x362>
  * @retval HAL status
  */
static HAL_StatusTypeDef PCD_EP_OutXfrComplete_int(PCD_HandleTypeDef *hpcd, uint32_t epnum)
{
  USB_OTG_EPTypeDef *ep;
  const USB_OTG_GlobalTypeDef *USBx = hpcd->Instance;
 800442e:	6820      	ldr	r0, [r4, #0]
            CLEAR_OUT_EP_INTR(epnum, USB_OTG_DOEPINT_XFRC);
 8004430:	2301      	movs	r3, #1
 8004432:	f8c8 3008 	str.w	r3, [r8, #8]
  uint32_t USBx_BASE = (uint32_t)USBx;
  uint32_t gSNPSiD = *(__IO const uint32_t *)(&USBx->CID + 0x1U);
  uint32_t DoepintReg = USBx_OUTEP(epnum)->DOEPINT;

  if (hpcd->Init.dma_enable == 1U)
 8004436:	f894 c006 	ldrb.w	ip, [r4, #6]
  uint32_t gSNPSiD = *(__IO const uint32_t *)(&USBx->CID + 0x1U);
 800443a:	6c01      	ldr	r1, [r0, #64]	@ 0x40
  uint32_t DoepintReg = USBx_OUTEP(epnum)->DOEPINT;
 800443c:	f500 6330 	add.w	r3, r0, #2816	@ 0xb00
 8004440:	eb03 1347 	add.w	r3, r3, r7, lsl #5
  if (hpcd->Init.dma_enable == 1U)
 8004444:	f1bc 0f01 	cmp.w	ip, #1
  uint32_t DoepintReg = USBx_OUTEP(epnum)->DOEPINT;
 8004448:	689a      	ldr	r2, [r3, #8]
  if (hpcd->Init.dma_enable == 1U)
 800444a:	f040 808b 	bne.w	8004564 <HAL_PCD_IRQHandler+0x458>
  {
    if ((DoepintReg & USB_OTG_DOEPINT_STUP) == USB_OTG_DOEPINT_STUP) /* Class C */
 800444e:	f012 0f08 	tst.w	r2, #8
 8004452:	d007      	beq.n	8004464 <HAL_PCD_IRQHandler+0x358>
    {
      /* StupPktRcvd = 1 this is a setup packet */
      if ((gSNPSiD > USB_OTG_CORE_ID_300A) &&
 8004454:	48af      	ldr	r0, [pc, #700]	@ (8004714 <HAL_PCD_IRQHandler+0x608>)
 8004456:	4281      	cmp	r1, r0
 8004458:	d909      	bls.n	800446e <HAL_PCD_IRQHandler+0x362>
 800445a:	0412      	lsls	r2, r2, #16
 800445c:	d507      	bpl.n	800446e <HAL_PCD_IRQHandler+0x362>
    if (gSNPSiD == USB_OTG_CORE_ID_310A)
    {
      /* StupPktRcvd = 1 this is a setup packet */
      if ((DoepintReg & USB_OTG_DOEPINT_STPKTRX) == USB_OTG_DOEPINT_STPKTRX)
      {
        CLEAR_OUT_EP_INTR(epnum, USB_OTG_DOEPINT_STPKTRX);
 800445e:	f44f 4200 	mov.w	r2, #32768	@ 0x8000
 8004462:	e003      	b.n	800446c <HAL_PCD_IRQHandler+0x360>
    else if ((DoepintReg & USB_OTG_DOEPINT_OTEPSPR) == USB_OTG_DOEPINT_OTEPSPR) /* Class E */
 8004464:	f012 0f20 	tst.w	r2, #32
 8004468:	d05a      	beq.n	8004520 <HAL_PCD_IRQHandler+0x414>
      CLEAR_OUT_EP_INTR(epnum, USB_OTG_DOEPINT_OTEPSPR);
 800446a:	2220      	movs	r2, #32
        CLEAR_OUT_EP_INTR(epnum, USB_OTG_DOEPINT_STPKTRX);
 800446c:	609a      	str	r2, [r3, #8]
          if ((epint & USB_OTG_DOEPINT_STUP) == USB_OTG_DOEPINT_STUP)
 800446e:	f019 0f08 	tst.w	r9, #8
 8004472:	d021      	beq.n	80044b8 <HAL_PCD_IRQHandler+0x3ac>
            CLEAR_OUT_EP_INTR(epnum, USB_OTG_DOEPINT_STUP);
 8004474:	2308      	movs	r3, #8
 8004476:	f8c8 3008 	str.w	r3, [r8, #8]
  * @param  epnum endpoint number
  * @retval HAL status
  */
static HAL_StatusTypeDef PCD_EP_OutSetupPacket_int(PCD_HandleTypeDef *hpcd, uint32_t epnum)
{
  const USB_OTG_GlobalTypeDef *USBx = hpcd->Instance;
 800447a:	6823      	ldr	r3, [r4, #0]
  uint32_t USBx_BASE = (uint32_t)USBx;
  uint32_t gSNPSiD = *(__IO const uint32_t *)(&USBx->CID + 0x1U);
  uint32_t DoepintReg = USBx_OUTEP(epnum)->DOEPINT;

  if ((gSNPSiD > USB_OTG_CORE_ID_300A) &&
 800447c:	49a5      	ldr	r1, [pc, #660]	@ (8004714 <HAL_PCD_IRQHandler+0x608>)
  uint32_t gSNPSiD = *(__IO const uint32_t *)(&USBx->CID + 0x1U);
 800447e:	6c1a      	ldr	r2, [r3, #64]	@ 0x40
  uint32_t DoepintReg = USBx_OUTEP(epnum)->DOEPINT;
 8004480:	f503 6330 	add.w	r3, r3, #2816	@ 0xb00
 8004484:	eb03 1347 	add.w	r3, r3, r7, lsl #5
  if ((gSNPSiD > USB_OTG_CORE_ID_300A) &&
 8004488:	428a      	cmp	r2, r1
  uint32_t DoepintReg = USBx_OUTEP(epnum)->DOEPINT;
 800448a:	6898      	ldr	r0, [r3, #8]
  if ((gSNPSiD > USB_OTG_CORE_ID_300A) &&
 800448c:	d904      	bls.n	8004498 <HAL_PCD_IRQHandler+0x38c>
 800448e:	0401      	lsls	r1, r0, #16
      ((DoepintReg & USB_OTG_DOEPINT_STPKTRX) == USB_OTG_DOEPINT_STPKTRX))
  {
    CLEAR_OUT_EP_INTR(epnum, USB_OTG_DOEPINT_STPKTRX);
 8004490:	bf44      	itt	mi
 8004492:	f44f 4000 	movmi.w	r0, #32768	@ 0x8000
 8004496:	6098      	strmi	r0, [r3, #8]

  /* Inform the upper layer that a setup packet is available */
#if (USE_HAL_PCD_REGISTER_CALLBACKS == 1U)
  hpcd->SetupStageCallback(hpcd);
#else
  HAL_PCD_SetupStageCallback(hpcd);
 8004498:	4620      	mov	r0, r4
 800449a:	9205      	str	r2, [sp, #20]
 800449c:	f7ff f80c 	bl	80034b8 <HAL_PCD_SetupStageCallback>
#endif /* USE_HAL_PCD_REGISTER_CALLBACKS */

  if ((gSNPSiD > USB_OTG_CORE_ID_300A) && (hpcd->Init.dma_enable == 1U))
 80044a0:	9a05      	ldr	r2, [sp, #20]
 80044a2:	499c      	ldr	r1, [pc, #624]	@ (8004714 <HAL_PCD_IRQHandler+0x608>)
 80044a4:	428a      	cmp	r2, r1
 80044a6:	d907      	bls.n	80044b8 <HAL_PCD_IRQHandler+0x3ac>
 80044a8:	79a1      	ldrb	r1, [r4, #6]
 80044aa:	2901      	cmp	r1, #1
 80044ac:	d104      	bne.n	80044b8 <HAL_PCD_IRQHandler+0x3ac>
  {
    (void)USB_EP0_OutStart(hpcd->Instance, 1U, (uint8_t *)hpcd->Setup);
 80044ae:	6820      	ldr	r0, [r4, #0]
 80044b0:	f204 429c 	addw	r2, r4, #1180	@ 0x49c
 80044b4:	f001 f908 	bl	80056c8 <USB_EP0_OutStart>
          if ((epint & USB_OTG_DOEPINT_OTEPDIS) == USB_OTG_DOEPINT_OTEPDIS)
 80044b8:	f019 0f10 	tst.w	r9, #16
            CLEAR_OUT_EP_INTR(epnum, USB_OTG_DOEPINT_OTEPDIS);
 80044bc:	bf1c      	itt	ne
 80044be:	2310      	movne	r3, #16
 80044c0:	f8c8 3008 	strne.w	r3, [r8, #8]
          if ((epint & USB_OTG_DOEPINT_EPDISD) == USB_OTG_DOEPINT_EPDISD)
 80044c4:	f019 0f02 	tst.w	r9, #2
 80044c8:	d014      	beq.n	80044f4 <HAL_PCD_IRQHandler+0x3e8>
            if ((USBx->GINTSTS & USB_OTG_GINTSTS_BOUTNAKEFF) == USB_OTG_GINTSTS_BOUTNAKEFF)
 80044ca:	6973      	ldr	r3, [r6, #20]
 80044cc:	061a      	lsls	r2, r3, #24
              USBx_DEVICE->DCTL |= USB_OTG_DCTL_CGONAK;
 80044ce:	bf42      	ittt	mi
 80044d0:	686b      	ldrmi	r3, [r5, #4]
 80044d2:	f443 6380 	orrmi.w	r3, r3, #1024	@ 0x400
 80044d6:	606b      	strmi	r3, [r5, #4]
            if (ep->is_iso_incomplete == 1U)
 80044d8:	f89a 3257 	ldrb.w	r3, [sl, #599]	@ 0x257
 80044dc:	2b01      	cmp	r3, #1
 80044de:	d106      	bne.n	80044ee <HAL_PCD_IRQHandler+0x3e2>
              ep->is_iso_incomplete = 0U;
 80044e0:	2300      	movs	r3, #0
 80044e2:	f88a 3257 	strb.w	r3, [sl, #599]	@ 0x257
              HAL_PCD_ISOOUTIncompleteCallback(hpcd, (uint8_t)epnum);
 80044e6:	4659      	mov	r1, fp
 80044e8:	4620      	mov	r0, r4
 80044ea:	f7ff f82f 	bl	800354c <HAL_PCD_ISOOUTIncompleteCallback>
            CLEAR_OUT_EP_INTR(epnum, USB_OTG_DOEPINT_EPDISD);
 80044ee:	2302      	movs	r3, #2
 80044f0:	f8c8 3008 	str.w	r3, [r8, #8]
          if ((epint & USB_OTG_DOEPINT_OTEPSPR) == USB_OTG_DOEPINT_OTEPSPR)
 80044f4:	f019 0f20 	tst.w	r9, #32
            CLEAR_OUT_EP_INTR(epnum, USB_OTG_DOEPINT_OTEPSPR);
 80044f8:	bf1c      	itt	ne
 80044fa:	2320      	movne	r3, #32
 80044fc:	f8c8 3008 	strne.w	r3, [r8, #8]
          if ((epint & USB_OTG_DOEPINT_NAK) == USB_OTG_DOEPINT_NAK)
 8004500:	f419 5f00 	tst.w	r9, #8192	@ 0x2000
            CLEAR_OUT_EP_INTR(epnum, USB_OTG_DOEPINT_NAK);
 8004504:	bf1c      	itt	ne
 8004506:	f44f 5300 	movne.w	r3, #8192	@ 0x2000
 800450a:	f8c8 3008 	strne.w	r3, [r8, #8]
        ep_intr >>= 1U;
 800450e:	9b04      	ldr	r3, [sp, #16]
 8004510:	085b      	lsrs	r3, r3, #1
        epnum++;
 8004512:	3701      	adds	r7, #1
        ep_intr >>= 1U;
 8004514:	9304      	str	r3, [sp, #16]
 8004516:	f108 0820 	add.w	r8, r8, #32
 800451a:	f10a 0a24 	add.w	sl, sl, #36	@ 0x24
 800451e:	e775      	b.n	800440c <HAL_PCD_IRQHandler+0x300>
      if ((gSNPSiD > USB_OTG_CORE_ID_300A) &&
 8004520:	f8df c1f0 	ldr.w	ip, [pc, #496]	@ 8004714 <HAL_PCD_IRQHandler+0x608>
 8004524:	4561      	cmp	r1, ip
 8004526:	d901      	bls.n	800452c <HAL_PCD_IRQHandler+0x420>
 8004528:	0412      	lsls	r2, r2, #16
 800452a:	d498      	bmi.n	800445e <HAL_PCD_IRQHandler+0x352>
        ep->xfer_count = ep->xfer_size - (USBx_OUTEP(epnum)->DOEPTSIZ & USB_OTG_DOEPTSIZ_XFRSIZ);
 800452c:	691a      	ldr	r2, [r3, #16]
 800452e:	f8da 3274 	ldr.w	r3, [sl, #628]	@ 0x274
 8004532:	f3c2 0212 	ubfx	r2, r2, #0, #19
 8004536:	1a9b      	subs	r3, r3, r2
 8004538:	f8ca 3268 	str.w	r3, [sl, #616]	@ 0x268
        if (epnum == 0U)
 800453c:	b96f      	cbnz	r7, 800455a <HAL_PCD_IRQHandler+0x44e>
          if (ep->xfer_len == 0U)
 800453e:	f8d4 2264 	ldr.w	r2, [r4, #612]	@ 0x264
 8004542:	b92a      	cbnz	r2, 8004550 <HAL_PCD_IRQHandler+0x444>
            (void)USB_EP0_OutStart(hpcd->Instance, 1U, (uint8_t *)hpcd->Setup);
 8004544:	f204 429c 	addw	r2, r4, #1180	@ 0x49c
 8004548:	2101      	movs	r1, #1
        (void)USB_EP0_OutStart(hpcd->Instance, 0U, (uint8_t *)hpcd->Setup);
 800454a:	f001 f8bd 	bl	80056c8 <USB_EP0_OutStart>
 800454e:	e004      	b.n	800455a <HAL_PCD_IRQHandler+0x44e>
            ep->xfer_buff += ep->xfer_count;
 8004550:	f8d4 2260 	ldr.w	r2, [r4, #608]	@ 0x260
 8004554:	441a      	add	r2, r3
 8004556:	f8c4 2260 	str.w	r2, [r4, #608]	@ 0x260
      HAL_PCD_DataOutStageCallback(hpcd, (uint8_t)epnum);
 800455a:	4659      	mov	r1, fp
 800455c:	4620      	mov	r0, r4
 800455e:	f7fe ffb1 	bl	80034c4 <HAL_PCD_DataOutStageCallback>
 8004562:	e784      	b.n	800446e <HAL_PCD_IRQHandler+0x362>
    if (gSNPSiD == USB_OTG_CORE_ID_310A)
 8004564:	f8df c1b0 	ldr.w	ip, [pc, #432]	@ 8004718 <HAL_PCD_IRQHandler+0x60c>
 8004568:	4561      	cmp	r1, ip
 800456a:	d107      	bne.n	800457c <HAL_PCD_IRQHandler+0x470>
      if ((DoepintReg & USB_OTG_DOEPINT_STPKTRX) == USB_OTG_DOEPINT_STPKTRX)
 800456c:	0411      	lsls	r1, r2, #16
 800456e:	f53f af76 	bmi.w	800445e <HAL_PCD_IRQHandler+0x352>
        if ((DoepintReg & USB_OTG_DOEPINT_OTEPSPR) == USB_OTG_DOEPINT_OTEPSPR)
 8004572:	0690      	lsls	r0, r2, #26
 8004574:	d5f1      	bpl.n	800455a <HAL_PCD_IRQHandler+0x44e>
          CLEAR_OUT_EP_INTR(epnum, USB_OTG_DOEPINT_OTEPSPR);
 8004576:	2220      	movs	r2, #32
 8004578:	609a      	str	r2, [r3, #8]
        HAL_PCD_DataOutStageCallback(hpcd, (uint8_t)epnum);
 800457a:	e7ee      	b.n	800455a <HAL_PCD_IRQHandler+0x44e>
      if ((epnum == 0U) && (hpcd->OUT_ep[epnum].xfer_len == 0U))
 800457c:	2f00      	cmp	r7, #0
 800457e:	d1ec      	bne.n	800455a <HAL_PCD_IRQHandler+0x44e>
 8004580:	f8d4 3264 	ldr.w	r3, [r4, #612]	@ 0x264
 8004584:	2b00      	cmp	r3, #0
 8004586:	d1e8      	bne.n	800455a <HAL_PCD_IRQHandler+0x44e>
        (void)USB_EP0_OutStart(hpcd->Instance, 0U, (uint8_t *)hpcd->Setup);
 8004588:	f204 429c 	addw	r2, r4, #1180	@ 0x49c
 800458c:	4639      	mov	r1, r7
 800458e:	e7dc      	b.n	800454a <HAL_PCD_IRQHandler+0x43e>
        if ((ep_intr & 0x1U) != 0U) /* In ITR */
 8004590:	9b04      	ldr	r3, [sp, #16]
 8004592:	07db      	lsls	r3, r3, #31
 8004594:	f140 8099 	bpl.w	80046ca <HAL_PCD_IRQHandler+0x5be>
          epint = USB_ReadDevInEPInterrupt(hpcd->Instance, (uint8_t)epnum);
 8004598:	fa5f f38a 	uxtb.w	r3, sl
 800459c:	4619      	mov	r1, r3
 800459e:	9305      	str	r3, [sp, #20]
 80045a0:	f001 f86f 	bl	8005682 <USB_ReadDevInEPInterrupt>
          if ((epint & USB_OTG_DIEPINT_XFRC) == USB_OTG_DIEPINT_XFRC)
 80045a4:	f010 0f01 	tst.w	r0, #1
          epint = USB_ReadDevInEPInterrupt(hpcd->Instance, (uint8_t)epnum);
 80045a8:	4680      	mov	r8, r0
          if ((epint & USB_OTG_DIEPINT_XFRC) == USB_OTG_DIEPINT_XFRC)
 80045aa:	d01f      	beq.n	80045ec <HAL_PCD_IRQHandler+0x4e0>
            USBx_DEVICE->DIEPEMPMSK &= ~fifoemptymsk;
 80045ac:	6b6b      	ldr	r3, [r5, #52]	@ 0x34
            fifoemptymsk = (uint32_t)(0x1UL << (epnum & EP_ADDR_MSK));
 80045ae:	2101      	movs	r1, #1
 80045b0:	f00a 020f 	and.w	r2, sl, #15
 80045b4:	fa01 f202 	lsl.w	r2, r1, r2
            USBx_DEVICE->DIEPEMPMSK &= ~fifoemptymsk;
 80045b8:	ea23 0302 	bic.w	r3, r3, r2
 80045bc:	636b      	str	r3, [r5, #52]	@ 0x34
            CLEAR_IN_EP_INTR(epnum, USB_OTG_DIEPINT_XFRC);
 80045be:	f8cb 1008 	str.w	r1, [fp, #8]
            if (hpcd->Init.dma_enable == 1U)
 80045c2:	79a1      	ldrb	r1, [r4, #6]
 80045c4:	2901      	cmp	r1, #1
 80045c6:	d10d      	bne.n	80045e4 <HAL_PCD_IRQHandler+0x4d8>
              hpcd->IN_ep[epnum].xfer_buff += hpcd->IN_ep[epnum].maxpacket;
 80045c8:	e9d7 2307 	ldrd	r2, r3, [r7, #28]
 80045cc:	4413      	add	r3, r2
 80045ce:	623b      	str	r3, [r7, #32]
              if ((epnum == 0U) && (hpcd->IN_ep[epnum].xfer_len == 0U))
 80045d0:	f1ba 0f00 	cmp.w	sl, #0
 80045d4:	d106      	bne.n	80045e4 <HAL_PCD_IRQHandler+0x4d8>
 80045d6:	6a63      	ldr	r3, [r4, #36]	@ 0x24
 80045d8:	b923      	cbnz	r3, 80045e4 <HAL_PCD_IRQHandler+0x4d8>
                (void)USB_EP0_OutStart(hpcd->Instance, 1U, (uint8_t *)hpcd->Setup);
 80045da:	6820      	ldr	r0, [r4, #0]
 80045dc:	f204 429c 	addw	r2, r4, #1180	@ 0x49c
 80045e0:	f001 f872 	bl	80056c8 <USB_EP0_OutStart>
            HAL_PCD_DataInStageCallback(hpcd, (uint8_t)epnum);
 80045e4:	9905      	ldr	r1, [sp, #20]
 80045e6:	4620      	mov	r0, r4
 80045e8:	f7fe ff75 	bl	80034d6 <HAL_PCD_DataInStageCallback>
          if ((epint & USB_OTG_DIEPINT_TOC) == USB_OTG_DIEPINT_TOC)
 80045ec:	f018 0f08 	tst.w	r8, #8
            CLEAR_IN_EP_INTR(epnum, USB_OTG_DIEPINT_TOC);
 80045f0:	bf1c      	itt	ne
 80045f2:	2308      	movne	r3, #8
 80045f4:	f8cb 3008 	strne.w	r3, [fp, #8]
          if ((epint & USB_OTG_DIEPINT_ITTXFE) == USB_OTG_DIEPINT_ITTXFE)
 80045f8:	f018 0f10 	tst.w	r8, #16
            CLEAR_IN_EP_INTR(epnum, USB_OTG_DIEPINT_ITTXFE);
 80045fc:	bf1c      	itt	ne
 80045fe:	2310      	movne	r3, #16
 8004600:	f8cb 3008 	strne.w	r3, [fp, #8]
          if ((epint & USB_OTG_DIEPINT_INEPNE) == USB_OTG_DIEPINT_INEPNE)
 8004604:	f018 0f40 	tst.w	r8, #64	@ 0x40
            CLEAR_IN_EP_INTR(epnum, USB_OTG_DIEPINT_INEPNE);
 8004608:	bf1c      	itt	ne
 800460a:	2340      	movne	r3, #64	@ 0x40
 800460c:	f8cb 3008 	strne.w	r3, [fp, #8]
          if ((epint & USB_OTG_DIEPINT_EPDISD) == USB_OTG_DIEPINT_EPDISD)
 8004610:	f018 0f02 	tst.w	r8, #2
 8004614:	d00f      	beq.n	8004636 <HAL_PCD_IRQHandler+0x52a>
            (void)USB_FlushTxFifo(USBx, epnum);
 8004616:	4651      	mov	r1, sl
 8004618:	4630      	mov	r0, r6
 800461a:	f000 fc77 	bl	8004f0c <USB_FlushTxFifo>
            if (ep->is_iso_incomplete == 1U)
 800461e:	7dfb      	ldrb	r3, [r7, #23]
 8004620:	2b01      	cmp	r3, #1
 8004622:	d105      	bne.n	8004630 <HAL_PCD_IRQHandler+0x524>
              ep->is_iso_incomplete = 0U;
 8004624:	2300      	movs	r3, #0
              HAL_PCD_ISOINIncompleteCallback(hpcd, (uint8_t)epnum);
 8004626:	9905      	ldr	r1, [sp, #20]
              ep->is_iso_incomplete = 0U;
 8004628:	75fb      	strb	r3, [r7, #23]
              HAL_PCD_ISOINIncompleteCallback(hpcd, (uint8_t)epnum);
 800462a:	4620      	mov	r0, r4
 800462c:	f7fe ff92 	bl	8003554 <HAL_PCD_ISOINIncompleteCallback>
            CLEAR_IN_EP_INTR(epnum, USB_OTG_DIEPINT_EPDISD);
 8004630:	2302      	movs	r3, #2
 8004632:	f8cb 3008 	str.w	r3, [fp, #8]
  USB_OTG_GlobalTypeDef *USBx = hpcd->Instance;
 8004636:	6823      	ldr	r3, [r4, #0]
 8004638:	9306      	str	r3, [sp, #24]
          if ((epint & USB_OTG_DIEPINT_TXFE) == USB_OTG_DIEPINT_TXFE)
 800463a:	f018 0f80 	tst.w	r8, #128	@ 0x80
 800463e:	d044      	beq.n	80046ca <HAL_PCD_IRQHandler+0x5be>
  if (ep->xfer_count > ep->xfer_len)
 8004640:	e9d7 3209 	ldrd	r3, r2, [r7, #36]	@ 0x24
 8004644:	429a      	cmp	r2, r3
 8004646:	d840      	bhi.n	80046ca <HAL_PCD_IRQHandler+0x5be>
  len = ep->xfer_len - ep->xfer_count;
 8004648:	eba3 0802 	sub.w	r8, r3, r2
  if (len > ep->maxpacket)
 800464c:	69fb      	ldr	r3, [r7, #28]
 800464e:	4598      	cmp	r8, r3
 8004650:	bf28      	it	cs
 8004652:	4698      	movcs	r8, r3
  while (((USBx_INEP(epnum)->DTXFSTS & USB_OTG_DTXFSTS_INEPTFSAV) >= len32b) &&
 8004654:	9b06      	ldr	r3, [sp, #24]
 8004656:	f503 6310 	add.w	r3, r3, #2304	@ 0x900
  len32b = (len + 3U) / 4U;
 800465a:	f108 0803 	add.w	r8, r8, #3
  while (((USBx_INEP(epnum)->DTXFSTS & USB_OTG_DTXFSTS_INEPTFSAV) >= len32b) &&
 800465e:	eb03 134a 	add.w	r3, r3, sl, lsl #5
  len32b = (len + 3U) / 4U;
 8004662:	ea4f 0898 	mov.w	r8, r8, lsr #2
  while (((USBx_INEP(epnum)->DTXFSTS & USB_OTG_DTXFSTS_INEPTFSAV) >= len32b) &&
 8004666:	9307      	str	r3, [sp, #28]
 8004668:	9b07      	ldr	r3, [sp, #28]
 800466a:	6999      	ldr	r1, [r3, #24]
 800466c:	b289      	uxth	r1, r1
         (ep->xfer_count < ep->xfer_len) && (ep->xfer_len != 0U))
 800466e:	4541      	cmp	r1, r8
 8004670:	e9d7 3209 	ldrd	r3, r2, [r7, #36]	@ 0x24
 8004674:	d327      	bcc.n	80046c6 <HAL_PCD_IRQHandler+0x5ba>
  while (((USBx_INEP(epnum)->DTXFSTS & USB_OTG_DTXFSTS_INEPTFSAV) >= len32b) &&
 8004676:	4293      	cmp	r3, r2
 8004678:	d80b      	bhi.n	8004692 <HAL_PCD_IRQHandler+0x586>
    USBx_DEVICE->DIEPEMPMSK &= ~fifoemptymsk;
 800467a:	9b06      	ldr	r3, [sp, #24]
    fifoemptymsk = (uint32_t)(0x1UL << (epnum & EP_ADDR_MSK));
 800467c:	f00a 000f 	and.w	r0, sl, #15
    USBx_DEVICE->DIEPEMPMSK &= ~fifoemptymsk;
 8004680:	f8d3 2834 	ldr.w	r2, [r3, #2100]	@ 0x834
    fifoemptymsk = (uint32_t)(0x1UL << (epnum & EP_ADDR_MSK));
 8004684:	2101      	movs	r1, #1
 8004686:	4081      	lsls	r1, r0
    USBx_DEVICE->DIEPEMPMSK &= ~fifoemptymsk;
 8004688:	ea22 0201 	bic.w	r2, r2, r1
 800468c:	f8c3 2834 	str.w	r2, [r3, #2100]	@ 0x834
 8004690:	e01b      	b.n	80046ca <HAL_PCD_IRQHandler+0x5be>
    len = ep->xfer_len - ep->xfer_count;
 8004692:	eba3 0902 	sub.w	r9, r3, r2
    if (len > ep->maxpacket)
 8004696:	69fb      	ldr	r3, [r7, #28]
    (void)USB_WritePacket(USBx, ep->xfer_buff, (uint8_t)epnum, (uint16_t)len,
 8004698:	9a05      	ldr	r2, [sp, #20]
 800469a:	9806      	ldr	r0, [sp, #24]
    if (len > ep->maxpacket)
 800469c:	4599      	cmp	r9, r3
 800469e:	bf28      	it	cs
 80046a0:	4699      	movcs	r9, r3
    (void)USB_WritePacket(USBx, ep->xfer_buff, (uint8_t)epnum, (uint16_t)len,
 80046a2:	79a3      	ldrb	r3, [r4, #6]
 80046a4:	9300      	str	r3, [sp, #0]
 80046a6:	6a39      	ldr	r1, [r7, #32]
 80046a8:	fa1f f389 	uxth.w	r3, r9
 80046ac:	f000 fe16 	bl	80052dc <USB_WritePacket>
    ep->xfer_buff  += len;
 80046b0:	6a3b      	ldr	r3, [r7, #32]
 80046b2:	444b      	add	r3, r9
 80046b4:	623b      	str	r3, [r7, #32]
    ep->xfer_count += len;
 80046b6:	6abb      	ldr	r3, [r7, #40]	@ 0x28
    len32b = (len + 3U) / 4U;
 80046b8:	f109 0803 	add.w	r8, r9, #3
    ep->xfer_count += len;
 80046bc:	444b      	add	r3, r9
    len32b = (len + 3U) / 4U;
 80046be:	ea4f 0898 	mov.w	r8, r8, lsr #2
    ep->xfer_count += len;
 80046c2:	62bb      	str	r3, [r7, #40]	@ 0x28
 80046c4:	e7d0      	b.n	8004668 <HAL_PCD_IRQHandler+0x55c>
  if (ep->xfer_len <= ep->xfer_count)
 80046c6:	4293      	cmp	r3, r2
 80046c8:	d9d7      	bls.n	800467a <HAL_PCD_IRQHandler+0x56e>
        ep_intr >>= 1U;
 80046ca:	9b04      	ldr	r3, [sp, #16]
 80046cc:	085b      	lsrs	r3, r3, #1
        epnum++;
 80046ce:	f10a 0a01 	add.w	sl, sl, #1
        ep_intr >>= 1U;
 80046d2:	9304      	str	r3, [sp, #16]
 80046d4:	3724      	adds	r7, #36	@ 0x24
 80046d6:	f10b 0b20 	add.w	fp, fp, #32
 80046da:	e583      	b.n	80041e4 <HAL_PCD_IRQHandler+0xd8>
        HAL_PCD_ResumeCallback(hpcd);
 80046dc:	4620      	mov	r0, r4
 80046de:	f7fe ff31 	bl	8003544 <HAL_PCD_ResumeCallback>
 80046e2:	e598      	b.n	8004216 <HAL_PCD_IRQHandler+0x10a>
        USBx_INEP(i)->DIEPINT = 0xFB7FU;
 80046e4:	6099      	str	r1, [r3, #8]
        USBx_INEP(i)->DIEPCTL &= ~USB_OTG_DIEPCTL_STALL;
 80046e6:	681a      	ldr	r2, [r3, #0]
 80046e8:	f422 1200 	bic.w	r2, r2, #2097152	@ 0x200000
 80046ec:	601a      	str	r2, [r3, #0]
        USBx_OUTEP(i)->DOEPINT = 0xFB7FU;
 80046ee:	f8c3 1208 	str.w	r1, [r3, #520]	@ 0x208
        USBx_OUTEP(i)->DOEPCTL &= ~USB_OTG_DOEPCTL_STALL;
 80046f2:	f8d3 2200 	ldr.w	r2, [r3, #512]	@ 0x200
 80046f6:	f422 1200 	bic.w	r2, r2, #2097152	@ 0x200000
 80046fa:	f8c3 2200 	str.w	r2, [r3, #512]	@ 0x200
        USBx_OUTEP(i)->DOEPCTL |= USB_OTG_DOEPCTL_SNAK;
 80046fe:	f8d3 2200 	ldr.w	r2, [r3, #512]	@ 0x200
 8004702:	f042 6200 	orr.w	r2, r2, #134217728	@ 0x8000000
 8004706:	f8c3 2200 	str.w	r2, [r3, #512]	@ 0x200
      for (i = 0U; i < hpcd->Init.dev_endpoints; i++)
 800470a:	9a03      	ldr	r2, [sp, #12]
 800470c:	3201      	adds	r2, #1
 800470e:	9203      	str	r2, [sp, #12]
 8004710:	3320      	adds	r3, #32
 8004712:	e5a7      	b.n	8004264 <HAL_PCD_IRQHandler+0x158>
 8004714:	4f54300a 	.word	0x4f54300a
 8004718:	4f54310a 	.word	0x4f54310a
        USBx_DEVICE->DOEPMSK |= USB_OTG_DOEPMSK_STUPM |
 800471c:	696b      	ldr	r3, [r5, #20]
 800471e:	f443 5300 	orr.w	r3, r3, #8192	@ 0x2000
 8004722:	f043 032b 	orr.w	r3, r3, #43	@ 0x2b
 8004726:	616b      	str	r3, [r5, #20]
        USBx_DEVICE->DIEPMSK |= USB_OTG_DIEPMSK_TOM |
 8004728:	692b      	ldr	r3, [r5, #16]
 800472a:	f043 030b 	orr.w	r3, r3, #11
 800472e:	612b      	str	r3, [r5, #16]
 8004730:	e5ae      	b.n	8004290 <HAL_PCD_IRQHandler+0x184>
      USBx->GINTMSK &= ~USB_OTG_GINTMSK_GONAKEFFM;
 8004732:	69b3      	ldr	r3, [r6, #24]
 8004734:	f023 0380 	bic.w	r3, r3, #128	@ 0x80
 8004738:	61b3      	str	r3, [r6, #24]
      for (epnum = 1U; epnum < hpcd->Init.dev_endpoints; epnum++)
 800473a:	2701      	movs	r7, #1
        if (hpcd->OUT_ep[epnum].is_iso_incomplete == 1U)
 800473c:	f204 2857 	addw	r8, r4, #599	@ 0x257
 8004740:	f04f 0924 	mov.w	r9, #36	@ 0x24
      for (epnum = 1U; epnum < hpcd->Init.dev_endpoints; epnum++)
 8004744:	7923      	ldrb	r3, [r4, #4]
 8004746:	42bb      	cmp	r3, r7
 8004748:	f67f ade2 	bls.w	8004310 <HAL_PCD_IRQHandler+0x204>
        if (hpcd->OUT_ep[epnum].is_iso_incomplete == 1U)
 800474c:	fb09 f307 	mul.w	r3, r9, r7
 8004750:	f818 3003 	ldrb.w	r3, [r8, r3]
 8004754:	2b01      	cmp	r3, #1
 8004756:	d103      	bne.n	8004760 <HAL_PCD_IRQHandler+0x654>
          (void)HAL_PCD_EP_Abort(hpcd, (uint8_t)epnum);
 8004758:	b2f9      	uxtb	r1, r7
 800475a:	4620      	mov	r0, r4
 800475c:	f7ff fcc5 	bl	80040ea <HAL_PCD_EP_Abort>
      for (epnum = 1U; epnum < hpcd->Init.dev_endpoints; epnum++)
 8004760:	3701      	adds	r7, #1
 8004762:	e7ef      	b.n	8004744 <HAL_PCD_IRQHandler+0x638>
        if ((hpcd->IN_ep[epnum].type == EP_TYPE_ISOC) &&
 8004764:	f898 303c 	ldrb.w	r3, [r8, #60]	@ 0x3c
        RegVal = USBx_INEP(epnum)->DIEPCTL;
 8004768:	f8d9 2000 	ldr.w	r2, [r9]
        if ((hpcd->IN_ep[epnum].type == EP_TYPE_ISOC) &&
 800476c:	2b01      	cmp	r3, #1
 800476e:	d109      	bne.n	8004784 <HAL_PCD_IRQHandler+0x678>
 8004770:	2a00      	cmp	r2, #0
 8004772:	da07      	bge.n	8004784 <HAL_PCD_IRQHandler+0x678>
          (void)HAL_PCD_EP_Abort(hpcd, (uint8_t)(epnum | 0x80U));
 8004774:	f067 017f 	orn	r1, r7, #127	@ 0x7f
          hpcd->IN_ep[epnum].is_iso_incomplete = 1U;
 8004778:	f888 303b 	strb.w	r3, [r8, #59]	@ 0x3b
          (void)HAL_PCD_EP_Abort(hpcd, (uint8_t)(epnum | 0x80U));
 800477c:	b2c9      	uxtb	r1, r1
 800477e:	4620      	mov	r0, r4
 8004780:	f7ff fcb3 	bl	80040ea <HAL_PCD_EP_Abort>
      for (epnum = 1U; epnum < hpcd->Init.dev_endpoints; epnum++)
 8004784:	3701      	adds	r7, #1
 8004786:	f108 0824 	add.w	r8, r8, #36	@ 0x24
 800478a:	f109 0920 	add.w	r9, r9, #32
 800478e:	e5c8      	b.n	8004322 <HAL_PCD_IRQHandler+0x216>
      for (epnum = 1U; epnum < hpcd->Init.dev_endpoints; epnum++)
 8004790:	f10c 0c01 	add.w	ip, ip, #1
 8004794:	3324      	adds	r3, #36	@ 0x24
 8004796:	3120      	adds	r1, #32
 8004798:	e5d8      	b.n	800434c <HAL_PCD_IRQHandler+0x240>
 800479a:	bf00      	nop

0800479c <HAL_PCDEx_SetTxFiFo>:
         --> Txn should be configured with the minimum space of 16 words
     The FIFO is used optimally when used TxFIFOs are allocated in the top
         of the FIFO.Ex: use EP1 and EP2 as IN instead of EP1 and EP3 as IN ones.
     When DMA is used 3n * FIFO locations should be reserved for internal DMA registers */

  Tx_Offset = hpcd->Instance->GRXFSIZ;
 800479c:	6800      	ldr	r0, [r0, #0]
{
 800479e:	b570      	push	{r4, r5, r6, lr}
  Tx_Offset = hpcd->Instance->GRXFSIZ;
 80047a0:	6a43      	ldr	r3, [r0, #36]	@ 0x24

  if (fifo == 0U)
  {
    hpcd->Instance->DIEPTXF0_HNPTXFSIZ = ((uint32_t)size << 16) | Tx_Offset;
 80047a2:	0412      	lsls	r2, r2, #16
  if (fifo == 0U)
 80047a4:	b919      	cbnz	r1, 80047ae <HAL_PCDEx_SetTxFiFo+0x12>
    hpcd->Instance->DIEPTXF0_HNPTXFSIZ = ((uint32_t)size << 16) | Tx_Offset;
 80047a6:	4313      	orrs	r3, r2
 80047a8:	6283      	str	r3, [r0, #40]	@ 0x28
    /* Multiply Tx_Size by 2 to get higher performance */
    hpcd->Instance->DIEPTXF[fifo - 1U] = ((uint32_t)size << 16) | Tx_Offset;
  }

  return HAL_OK;
}
 80047aa:	2000      	movs	r0, #0
 80047ac:	bd70      	pop	{r4, r5, r6, pc}
    Tx_Offset += (hpcd->Instance->DIEPTXF0_HNPTXFSIZ) >> 16;
 80047ae:	6a84      	ldr	r4, [r0, #40]	@ 0x28
    for (i = 0U; i < (fifo - 1U); i++)
 80047b0:	1e4e      	subs	r6, r1, #1
    Tx_Offset += (hpcd->Instance->DIEPTXF0_HNPTXFSIZ) >> 16;
 80047b2:	eb03 4314 	add.w	r3, r3, r4, lsr #16
    for (i = 0U; i < (fifo - 1U); i++)
 80047b6:	2400      	movs	r4, #0
 80047b8:	42b4      	cmp	r4, r6
 80047ba:	d305      	bcc.n	80047c8 <HAL_PCDEx_SetTxFiFo+0x2c>
    hpcd->Instance->DIEPTXF[fifo - 1U] = ((uint32_t)size << 16) | Tx_Offset;
 80047bc:	313f      	adds	r1, #63	@ 0x3f
 80047be:	eb00 0081 	add.w	r0, r0, r1, lsl #2
 80047c2:	4313      	orrs	r3, r2
 80047c4:	6043      	str	r3, [r0, #4]
 80047c6:	e7f0      	b.n	80047aa <HAL_PCDEx_SetTxFiFo+0xe>
      Tx_Offset += (hpcd->Instance->DIEPTXF[i] >> 16);
 80047c8:	f104 0540 	add.w	r5, r4, #64	@ 0x40
 80047cc:	eb00 0585 	add.w	r5, r0, r5, lsl #2
 80047d0:	3401      	adds	r4, #1
 80047d2:	686d      	ldr	r5, [r5, #4]
 80047d4:	eb03 4315 	add.w	r3, r3, r5, lsr #16
    for (i = 0U; i < (fifo - 1U); i++)
 80047d8:	e7ee      	b.n	80047b8 <HAL_PCDEx_SetTxFiFo+0x1c>

080047da <HAL_PCDEx_SetRxFiFo>:
  * @param  size Size of Rx fifo
  * @retval HAL status
  */
HAL_StatusTypeDef HAL_PCDEx_SetRxFiFo(PCD_HandleTypeDef *hpcd, uint16_t size)
{
  hpcd->Instance->GRXFSIZ = size;
 80047da:	6803      	ldr	r3, [r0, #0]

  return HAL_OK;
}
 80047dc:	2000      	movs	r0, #0
  hpcd->Instance->GRXFSIZ = size;
 80047de:	6259      	str	r1, [r3, #36]	@ 0x24
}
 80047e0:	4770      	bx	lr

080047e2 <HAL_PCDEx_LPM_Callback>:
  UNUSED(msg);

  /* NOTE : This function should not be modified, when the callback is needed,
            the HAL_PCDEx_LPM_Callback could be implemented in the user file
   */
}
 80047e2:	4770      	bx	lr

080047e4 <HAL_RCC_OscConfig>:
  *         supported by this API. User should request a transition to HSE Off
  *         first and then HSE On or HSE Bypass.
  * @retval HAL status
  */
__weak HAL_StatusTypeDef HAL_RCC_OscConfig(const RCC_OscInitTypeDef  *RCC_OscInitStruct)
{
 80047e4:	e92d 41f3 	stmdb	sp!, {r0, r1, r4, r5, r6, r7, r8, lr}
  uint32_t tickstart;
  uint32_t pll_config;
  /* Check Null pointer */
  if (RCC_OscInitStruct == NULL)
 80047e8:	4604      	mov	r4, r0
 80047ea:	b340      	cbz	r0, 800483e <HAL_RCC_OscConfig+0x5a>
  }

  /* Check the parameters */
  assert_param(IS_RCC_OSCILLATORTYPE(RCC_OscInitStruct->OscillatorType));
  /*------------------------------- HSE Configuration ------------------------*/
  if (((RCC_OscInitStruct->OscillatorType) & RCC_OSCILLATORTYPE_HSE) == RCC_OSCILLATORTYPE_HSE)
 80047ec:	6803      	ldr	r3, [r0, #0]
 80047ee:	07de      	lsls	r6, r3, #31
 80047f0:	d410      	bmi.n	8004814 <HAL_RCC_OscConfig+0x30>
        }
      }
    }
  }
  /*----------------------------- HSI Configuration --------------------------*/
  if (((RCC_OscInitStruct->OscillatorType) & RCC_OSCILLATORTYPE_HSI) == RCC_OSCILLATORTYPE_HSI)
 80047f2:	6823      	ldr	r3, [r4, #0]
 80047f4:	079d      	lsls	r5, r3, #30
 80047f6:	d45b      	bmi.n	80048b0 <HAL_RCC_OscConfig+0xcc>
        }
      }
    }
  }
  /*------------------------------ LSI Configuration -------------------------*/
  if (((RCC_OscInitStruct->OscillatorType) & RCC_OSCILLATORTYPE_LSI) == RCC_OSCILLATORTYPE_LSI)
 80047f8:	6823      	ldr	r3, [r4, #0]
 80047fa:	0719      	lsls	r1, r3, #28
 80047fc:	f100 809d 	bmi.w	800493a <HAL_RCC_OscConfig+0x156>
        }
      }
    }
  }
  /*------------------------------ LSE Configuration -------------------------*/
  if (((RCC_OscInitStruct->OscillatorType) & RCC_OSCILLATORTYPE_LSE) == RCC_OSCILLATORTYPE_LSE)
 8004800:	6823      	ldr	r3, [r4, #0]
 8004802:	075a      	lsls	r2, r3, #29
 8004804:	f100 80bd 	bmi.w	8004982 <HAL_RCC_OscConfig+0x19e>
    }
  }
  /*-------------------------------- PLL Configuration -----------------------*/
  /* Check the parameters */
  assert_param(IS_RCC_PLL(RCC_OscInitStruct->PLL.PLLState));
  if ((RCC_OscInitStruct->PLL.PLLState) != RCC_PLL_NONE)
 8004808:	69a3      	ldr	r3, [r4, #24]
 800480a:	2b00      	cmp	r3, #0
 800480c:	f040 8124 	bne.w	8004a58 <HAL_RCC_OscConfig+0x274>
          return HAL_ERROR;
        }
      }
    }
  }
  return HAL_OK;
 8004810:	2000      	movs	r0, #0
 8004812:	e02c      	b.n	800486e <HAL_RCC_OscConfig+0x8a>
    if ((__HAL_RCC_GET_SYSCLK_SOURCE() == RCC_CFGR_SWS_HSE) || \
 8004814:	4b8d      	ldr	r3, [pc, #564]	@ (8004a4c <HAL_RCC_OscConfig+0x268>)
 8004816:	689a      	ldr	r2, [r3, #8]
 8004818:	f002 020c 	and.w	r2, r2, #12
 800481c:	2a04      	cmp	r2, #4
 800481e:	d007      	beq.n	8004830 <HAL_RCC_OscConfig+0x4c>
        ((__HAL_RCC_GET_SYSCLK_SOURCE() == RCC_CFGR_SWS_PLL) && ((RCC->PLLCFGR & RCC_PLLCFGR_PLLSRC) == RCC_PLLCFGR_PLLSRC_HSE)))
 8004820:	689a      	ldr	r2, [r3, #8]
 8004822:	f002 020c 	and.w	r2, r2, #12
    if ((__HAL_RCC_GET_SYSCLK_SOURCE() == RCC_CFGR_SWS_HSE) || \
 8004826:	2a08      	cmp	r2, #8
 8004828:	d10b      	bne.n	8004842 <HAL_RCC_OscConfig+0x5e>
        ((__HAL_RCC_GET_SYSCLK_SOURCE() == RCC_CFGR_SWS_PLL) && ((RCC->PLLCFGR & RCC_PLLCFGR_PLLSRC) == RCC_PLLCFGR_PLLSRC_HSE)))
 800482a:	685b      	ldr	r3, [r3, #4]
 800482c:	0259      	lsls	r1, r3, #9
 800482e:	d508      	bpl.n	8004842 <HAL_RCC_OscConfig+0x5e>
      if ((__HAL_RCC_GET_FLAG(RCC_FLAG_HSERDY) != RESET) && (RCC_OscInitStruct->HSEState == RCC_HSE_OFF))
 8004830:	4b86      	ldr	r3, [pc, #536]	@ (8004a4c <HAL_RCC_OscConfig+0x268>)
 8004832:	681b      	ldr	r3, [r3, #0]
 8004834:	039a      	lsls	r2, r3, #14
 8004836:	d5dc      	bpl.n	80047f2 <HAL_RCC_OscConfig+0xe>
 8004838:	6863      	ldr	r3, [r4, #4]
 800483a:	2b00      	cmp	r3, #0
 800483c:	d1d9      	bne.n	80047f2 <HAL_RCC_OscConfig+0xe>
    return HAL_ERROR;
 800483e:	2001      	movs	r0, #1
 8004840:	e015      	b.n	800486e <HAL_RCC_OscConfig+0x8a>
      __HAL_RCC_HSE_CONFIG(RCC_OscInitStruct->HSEState);
 8004842:	6863      	ldr	r3, [r4, #4]
 8004844:	4d81      	ldr	r5, [pc, #516]	@ (8004a4c <HAL_RCC_OscConfig+0x268>)
 8004846:	f5b3 3f80 	cmp.w	r3, #65536	@ 0x10000
 800484a:	d113      	bne.n	8004874 <HAL_RCC_OscConfig+0x90>
 800484c:	682b      	ldr	r3, [r5, #0]
 800484e:	f443 3380 	orr.w	r3, r3, #65536	@ 0x10000
 8004852:	602b      	str	r3, [r5, #0]
        tickstart = HAL_GetTick();
 8004854:	f7fe ff84 	bl	8003760 <HAL_GetTick>
        while (__HAL_RCC_GET_FLAG(RCC_FLAG_HSERDY) == RESET)
 8004858:	4e7c      	ldr	r6, [pc, #496]	@ (8004a4c <HAL_RCC_OscConfig+0x268>)
        tickstart = HAL_GetTick();
 800485a:	4605      	mov	r5, r0
        while (__HAL_RCC_GET_FLAG(RCC_FLAG_HSERDY) == RESET)
 800485c:	6833      	ldr	r3, [r6, #0]
 800485e:	039b      	lsls	r3, r3, #14
 8004860:	d4c7      	bmi.n	80047f2 <HAL_RCC_OscConfig+0xe>
          if ((HAL_GetTick() - tickstart) > HSE_TIMEOUT_VALUE)
 8004862:	f7fe ff7d 	bl	8003760 <HAL_GetTick>
 8004866:	1b40      	subs	r0, r0, r5
 8004868:	2864      	cmp	r0, #100	@ 0x64
 800486a:	d9f7      	bls.n	800485c <HAL_RCC_OscConfig+0x78>
            return HAL_TIMEOUT;
 800486c:	2003      	movs	r0, #3
}
 800486e:	b002      	add	sp, #8
 8004870:	e8bd 81f0 	ldmia.w	sp!, {r4, r5, r6, r7, r8, pc}
      __HAL_RCC_HSE_CONFIG(RCC_OscInitStruct->HSEState);
 8004874:	f5b3 2fa0 	cmp.w	r3, #327680	@ 0x50000
 8004878:	d104      	bne.n	8004884 <HAL_RCC_OscConfig+0xa0>
 800487a:	682b      	ldr	r3, [r5, #0]
 800487c:	f443 2380 	orr.w	r3, r3, #262144	@ 0x40000
 8004880:	602b      	str	r3, [r5, #0]
 8004882:	e7e3      	b.n	800484c <HAL_RCC_OscConfig+0x68>
 8004884:	682a      	ldr	r2, [r5, #0]
 8004886:	f422 3280 	bic.w	r2, r2, #65536	@ 0x10000
 800488a:	602a      	str	r2, [r5, #0]
 800488c:	682a      	ldr	r2, [r5, #0]
 800488e:	f422 2280 	bic.w	r2, r2, #262144	@ 0x40000
 8004892:	602a      	str	r2, [r5, #0]
      if ((RCC_OscInitStruct->HSEState) != RCC_HSE_OFF)
 8004894:	2b00      	cmp	r3, #0
 8004896:	d1dd      	bne.n	8004854 <HAL_RCC_OscConfig+0x70>
        tickstart = HAL_GetTick();
 8004898:	f7fe ff62 	bl	8003760 <HAL_GetTick>
 800489c:	4606      	mov	r6, r0
        while (__HAL_RCC_GET_FLAG(RCC_FLAG_HSERDY) != RESET)
 800489e:	682b      	ldr	r3, [r5, #0]
 80048a0:	039f      	lsls	r7, r3, #14
 80048a2:	d5a6      	bpl.n	80047f2 <HAL_RCC_OscConfig+0xe>
          if ((HAL_GetTick() - tickstart) > HSE_TIMEOUT_VALUE)
 80048a4:	f7fe ff5c 	bl	8003760 <HAL_GetTick>
 80048a8:	1b80      	subs	r0, r0, r6
 80048aa:	2864      	cmp	r0, #100	@ 0x64
 80048ac:	d9f7      	bls.n	800489e <HAL_RCC_OscConfig+0xba>
 80048ae:	e7dd      	b.n	800486c <HAL_RCC_OscConfig+0x88>
    if ((__HAL_RCC_GET_SYSCLK_SOURCE() == RCC_CFGR_SWS_HSI) || \
 80048b0:	4b66      	ldr	r3, [pc, #408]	@ (8004a4c <HAL_RCC_OscConfig+0x268>)
 80048b2:	689a      	ldr	r2, [r3, #8]
 80048b4:	f012 0f0c 	tst.w	r2, #12
 80048b8:	d007      	beq.n	80048ca <HAL_RCC_OscConfig+0xe6>
        ((__HAL_RCC_GET_SYSCLK_SOURCE() == RCC_CFGR_SWS_PLL) && ((RCC->PLLCFGR & RCC_PLLCFGR_PLLSRC) == RCC_PLLCFGR_PLLSRC_HSI)))
 80048ba:	689a      	ldr	r2, [r3, #8]
 80048bc:	f002 020c 	and.w	r2, r2, #12
    if ((__HAL_RCC_GET_SYSCLK_SOURCE() == RCC_CFGR_SWS_HSI) || \
 80048c0:	2a08      	cmp	r2, #8
 80048c2:	d111      	bne.n	80048e8 <HAL_RCC_OscConfig+0x104>
        ((__HAL_RCC_GET_SYSCLK_SOURCE() == RCC_CFGR_SWS_PLL) && ((RCC->PLLCFGR & RCC_PLLCFGR_PLLSRC) == RCC_PLLCFGR_PLLSRC_HSI)))
 80048c4:	685b      	ldr	r3, [r3, #4]
 80048c6:	025d      	lsls	r5, r3, #9
 80048c8:	d40e      	bmi.n	80048e8 <HAL_RCC_OscConfig+0x104>
      if ((__HAL_RCC_GET_FLAG(RCC_FLAG_HSIRDY) != RESET) && (RCC_OscInitStruct->HSIState != RCC_HSI_ON))
 80048ca:	4a60      	ldr	r2, [pc, #384]	@ (8004a4c <HAL_RCC_OscConfig+0x268>)
 80048cc:	6813      	ldr	r3, [r2, #0]
 80048ce:	0799      	lsls	r1, r3, #30
 80048d0:	d502      	bpl.n	80048d8 <HAL_RCC_OscConfig+0xf4>
 80048d2:	68e3      	ldr	r3, [r4, #12]
 80048d4:	2b01      	cmp	r3, #1
 80048d6:	d1b2      	bne.n	800483e <HAL_RCC_OscConfig+0x5a>
        __HAL_RCC_HSI_CALIBRATIONVALUE_ADJUST(RCC_OscInitStruct->HSICalibrationValue);
 80048d8:	6813      	ldr	r3, [r2, #0]
 80048da:	6921      	ldr	r1, [r4, #16]
 80048dc:	f023 03f8 	bic.w	r3, r3, #248	@ 0xf8
 80048e0:	ea43 03c1 	orr.w	r3, r3, r1, lsl #3
 80048e4:	6013      	str	r3, [r2, #0]
      if ((__HAL_RCC_GET_FLAG(RCC_FLAG_HSIRDY) != RESET) && (RCC_OscInitStruct->HSIState != RCC_HSI_ON))
 80048e6:	e787      	b.n	80047f8 <HAL_RCC_OscConfig+0x14>
      if ((RCC_OscInitStruct->HSIState) != RCC_HSI_OFF)
 80048e8:	68e2      	ldr	r2, [r4, #12]
 80048ea:	4b59      	ldr	r3, [pc, #356]	@ (8004a50 <HAL_RCC_OscConfig+0x26c>)
 80048ec:	b1b2      	cbz	r2, 800491c <HAL_RCC_OscConfig+0x138>
        __HAL_RCC_HSI_ENABLE();
 80048ee:	2201      	movs	r2, #1
 80048f0:	601a      	str	r2, [r3, #0]
        tickstart = HAL_GetTick();
 80048f2:	f7fe ff35 	bl	8003760 <HAL_GetTick>
        while (__HAL_RCC_GET_FLAG(RCC_FLAG_HSIRDY) == RESET)
 80048f6:	4d55      	ldr	r5, [pc, #340]	@ (8004a4c <HAL_RCC_OscConfig+0x268>)
        tickstart = HAL_GetTick();
 80048f8:	4606      	mov	r6, r0
        while (__HAL_RCC_GET_FLAG(RCC_FLAG_HSIRDY) == RESET)
 80048fa:	682b      	ldr	r3, [r5, #0]
 80048fc:	079b      	lsls	r3, r3, #30
 80048fe:	d507      	bpl.n	8004910 <HAL_RCC_OscConfig+0x12c>
        __HAL_RCC_HSI_CALIBRATIONVALUE_ADJUST(RCC_OscInitStruct->HSICalibrationValue);
 8004900:	682b      	ldr	r3, [r5, #0]
 8004902:	6922      	ldr	r2, [r4, #16]
 8004904:	f023 03f8 	bic.w	r3, r3, #248	@ 0xf8
 8004908:	ea43 03c2 	orr.w	r3, r3, r2, lsl #3
 800490c:	602b      	str	r3, [r5, #0]
 800490e:	e773      	b.n	80047f8 <HAL_RCC_OscConfig+0x14>
          if ((HAL_GetTick() - tickstart) > HSI_TIMEOUT_VALUE)
 8004910:	f7fe ff26 	bl	8003760 <HAL_GetTick>
 8004914:	1b80      	subs	r0, r0, r6
 8004916:	2802      	cmp	r0, #2
 8004918:	d9ef      	bls.n	80048fa <HAL_RCC_OscConfig+0x116>
 800491a:	e7a7      	b.n	800486c <HAL_RCC_OscConfig+0x88>
        __HAL_RCC_HSI_DISABLE();
 800491c:	601a      	str	r2, [r3, #0]
        tickstart = HAL_GetTick();
 800491e:	f7fe ff1f 	bl	8003760 <HAL_GetTick>
        while (__HAL_RCC_GET_FLAG(RCC_FLAG_HSIRDY) != RESET)
 8004922:	4e4a      	ldr	r6, [pc, #296]	@ (8004a4c <HAL_RCC_OscConfig+0x268>)
        tickstart = HAL_GetTick();
 8004924:	4605      	mov	r5, r0
        while (__HAL_RCC_GET_FLAG(RCC_FLAG_HSIRDY) != RESET)
 8004926:	6833      	ldr	r3, [r6, #0]
 8004928:	079f      	lsls	r7, r3, #30
 800492a:	f57f af65 	bpl.w	80047f8 <HAL_RCC_OscConfig+0x14>
          if ((HAL_GetTick() - tickstart) > HSI_TIMEOUT_VALUE)
 800492e:	f7fe ff17 	bl	8003760 <HAL_GetTick>
 8004932:	1b40      	subs	r0, r0, r5
 8004934:	2802      	cmp	r0, #2
 8004936:	d9f6      	bls.n	8004926 <HAL_RCC_OscConfig+0x142>
 8004938:	e798      	b.n	800486c <HAL_RCC_OscConfig+0x88>
    if ((RCC_OscInitStruct->LSIState) != RCC_LSI_OFF)
 800493a:	6962      	ldr	r2, [r4, #20]
 800493c:	4b44      	ldr	r3, [pc, #272]	@ (8004a50 <HAL_RCC_OscConfig+0x26c>)
 800493e:	b182      	cbz	r2, 8004962 <HAL_RCC_OscConfig+0x17e>
      __HAL_RCC_LSI_ENABLE();
 8004940:	2201      	movs	r2, #1
 8004942:	f8c3 2e80 	str.w	r2, [r3, #3712]	@ 0xe80
      tickstart = HAL_GetTick();
 8004946:	f7fe ff0b 	bl	8003760 <HAL_GetTick>
      while (__HAL_RCC_GET_FLAG(RCC_FLAG_LSIRDY) == RESET)
 800494a:	4e40      	ldr	r6, [pc, #256]	@ (8004a4c <HAL_RCC_OscConfig+0x268>)
      tickstart = HAL_GetTick();
 800494c:	4605      	mov	r5, r0
      while (__HAL_RCC_GET_FLAG(RCC_FLAG_LSIRDY) == RESET)
 800494e:	6f73      	ldr	r3, [r6, #116]	@ 0x74
 8004950:	079b      	lsls	r3, r3, #30
 8004952:	f53f af55 	bmi.w	8004800 <HAL_RCC_OscConfig+0x1c>
        if ((HAL_GetTick() - tickstart) > LSI_TIMEOUT_VALUE)
 8004956:	f7fe ff03 	bl	8003760 <HAL_GetTick>
 800495a:	1b40      	subs	r0, r0, r5
 800495c:	2802      	cmp	r0, #2
 800495e:	d9f6      	bls.n	800494e <HAL_RCC_OscConfig+0x16a>
 8004960:	e784      	b.n	800486c <HAL_RCC_OscConfig+0x88>
      __HAL_RCC_LSI_DISABLE();
 8004962:	f8c3 2e80 	str.w	r2, [r3, #3712]	@ 0xe80
      tickstart = HAL_GetTick();
 8004966:	f7fe fefb 	bl	8003760 <HAL_GetTick>
      while (__HAL_RCC_GET_FLAG(RCC_FLAG_LSIRDY) != RESET)
 800496a:	4e38      	ldr	r6, [pc, #224]	@ (8004a4c <HAL_RCC_OscConfig+0x268>)
      tickstart = HAL_GetTick();
 800496c:	4605      	mov	r5, r0
      while (__HAL_RCC_GET_FLAG(RCC_FLAG_LSIRDY) != RESET)
 800496e:	6f73      	ldr	r3, [r6, #116]	@ 0x74
 8004970:	079f      	lsls	r7, r3, #30
 8004972:	f57f af45 	bpl.w	8004800 <HAL_RCC_OscConfig+0x1c>
        if ((HAL_GetTick() - tickstart) > LSI_TIMEOUT_VALUE)
 8004976:	f7fe fef3 	bl	8003760 <HAL_GetTick>
 800497a:	1b40      	subs	r0, r0, r5
 800497c:	2802      	cmp	r0, #2
 800497e:	d9f6      	bls.n	800496e <HAL_RCC_OscConfig+0x18a>
 8004980:	e774      	b.n	800486c <HAL_RCC_OscConfig+0x88>
    if (__HAL_RCC_PWR_IS_CLK_DISABLED())
 8004982:	4b32      	ldr	r3, [pc, #200]	@ (8004a4c <HAL_RCC_OscConfig+0x268>)
 8004984:	6c1a      	ldr	r2, [r3, #64]	@ 0x40
 8004986:	f012 5280 	ands.w	r2, r2, #268435456	@ 0x10000000
 800498a:	d128      	bne.n	80049de <HAL_RCC_OscConfig+0x1fa>
      __HAL_RCC_PWR_CLK_ENABLE();
 800498c:	9201      	str	r2, [sp, #4]
 800498e:	6c1a      	ldr	r2, [r3, #64]	@ 0x40
 8004990:	f042 5280 	orr.w	r2, r2, #268435456	@ 0x10000000
 8004994:	641a      	str	r2, [r3, #64]	@ 0x40
 8004996:	6c1b      	ldr	r3, [r3, #64]	@ 0x40
 8004998:	f003 5380 	and.w	r3, r3, #268435456	@ 0x10000000
 800499c:	9301      	str	r3, [sp, #4]
 800499e:	9b01      	ldr	r3, [sp, #4]
      pwrclkchanged = SET;
 80049a0:	2701      	movs	r7, #1
    if (HAL_IS_BIT_CLR(PWR->CR, PWR_CR_DBP))
 80049a2:	4d2c      	ldr	r5, [pc, #176]	@ (8004a54 <HAL_RCC_OscConfig+0x270>)
 80049a4:	682b      	ldr	r3, [r5, #0]
 80049a6:	05d8      	lsls	r0, r3, #23
 80049a8:	d51b      	bpl.n	80049e2 <HAL_RCC_OscConfig+0x1fe>
    __HAL_RCC_LSE_CONFIG(RCC_OscInitStruct->LSEState);
 80049aa:	68a3      	ldr	r3, [r4, #8]
 80049ac:	4d27      	ldr	r5, [pc, #156]	@ (8004a4c <HAL_RCC_OscConfig+0x268>)
 80049ae:	2b01      	cmp	r3, #1
 80049b0:	d127      	bne.n	8004a02 <HAL_RCC_OscConfig+0x21e>
 80049b2:	6f2b      	ldr	r3, [r5, #112]	@ 0x70
 80049b4:	f043 0301 	orr.w	r3, r3, #1
 80049b8:	672b      	str	r3, [r5, #112]	@ 0x70
      tickstart = HAL_GetTick();
 80049ba:	f7fe fed1 	bl	8003760 <HAL_GetTick>
      while (__HAL_RCC_GET_FLAG(RCC_FLAG_LSERDY) == RESET)
 80049be:	4e23      	ldr	r6, [pc, #140]	@ (8004a4c <HAL_RCC_OscConfig+0x268>)
      tickstart = HAL_GetTick();
 80049c0:	4605      	mov	r5, r0
        if ((HAL_GetTick() - tickstart) > RCC_LSE_TIMEOUT_VALUE)
 80049c2:	f241 3888 	movw	r8, #5000	@ 0x1388
      while (__HAL_RCC_GET_FLAG(RCC_FLAG_LSERDY) == RESET)
 80049c6:	6f33      	ldr	r3, [r6, #112]	@ 0x70
 80049c8:	079a      	lsls	r2, r3, #30
 80049ca:	d539      	bpl.n	8004a40 <HAL_RCC_OscConfig+0x25c>
    if (pwrclkchanged == SET)
 80049cc:	2f00      	cmp	r7, #0
 80049ce:	f43f af1b 	beq.w	8004808 <HAL_RCC_OscConfig+0x24>
      __HAL_RCC_PWR_CLK_DISABLE();
 80049d2:	4a1e      	ldr	r2, [pc, #120]	@ (8004a4c <HAL_RCC_OscConfig+0x268>)
 80049d4:	6c13      	ldr	r3, [r2, #64]	@ 0x40
 80049d6:	f023 5380 	bic.w	r3, r3, #268435456	@ 0x10000000
 80049da:	6413      	str	r3, [r2, #64]	@ 0x40
 80049dc:	e714      	b.n	8004808 <HAL_RCC_OscConfig+0x24>
    FlagStatus       pwrclkchanged = RESET;
 80049de:	2700      	movs	r7, #0
 80049e0:	e7df      	b.n	80049a2 <HAL_RCC_OscConfig+0x1be>
      SET_BIT(PWR->CR, PWR_CR_DBP);
 80049e2:	682b      	ldr	r3, [r5, #0]
 80049e4:	f443 7380 	orr.w	r3, r3, #256	@ 0x100
 80049e8:	602b      	str	r3, [r5, #0]
      tickstart = HAL_GetTick();
 80049ea:	f7fe feb9 	bl	8003760 <HAL_GetTick>
 80049ee:	4606      	mov	r6, r0
      while (HAL_IS_BIT_CLR(PWR->CR, PWR_CR_DBP))
 80049f0:	682b      	ldr	r3, [r5, #0]
 80049f2:	05d9      	lsls	r1, r3, #23
 80049f4:	d4d9      	bmi.n	80049aa <HAL_RCC_OscConfig+0x1c6>
        if ((HAL_GetTick() - tickstart) > RCC_DBP_TIMEOUT_VALUE)
 80049f6:	f7fe feb3 	bl	8003760 <HAL_GetTick>
 80049fa:	1b80      	subs	r0, r0, r6
 80049fc:	2802      	cmp	r0, #2
 80049fe:	d9f7      	bls.n	80049f0 <HAL_RCC_OscConfig+0x20c>
 8004a00:	e734      	b.n	800486c <HAL_RCC_OscConfig+0x88>
    __HAL_RCC_LSE_CONFIG(RCC_OscInitStruct->LSEState);
 8004a02:	2b05      	cmp	r3, #5
 8004a04:	d104      	bne.n	8004a10 <HAL_RCC_OscConfig+0x22c>
 8004a06:	6f2b      	ldr	r3, [r5, #112]	@ 0x70
 8004a08:	f043 0304 	orr.w	r3, r3, #4
 8004a0c:	672b      	str	r3, [r5, #112]	@ 0x70
 8004a0e:	e7d0      	b.n	80049b2 <HAL_RCC_OscConfig+0x1ce>
 8004a10:	6f2a      	ldr	r2, [r5, #112]	@ 0x70
 8004a12:	f022 0201 	bic.w	r2, r2, #1
 8004a16:	672a      	str	r2, [r5, #112]	@ 0x70
 8004a18:	6f2a      	ldr	r2, [r5, #112]	@ 0x70
 8004a1a:	f022 0204 	bic.w	r2, r2, #4
 8004a1e:	672a      	str	r2, [r5, #112]	@ 0x70
    if ((RCC_OscInitStruct->LSEState) != RCC_LSE_OFF)
 8004a20:	2b00      	cmp	r3, #0
 8004a22:	d1ca      	bne.n	80049ba <HAL_RCC_OscConfig+0x1d6>
      tickstart = HAL_GetTick();
 8004a24:	f7fe fe9c 	bl	8003760 <HAL_GetTick>
        if ((HAL_GetTick() - tickstart) > RCC_LSE_TIMEOUT_VALUE)
 8004a28:	f241 3888 	movw	r8, #5000	@ 0x1388
      tickstart = HAL_GetTick();
 8004a2c:	4606      	mov	r6, r0
      while (__HAL_RCC_GET_FLAG(RCC_FLAG_LSERDY) != RESET)
 8004a2e:	6f2b      	ldr	r3, [r5, #112]	@ 0x70
 8004a30:	079b      	lsls	r3, r3, #30
 8004a32:	d5cb      	bpl.n	80049cc <HAL_RCC_OscConfig+0x1e8>
        if ((HAL_GetTick() - tickstart) > RCC_LSE_TIMEOUT_VALUE)
 8004a34:	f7fe fe94 	bl	8003760 <HAL_GetTick>
 8004a38:	1b80      	subs	r0, r0, r6
 8004a3a:	4540      	cmp	r0, r8
 8004a3c:	d9f7      	bls.n	8004a2e <HAL_RCC_OscConfig+0x24a>
 8004a3e:	e715      	b.n	800486c <HAL_RCC_OscConfig+0x88>
        if ((HAL_GetTick() - tickstart) > RCC_LSE_TIMEOUT_VALUE)
 8004a40:	f7fe fe8e 	bl	8003760 <HAL_GetTick>
 8004a44:	1b40      	subs	r0, r0, r5
 8004a46:	4540      	cmp	r0, r8
 8004a48:	d9bd      	bls.n	80049c6 <HAL_RCC_OscConfig+0x1e2>
 8004a4a:	e70f      	b.n	800486c <HAL_RCC_OscConfig+0x88>
 8004a4c:	40023800 	.word	0x40023800
 8004a50:	42470000 	.word	0x42470000
 8004a54:	40007000 	.word	0x40007000
    if (__HAL_RCC_GET_SYSCLK_SOURCE() != RCC_CFGR_SWS_PLL)
 8004a58:	4d37      	ldr	r5, [pc, #220]	@ (8004b38 <HAL_RCC_OscConfig+0x354>)
 8004a5a:	68aa      	ldr	r2, [r5, #8]
 8004a5c:	f002 020c 	and.w	r2, r2, #12
 8004a60:	2a08      	cmp	r2, #8
 8004a62:	d03e      	beq.n	8004ae2 <HAL_RCC_OscConfig+0x2fe>
      if ((RCC_OscInitStruct->PLL.PLLState) == RCC_PLL_ON)
 8004a64:	2b02      	cmp	r3, #2
 8004a66:	4b35      	ldr	r3, [pc, #212]	@ (8004b3c <HAL_RCC_OscConfig+0x358>)
 8004a68:	f04f 0200 	mov.w	r2, #0
        __HAL_RCC_PLL_DISABLE();
 8004a6c:	661a      	str	r2, [r3, #96]	@ 0x60
      if ((RCC_OscInitStruct->PLL.PLLState) == RCC_PLL_ON)
 8004a6e:	d12b      	bne.n	8004ac8 <HAL_RCC_OscConfig+0x2e4>
        tickstart = HAL_GetTick();
 8004a70:	f7fe fe76 	bl	8003760 <HAL_GetTick>
 8004a74:	4606      	mov	r6, r0
        while (__HAL_RCC_GET_FLAG(RCC_FLAG_PLLRDY) != RESET)
 8004a76:	682b      	ldr	r3, [r5, #0]
 8004a78:	0199      	lsls	r1, r3, #6
 8004a7a:	d41f      	bmi.n	8004abc <HAL_RCC_OscConfig+0x2d8>
        WRITE_REG(RCC->PLLCFGR, (RCC_OscInitStruct->PLL.PLLSource                                            | \
 8004a7c:	e9d4 3207 	ldrd	r3, r2, [r4, #28]
 8004a80:	4313      	orrs	r3, r2
 8004a82:	6a62      	ldr	r2, [r4, #36]	@ 0x24
 8004a84:	ea43 1382 	orr.w	r3, r3, r2, lsl #6
 8004a88:	6ae2      	ldr	r2, [r4, #44]	@ 0x2c
 8004a8a:	ea43 6302 	orr.w	r3, r3, r2, lsl #24
 8004a8e:	6aa2      	ldr	r2, [r4, #40]	@ 0x28
 8004a90:	0852      	lsrs	r2, r2, #1
 8004a92:	3a01      	subs	r2, #1
 8004a94:	ea43 4302 	orr.w	r3, r3, r2, lsl #16
 8004a98:	606b      	str	r3, [r5, #4]
        __HAL_RCC_PLL_ENABLE();
 8004a9a:	4b28      	ldr	r3, [pc, #160]	@ (8004b3c <HAL_RCC_OscConfig+0x358>)
        while (__HAL_RCC_GET_FLAG(RCC_FLAG_PLLRDY) == RESET)
 8004a9c:	4d26      	ldr	r5, [pc, #152]	@ (8004b38 <HAL_RCC_OscConfig+0x354>)
        __HAL_RCC_PLL_ENABLE();
 8004a9e:	2201      	movs	r2, #1
 8004aa0:	661a      	str	r2, [r3, #96]	@ 0x60
        tickstart = HAL_GetTick();
 8004aa2:	f7fe fe5d 	bl	8003760 <HAL_GetTick>
 8004aa6:	4604      	mov	r4, r0
        while (__HAL_RCC_GET_FLAG(RCC_FLAG_PLLRDY) == RESET)
 8004aa8:	682b      	ldr	r3, [r5, #0]
 8004aaa:	019a      	lsls	r2, r3, #6
 8004aac:	f53f aeb0 	bmi.w	8004810 <HAL_RCC_OscConfig+0x2c>
          if ((HAL_GetTick() - tickstart) > PLL_TIMEOUT_VALUE)
 8004ab0:	f7fe fe56 	bl	8003760 <HAL_GetTick>
 8004ab4:	1b00      	subs	r0, r0, r4
 8004ab6:	2802      	cmp	r0, #2
 8004ab8:	d9f6      	bls.n	8004aa8 <HAL_RCC_OscConfig+0x2c4>
 8004aba:	e6d7      	b.n	800486c <HAL_RCC_OscConfig+0x88>
          if ((HAL_GetTick() - tickstart) > PLL_TIMEOUT_VALUE)
 8004abc:	f7fe fe50 	bl	8003760 <HAL_GetTick>
 8004ac0:	1b80      	subs	r0, r0, r6
 8004ac2:	2802      	cmp	r0, #2
 8004ac4:	d9d7      	bls.n	8004a76 <HAL_RCC_OscConfig+0x292>
 8004ac6:	e6d1      	b.n	800486c <HAL_RCC_OscConfig+0x88>
        tickstart = HAL_GetTick();
 8004ac8:	f7fe fe4a 	bl	8003760 <HAL_GetTick>
 8004acc:	4604      	mov	r4, r0
        while (__HAL_RCC_GET_FLAG(RCC_FLAG_PLLRDY) != RESET)
 8004ace:	682b      	ldr	r3, [r5, #0]
 8004ad0:	019b      	lsls	r3, r3, #6
 8004ad2:	f57f ae9d 	bpl.w	8004810 <HAL_RCC_OscConfig+0x2c>
          if ((HAL_GetTick() - tickstart) > PLL_TIMEOUT_VALUE)
 8004ad6:	f7fe fe43 	bl	8003760 <HAL_GetTick>
 8004ada:	1b00      	subs	r0, r0, r4
 8004adc:	2802      	cmp	r0, #2
 8004ade:	d9f6      	bls.n	8004ace <HAL_RCC_OscConfig+0x2ea>
 8004ae0:	e6c4      	b.n	800486c <HAL_RCC_OscConfig+0x88>
      if ((RCC_OscInitStruct->PLL.PLLState) == RCC_PLL_OFF)
 8004ae2:	2b01      	cmp	r3, #1
 8004ae4:	f43f aeab 	beq.w	800483e <HAL_RCC_OscConfig+0x5a>
        pll_config = RCC->PLLCFGR;
 8004ae8:	686b      	ldr	r3, [r5, #4]
        if (((RCC_OscInitStruct->PLL.PLLState) == RCC_PLL_OFF) ||
 8004aea:	69e2      	ldr	r2, [r4, #28]
            (READ_BIT(pll_config, RCC_PLLCFGR_PLLSRC) != RCC_OscInitStruct->PLL.PLLSource) ||
 8004aec:	f403 0180 	and.w	r1, r3, #4194304	@ 0x400000
        if (((RCC_OscInitStruct->PLL.PLLState) == RCC_PLL_OFF) ||
 8004af0:	4291      	cmp	r1, r2
 8004af2:	f47f aea4 	bne.w	800483e <HAL_RCC_OscConfig+0x5a>
            (READ_BIT(pll_config, RCC_PLLCFGR_PLLSRC) != RCC_OscInitStruct->PLL.PLLSource) ||
 8004af6:	6a21      	ldr	r1, [r4, #32]
            (READ_BIT(pll_config, RCC_PLLCFGR_PLLM) != (RCC_OscInitStruct->PLL.PLLM) << RCC_PLLCFGR_PLLM_Pos) ||
 8004af8:	f003 023f 	and.w	r2, r3, #63	@ 0x3f
            (READ_BIT(pll_config, RCC_PLLCFGR_PLLSRC) != RCC_OscInitStruct->PLL.PLLSource) ||
 8004afc:	428a      	cmp	r2, r1
 8004afe:	f47f ae9e 	bne.w	800483e <HAL_RCC_OscConfig+0x5a>
            (READ_BIT(pll_config, RCC_PLLCFGR_PLLN) != (RCC_OscInitStruct->PLL.PLLN) << RCC_PLLCFGR_PLLN_Pos) ||
 8004b02:	6a61      	ldr	r1, [r4, #36]	@ 0x24
            (READ_BIT(pll_config, RCC_PLLCFGR_PLLM) != (RCC_OscInitStruct->PLL.PLLM) << RCC_PLLCFGR_PLLM_Pos) ||
 8004b04:	f647 72c0 	movw	r2, #32704	@ 0x7fc0
 8004b08:	401a      	ands	r2, r3
 8004b0a:	ebb2 1f81 	cmp.w	r2, r1, lsl #6
 8004b0e:	f47f ae96 	bne.w	800483e <HAL_RCC_OscConfig+0x5a>
            (READ_BIT(pll_config, RCC_PLLCFGR_PLLP) != (((RCC_OscInitStruct->PLL.PLLP >> 1U) - 1U)) << RCC_PLLCFGR_PLLP_Pos) ||
 8004b12:	6aa2      	ldr	r2, [r4, #40]	@ 0x28
 8004b14:	0852      	lsrs	r2, r2, #1
 8004b16:	f403 3140 	and.w	r1, r3, #196608	@ 0x30000
 8004b1a:	3a01      	subs	r2, #1
            (READ_BIT(pll_config, RCC_PLLCFGR_PLLN) != (RCC_OscInitStruct->PLL.PLLN) << RCC_PLLCFGR_PLLN_Pos) ||
 8004b1c:	ebb1 4f02 	cmp.w	r1, r2, lsl #16
 8004b20:	f47f ae8d 	bne.w	800483e <HAL_RCC_OscConfig+0x5a>
            (READ_BIT(pll_config, RCC_PLLCFGR_PLLQ) != (RCC_OscInitStruct->PLL.PLLQ << RCC_PLLCFGR_PLLQ_Pos)))
 8004b24:	6ae2      	ldr	r2, [r4, #44]	@ 0x2c
 8004b26:	f003 6370 	and.w	r3, r3, #251658240	@ 0xf000000
            (READ_BIT(pll_config, RCC_PLLCFGR_PLLP) != (((RCC_OscInitStruct->PLL.PLLP >> 1U) - 1U)) << RCC_PLLCFGR_PLLP_Pos) ||
 8004b2a:	ebb3 6f02 	cmp.w	r3, r2, lsl #24
 8004b2e:	bf14      	ite	ne
 8004b30:	2001      	movne	r0, #1
 8004b32:	2000      	moveq	r0, #0
 8004b34:	e69b      	b.n	800486e <HAL_RCC_OscConfig+0x8a>
 8004b36:	bf00      	nop
 8004b38:	40023800 	.word	0x40023800
 8004b3c:	42470000 	.word	0x42470000

08004b40 <HAL_RCC_GetSysClockFreq>:
  uint32_t pllvco = 0U;
  uint32_t pllp = 0U;
  uint32_t sysclockfreq = 0U;

  /* Get SYSCLK source -------------------------------------------------------*/
  switch (RCC->CFGR & RCC_CFGR_SWS)
 8004b40:	4913      	ldr	r1, [pc, #76]	@ (8004b90 <HAL_RCC_GetSysClockFreq+0x50>)
{
 8004b42:	b508      	push	{r3, lr}
  switch (RCC->CFGR & RCC_CFGR_SWS)
 8004b44:	688b      	ldr	r3, [r1, #8]
 8004b46:	f003 030c 	and.w	r3, r3, #12
 8004b4a:	2b04      	cmp	r3, #4
 8004b4c:	d01c      	beq.n	8004b88 <HAL_RCC_GetSysClockFreq+0x48>
 8004b4e:	2b08      	cmp	r3, #8
 8004b50:	d11c      	bne.n	8004b8c <HAL_RCC_GetSysClockFreq+0x4c>
    }
    case RCC_CFGR_SWS_PLL:  /* PLL used as system clock  source */
    {
      /* PLL_VCO = (HSE_VALUE or HSI_VALUE / PLLM) * PLLN
      SYSCLK = PLL_VCO / PLLP */
      pllm = RCC->PLLCFGR & RCC_PLLCFGR_PLLM;
 8004b52:	684a      	ldr	r2, [r1, #4]
      if (__HAL_RCC_GET_PLL_OSCSOURCE() != RCC_PLLSOURCE_HSI)
 8004b54:	684b      	ldr	r3, [r1, #4]
      {
        /* HSE used as PLL clock source */
        pllvco = (uint32_t)((((uint64_t) HSE_VALUE * ((uint64_t)((RCC->PLLCFGR & RCC_PLLCFGR_PLLN) >> RCC_PLLCFGR_PLLN_Pos)))) / (uint64_t)pllm);
 8004b56:	6849      	ldr	r1, [r1, #4]
      if (__HAL_RCC_GET_PLL_OSCSOURCE() != RCC_PLLSOURCE_HSI)
 8004b58:	f413 0380 	ands.w	r3, r3, #4194304	@ 0x400000
        pllvco = (uint32_t)((((uint64_t) HSE_VALUE * ((uint64_t)((RCC->PLLCFGR & RCC_PLLCFGR_PLLN) >> RCC_PLLCFGR_PLLN_Pos)))) / (uint64_t)pllm);
 8004b5c:	bf14      	ite	ne
 8004b5e:	480d      	ldrne	r0, [pc, #52]	@ (8004b94 <HAL_RCC_GetSysClockFreq+0x54>)
      }
      else
      {
        /* HSI used as PLL clock source */
        pllvco = (uint32_t)((((uint64_t) HSI_VALUE * ((uint64_t)((RCC->PLLCFGR & RCC_PLLCFGR_PLLN) >> RCC_PLLCFGR_PLLN_Pos)))) / (uint64_t)pllm);
 8004b60:	480d      	ldreq	r0, [pc, #52]	@ (8004b98 <HAL_RCC_GetSysClockFreq+0x58>)
        pllvco = (uint32_t)((((uint64_t) HSE_VALUE * ((uint64_t)((RCC->PLLCFGR & RCC_PLLCFGR_PLLN) >> RCC_PLLCFGR_PLLN_Pos)))) / (uint64_t)pllm);
 8004b62:	f3c1 1188 	ubfx	r1, r1, #6, #9
 8004b66:	bf18      	it	ne
 8004b68:	2300      	movne	r3, #0
      pllm = RCC->PLLCFGR & RCC_PLLCFGR_PLLM;
 8004b6a:	f002 023f 	and.w	r2, r2, #63	@ 0x3f
        pllvco = (uint32_t)((((uint64_t) HSI_VALUE * ((uint64_t)((RCC->PLLCFGR & RCC_PLLCFGR_PLLN) >> RCC_PLLCFGR_PLLN_Pos)))) / (uint64_t)pllm);
 8004b6e:	fba1 0100 	umull	r0, r1, r1, r0
 8004b72:	f7fc f879 	bl	8000c68 <__aeabi_uldivmod>
      }
      pllp = ((((RCC->PLLCFGR & RCC_PLLCFGR_PLLP) >> RCC_PLLCFGR_PLLP_Pos) + 1U) * 2U);
 8004b76:	4b06      	ldr	r3, [pc, #24]	@ (8004b90 <HAL_RCC_GetSysClockFreq+0x50>)
 8004b78:	685b      	ldr	r3, [r3, #4]
 8004b7a:	f3c3 4301 	ubfx	r3, r3, #16, #2
 8004b7e:	3301      	adds	r3, #1
 8004b80:	005b      	lsls	r3, r3, #1

      sysclockfreq = pllvco / pllp;
 8004b82:	fbb0 f0f3 	udiv	r0, r0, r3
      sysclockfreq = HSI_VALUE;
      break;
    }
  }
  return sysclockfreq;
}
 8004b86:	bd08      	pop	{r3, pc}
  switch (RCC->CFGR & RCC_CFGR_SWS)
 8004b88:	4802      	ldr	r0, [pc, #8]	@ (8004b94 <HAL_RCC_GetSysClockFreq+0x54>)
 8004b8a:	e7fc      	b.n	8004b86 <HAL_RCC_GetSysClockFreq+0x46>
      sysclockfreq = HSI_VALUE;
 8004b8c:	4802      	ldr	r0, [pc, #8]	@ (8004b98 <HAL_RCC_GetSysClockFreq+0x58>)
  return sysclockfreq;
 8004b8e:	e7fa      	b.n	8004b86 <HAL_RCC_GetSysClockFreq+0x46>
 8004b90:	40023800 	.word	0x40023800
 8004b94:	017d7840 	.word	0x017d7840
 8004b98:	00f42400 	.word	0x00f42400

08004b9c <HAL_RCC_ClockConfig>:
{
 8004b9c:	e92d 41f0 	stmdb	sp!, {r4, r5, r6, r7, r8, lr}
 8004ba0:	460d      	mov	r5, r1
  if (RCC_ClkInitStruct == NULL)
 8004ba2:	4604      	mov	r4, r0
 8004ba4:	b910      	cbnz	r0, 8004bac <HAL_RCC_ClockConfig+0x10>
    return HAL_ERROR;
 8004ba6:	2001      	movs	r0, #1
}
 8004ba8:	e8bd 81f0 	ldmia.w	sp!, {r4, r5, r6, r7, r8, pc}
  if (FLatency > __HAL_FLASH_GET_LATENCY())
 8004bac:	4b43      	ldr	r3, [pc, #268]	@ (8004cbc <HAL_RCC_ClockConfig+0x120>)
 8004bae:	681a      	ldr	r2, [r3, #0]
 8004bb0:	f002 0207 	and.w	r2, r2, #7
 8004bb4:	428a      	cmp	r2, r1
 8004bb6:	d328      	bcc.n	8004c0a <HAL_RCC_ClockConfig+0x6e>
  if (((RCC_ClkInitStruct->ClockType) & RCC_CLOCKTYPE_HCLK) == RCC_CLOCKTYPE_HCLK)
 8004bb8:	6821      	ldr	r1, [r4, #0]
 8004bba:	078f      	lsls	r7, r1, #30
 8004bbc:	d42d      	bmi.n	8004c1a <HAL_RCC_ClockConfig+0x7e>
  if (((RCC_ClkInitStruct->ClockType) & RCC_CLOCKTYPE_SYSCLK) == RCC_CLOCKTYPE_SYSCLK)
 8004bbe:	07c8      	lsls	r0, r1, #31
 8004bc0:	d440      	bmi.n	8004c44 <HAL_RCC_ClockConfig+0xa8>
  if (FLatency < __HAL_FLASH_GET_LATENCY())
 8004bc2:	4b3e      	ldr	r3, [pc, #248]	@ (8004cbc <HAL_RCC_ClockConfig+0x120>)
 8004bc4:	681a      	ldr	r2, [r3, #0]
 8004bc6:	f002 0207 	and.w	r2, r2, #7
 8004bca:	42aa      	cmp	r2, r5
 8004bcc:	d865      	bhi.n	8004c9a <HAL_RCC_ClockConfig+0xfe>
  if (((RCC_ClkInitStruct->ClockType) & RCC_CLOCKTYPE_PCLK1) == RCC_CLOCKTYPE_PCLK1)
 8004bce:	6822      	ldr	r2, [r4, #0]
 8004bd0:	0751      	lsls	r1, r2, #29
 8004bd2:	d46b      	bmi.n	8004cac <HAL_RCC_ClockConfig+0x110>
  if (((RCC_ClkInitStruct->ClockType) & RCC_CLOCKTYPE_PCLK2) == RCC_CLOCKTYPE_PCLK2)
 8004bd4:	0713      	lsls	r3, r2, #28
 8004bd6:	d507      	bpl.n	8004be8 <HAL_RCC_ClockConfig+0x4c>
    MODIFY_REG(RCC->CFGR, RCC_CFGR_PPRE2, ((RCC_ClkInitStruct->APB2CLKDivider) << 3U));
 8004bd8:	4a39      	ldr	r2, [pc, #228]	@ (8004cc0 <HAL_RCC_ClockConfig+0x124>)
 8004bda:	6921      	ldr	r1, [r4, #16]
 8004bdc:	6893      	ldr	r3, [r2, #8]
 8004bde:	f423 4360 	bic.w	r3, r3, #57344	@ 0xe000
 8004be2:	ea43 03c1 	orr.w	r3, r3, r1, lsl #3
 8004be6:	6093      	str	r3, [r2, #8]
  SystemCoreClock = HAL_RCC_GetSysClockFreq() >> AHBPrescTable[(RCC->CFGR & RCC_CFGR_HPRE) >> RCC_CFGR_HPRE_Pos];
 8004be8:	f7ff ffaa 	bl	8004b40 <HAL_RCC_GetSysClockFreq>
 8004bec:	4b34      	ldr	r3, [pc, #208]	@ (8004cc0 <HAL_RCC_ClockConfig+0x124>)
 8004bee:	4a35      	ldr	r2, [pc, #212]	@ (8004cc4 <HAL_RCC_ClockConfig+0x128>)
 8004bf0:	689b      	ldr	r3, [r3, #8]
 8004bf2:	f3c3 1303 	ubfx	r3, r3, #4, #4
 8004bf6:	5cd3      	ldrb	r3, [r2, r3]
 8004bf8:	40d8      	lsrs	r0, r3
 8004bfa:	4b33      	ldr	r3, [pc, #204]	@ (8004cc8 <HAL_RCC_ClockConfig+0x12c>)
 8004bfc:	6018      	str	r0, [r3, #0]
  HAL_InitTick(uwTickPrio);
 8004bfe:	4b33      	ldr	r3, [pc, #204]	@ (8004ccc <HAL_RCC_ClockConfig+0x130>)
 8004c00:	6818      	ldr	r0, [r3, #0]
 8004c02:	f7fe fd63 	bl	80036cc <HAL_InitTick>
  return HAL_OK;
 8004c06:	2000      	movs	r0, #0
 8004c08:	e7ce      	b.n	8004ba8 <HAL_RCC_ClockConfig+0xc>
    __HAL_FLASH_SET_LATENCY(FLatency);
 8004c0a:	b2ca      	uxtb	r2, r1
 8004c0c:	701a      	strb	r2, [r3, #0]
    if (__HAL_FLASH_GET_LATENCY() != FLatency)
 8004c0e:	681b      	ldr	r3, [r3, #0]
 8004c10:	f003 0307 	and.w	r3, r3, #7
 8004c14:	428b      	cmp	r3, r1
 8004c16:	d1c6      	bne.n	8004ba6 <HAL_RCC_ClockConfig+0xa>
 8004c18:	e7ce      	b.n	8004bb8 <HAL_RCC_ClockConfig+0x1c>
    if (((RCC_ClkInitStruct->ClockType) & RCC_CLOCKTYPE_PCLK1) == RCC_CLOCKTYPE_PCLK1)
 8004c1a:	4b29      	ldr	r3, [pc, #164]	@ (8004cc0 <HAL_RCC_ClockConfig+0x124>)
 8004c1c:	f011 0f04 	tst.w	r1, #4
      MODIFY_REG(RCC->CFGR, RCC_CFGR_PPRE1, RCC_HCLK_DIV16);
 8004c20:	bf1e      	ittt	ne
 8004c22:	689a      	ldrne	r2, [r3, #8]
 8004c24:	f442 52e0 	orrne.w	r2, r2, #7168	@ 0x1c00
 8004c28:	609a      	strne	r2, [r3, #8]
    if (((RCC_ClkInitStruct->ClockType) & RCC_CLOCKTYPE_PCLK2) == RCC_CLOCKTYPE_PCLK2)
 8004c2a:	070e      	lsls	r6, r1, #28
      MODIFY_REG(RCC->CFGR, RCC_CFGR_PPRE2, (RCC_HCLK_DIV16 << 3));
 8004c2c:	bf42      	ittt	mi
 8004c2e:	689a      	ldrmi	r2, [r3, #8]
 8004c30:	f442 4260 	orrmi.w	r2, r2, #57344	@ 0xe000
 8004c34:	609a      	strmi	r2, [r3, #8]
    MODIFY_REG(RCC->CFGR, RCC_CFGR_HPRE, RCC_ClkInitStruct->AHBCLKDivider);
 8004c36:	689a      	ldr	r2, [r3, #8]
 8004c38:	68a0      	ldr	r0, [r4, #8]
 8004c3a:	f022 02f0 	bic.w	r2, r2, #240	@ 0xf0
 8004c3e:	4302      	orrs	r2, r0
 8004c40:	609a      	str	r2, [r3, #8]
 8004c42:	e7bc      	b.n	8004bbe <HAL_RCC_ClockConfig+0x22>
    if (RCC_ClkInitStruct->SYSCLKSource == RCC_SYSCLKSOURCE_HSE)
 8004c44:	6862      	ldr	r2, [r4, #4]
 8004c46:	4b1e      	ldr	r3, [pc, #120]	@ (8004cc0 <HAL_RCC_ClockConfig+0x124>)
 8004c48:	2a01      	cmp	r2, #1
 8004c4a:	d11c      	bne.n	8004c86 <HAL_RCC_ClockConfig+0xea>
      if (__HAL_RCC_GET_FLAG(RCC_FLAG_HSERDY) == RESET)
 8004c4c:	681b      	ldr	r3, [r3, #0]
 8004c4e:	f413 3f00 	tst.w	r3, #131072	@ 0x20000
      if (__HAL_RCC_GET_FLAG(RCC_FLAG_HSIRDY) == RESET)
 8004c52:	d0a8      	beq.n	8004ba6 <HAL_RCC_ClockConfig+0xa>
    __HAL_RCC_SYSCLK_CONFIG(RCC_ClkInitStruct->SYSCLKSource);
 8004c54:	4e1a      	ldr	r6, [pc, #104]	@ (8004cc0 <HAL_RCC_ClockConfig+0x124>)
 8004c56:	68b3      	ldr	r3, [r6, #8]
 8004c58:	f023 0303 	bic.w	r3, r3, #3
 8004c5c:	4313      	orrs	r3, r2
 8004c5e:	60b3      	str	r3, [r6, #8]
    tickstart = HAL_GetTick();
 8004c60:	f7fe fd7e 	bl	8003760 <HAL_GetTick>
      if ((HAL_GetTick() - tickstart) > CLOCKSWITCH_TIMEOUT_VALUE)
 8004c64:	f241 3888 	movw	r8, #5000	@ 0x1388
    tickstart = HAL_GetTick();
 8004c68:	4607      	mov	r7, r0
    while (__HAL_RCC_GET_SYSCLK_SOURCE() != (RCC_ClkInitStruct->SYSCLKSource << RCC_CFGR_SWS_Pos))
 8004c6a:	68b3      	ldr	r3, [r6, #8]
 8004c6c:	6862      	ldr	r2, [r4, #4]
 8004c6e:	f003 030c 	and.w	r3, r3, #12
 8004c72:	ebb3 0f82 	cmp.w	r3, r2, lsl #2
 8004c76:	d0a4      	beq.n	8004bc2 <HAL_RCC_ClockConfig+0x26>
      if ((HAL_GetTick() - tickstart) > CLOCKSWITCH_TIMEOUT_VALUE)
 8004c78:	f7fe fd72 	bl	8003760 <HAL_GetTick>
 8004c7c:	1bc0      	subs	r0, r0, r7
 8004c7e:	4540      	cmp	r0, r8
 8004c80:	d9f3      	bls.n	8004c6a <HAL_RCC_ClockConfig+0xce>
        return HAL_TIMEOUT;
 8004c82:	2003      	movs	r0, #3
 8004c84:	e790      	b.n	8004ba8 <HAL_RCC_ClockConfig+0xc>
    else if ((RCC_ClkInitStruct->SYSCLKSource == RCC_SYSCLKSOURCE_PLLCLK)   ||
 8004c86:	1e91      	subs	r1, r2, #2
 8004c88:	2901      	cmp	r1, #1
      if (__HAL_RCC_GET_FLAG(RCC_FLAG_PLLRDY) == RESET)
 8004c8a:	681b      	ldr	r3, [r3, #0]
    else if ((RCC_ClkInitStruct->SYSCLKSource == RCC_SYSCLKSOURCE_PLLCLK)   ||
 8004c8c:	d802      	bhi.n	8004c94 <HAL_RCC_ClockConfig+0xf8>
      if (__HAL_RCC_GET_FLAG(RCC_FLAG_PLLRDY) == RESET)
 8004c8e:	f013 7f00 	tst.w	r3, #33554432	@ 0x2000000
 8004c92:	e7de      	b.n	8004c52 <HAL_RCC_ClockConfig+0xb6>
      if (__HAL_RCC_GET_FLAG(RCC_FLAG_HSIRDY) == RESET)
 8004c94:	f013 0f02 	tst.w	r3, #2
 8004c98:	e7db      	b.n	8004c52 <HAL_RCC_ClockConfig+0xb6>
    __HAL_FLASH_SET_LATENCY(FLatency);
 8004c9a:	b2ea      	uxtb	r2, r5
 8004c9c:	701a      	strb	r2, [r3, #0]
    if (__HAL_FLASH_GET_LATENCY() != FLatency)
 8004c9e:	681b      	ldr	r3, [r3, #0]
 8004ca0:	f003 0307 	and.w	r3, r3, #7
 8004ca4:	42ab      	cmp	r3, r5
 8004ca6:	f47f af7e 	bne.w	8004ba6 <HAL_RCC_ClockConfig+0xa>
 8004caa:	e790      	b.n	8004bce <HAL_RCC_ClockConfig+0x32>
    MODIFY_REG(RCC->CFGR, RCC_CFGR_PPRE1, RCC_ClkInitStruct->APB1CLKDivider);
 8004cac:	4904      	ldr	r1, [pc, #16]	@ (8004cc0 <HAL_RCC_ClockConfig+0x124>)
 8004cae:	68e0      	ldr	r0, [r4, #12]
 8004cb0:	688b      	ldr	r3, [r1, #8]
 8004cb2:	f423 53e0 	bic.w	r3, r3, #7168	@ 0x1c00
 8004cb6:	4303      	orrs	r3, r0
 8004cb8:	608b      	str	r3, [r1, #8]
 8004cba:	e78b      	b.n	8004bd4 <HAL_RCC_ClockConfig+0x38>
 8004cbc:	40023c00 	.word	0x40023c00
 8004cc0:	40023800 	.word	0x40023800
 8004cc4:	08008da3 	.word	0x08008da3
 8004cc8:	20000000 	.word	0x20000000
 8004ccc:	20000114 	.word	0x20000114

08004cd0 <HAL_RCC_GetHCLKFreq>:
  * @retval HCLK frequency
  */
uint32_t HAL_RCC_GetHCLKFreq(void)
{
  return SystemCoreClock;
}
 8004cd0:	4b01      	ldr	r3, [pc, #4]	@ (8004cd8 <HAL_RCC_GetHCLKFreq+0x8>)
 8004cd2:	6818      	ldr	r0, [r3, #0]
 8004cd4:	4770      	bx	lr
 8004cd6:	bf00      	nop
 8004cd8:	20000000 	.word	0x20000000

08004cdc <USB_CoreReset>:
  * @brief  Reset the USB Core (needed after USB clock settings change)
  * @param  USBx  Selected device
  * @retval HAL status
  */
static HAL_StatusTypeDef USB_CoreReset(USB_OTG_GlobalTypeDef *USBx)
{
 8004cdc:	b082      	sub	sp, #8
  __IO uint32_t count = 0U;
 8004cde:	2300      	movs	r3, #0
{
 8004ce0:	4602      	mov	r2, r0
  __IO uint32_t count = 0U;
 8004ce2:	9301      	str	r3, [sp, #4]

  /* Wait for AHB master IDLE state. */
  do
  {
    count++;
 8004ce4:	9b01      	ldr	r3, [sp, #4]
 8004ce6:	3301      	adds	r3, #1
 8004ce8:	9301      	str	r3, [sp, #4]

    if (count > HAL_USB_TIMEOUT)
 8004cea:	9b01      	ldr	r3, [sp, #4]
 8004cec:	f1b3 6f70 	cmp.w	r3, #251658240	@ 0xf000000
 8004cf0:	d81a      	bhi.n	8004d28 <USB_CoreReset+0x4c>
    {
      return HAL_TIMEOUT;
    }
  } while ((USBx->GRSTCTL & USB_OTG_GRSTCTL_AHBIDL) == 0U);
 8004cf2:	6913      	ldr	r3, [r2, #16]
 8004cf4:	2b00      	cmp	r3, #0
 8004cf6:	daf5      	bge.n	8004ce4 <USB_CoreReset+0x8>

  count = 10U;
 8004cf8:	230a      	movs	r3, #10

  /* few cycles before setting core reset */
  while (count > 0U)
  {
    count--;
 8004cfa:	9301      	str	r3, [sp, #4]
  while (count > 0U)
 8004cfc:	9b01      	ldr	r3, [sp, #4]
 8004cfe:	b983      	cbnz	r3, 8004d22 <USB_CoreReset+0x46>
  }

  /* Core Soft Reset */
  USBx->GRSTCTL |= USB_OTG_GRSTCTL_CSRST;
 8004d00:	6913      	ldr	r3, [r2, #16]
 8004d02:	f043 0301 	orr.w	r3, r3, #1
 8004d06:	6113      	str	r3, [r2, #16]

  do
  {
    count++;
 8004d08:	9b01      	ldr	r3, [sp, #4]
 8004d0a:	3301      	adds	r3, #1
 8004d0c:	9301      	str	r3, [sp, #4]

    if (count > HAL_USB_TIMEOUT)
 8004d0e:	9b01      	ldr	r3, [sp, #4]
 8004d10:	f1b3 6f70 	cmp.w	r3, #251658240	@ 0xf000000
 8004d14:	d808      	bhi.n	8004d28 <USB_CoreReset+0x4c>
    {
      return HAL_TIMEOUT;
    }
  } while ((USBx->GRSTCTL & USB_OTG_GRSTCTL_CSRST) == USB_OTG_GRSTCTL_CSRST);
 8004d16:	6910      	ldr	r0, [r2, #16]
 8004d18:	f010 0001 	ands.w	r0, r0, #1
 8004d1c:	d1f4      	bne.n	8004d08 <USB_CoreReset+0x2c>

  return HAL_OK;
}
 8004d1e:	b002      	add	sp, #8
 8004d20:	4770      	bx	lr
    count--;
 8004d22:	9b01      	ldr	r3, [sp, #4]
 8004d24:	3b01      	subs	r3, #1
 8004d26:	e7e8      	b.n	8004cfa <USB_CoreReset+0x1e>
      return HAL_TIMEOUT;
 8004d28:	2003      	movs	r0, #3
 8004d2a:	e7f8      	b.n	8004d1e <USB_CoreReset+0x42>

08004d2c <USB_CoreInit>:
{
 8004d2c:	b084      	sub	sp, #16
 8004d2e:	b538      	push	{r3, r4, r5, lr}
 8004d30:	ad05      	add	r5, sp, #20
 8004d32:	e885 000e 	stmia.w	r5, {r1, r2, r3}
  if (cfg.phy_itface == USB_OTG_ULPI_PHY)
 8004d36:	f89d 3019 	ldrb.w	r3, [sp, #25]
 8004d3a:	2b01      	cmp	r3, #1
{
 8004d3c:	4604      	mov	r4, r0
  if (cfg.phy_itface == USB_OTG_ULPI_PHY)
 8004d3e:	d127      	bne.n	8004d90 <USB_CoreInit+0x64>
    USBx->GCCFG &= ~(USB_OTG_GCCFG_PWRDWN);
 8004d40:	6b83      	ldr	r3, [r0, #56]	@ 0x38
 8004d42:	f423 3380 	bic.w	r3, r3, #65536	@ 0x10000
 8004d46:	6383      	str	r3, [r0, #56]	@ 0x38
    USBx->GUSBCFG &= ~(USB_OTG_GUSBCFG_TSDPS | USB_OTG_GUSBCFG_ULPIFSLS | USB_OTG_GUSBCFG_PHYSEL);
 8004d48:	68c3      	ldr	r3, [r0, #12]
 8004d4a:	f423 0384 	bic.w	r3, r3, #4325376	@ 0x420000
 8004d4e:	f023 0340 	bic.w	r3, r3, #64	@ 0x40
 8004d52:	60c3      	str	r3, [r0, #12]
    USBx->GUSBCFG &= ~(USB_OTG_GUSBCFG_ULPIEVBUSD | USB_OTG_GUSBCFG_ULPIEVBUSI);
 8004d54:	68c3      	ldr	r3, [r0, #12]
 8004d56:	f423 1340 	bic.w	r3, r3, #3145728	@ 0x300000
 8004d5a:	60c3      	str	r3, [r0, #12]
    if (cfg.use_external_vbus == 1U)
 8004d5c:	f89d 3020 	ldrb.w	r3, [sp, #32]
 8004d60:	2b01      	cmp	r3, #1
      USBx->GUSBCFG |= USB_OTG_GUSBCFG_ULPIEVBUSD;
 8004d62:	bf02      	ittt	eq
 8004d64:	68c3      	ldreq	r3, [r0, #12]
 8004d66:	f443 1380 	orreq.w	r3, r3, #1048576	@ 0x100000
 8004d6a:	60c3      	streq	r3, [r0, #12]
    ret = USB_CoreReset(USBx);
 8004d6c:	f7ff ffb6 	bl	8004cdc <USB_CoreReset>
  if (cfg.dma_enable == 1U)
 8004d70:	f89d 3016 	ldrb.w	r3, [sp, #22]
 8004d74:	2b01      	cmp	r3, #1
 8004d76:	d107      	bne.n	8004d88 <USB_CoreInit+0x5c>
    USBx->GAHBCFG |= USB_OTG_GAHBCFG_HBSTLEN_2;
 8004d78:	68a3      	ldr	r3, [r4, #8]
 8004d7a:	f043 0306 	orr.w	r3, r3, #6
 8004d7e:	60a3      	str	r3, [r4, #8]
    USBx->GAHBCFG |= USB_OTG_GAHBCFG_DMAEN;
 8004d80:	68a3      	ldr	r3, [r4, #8]
 8004d82:	f043 0320 	orr.w	r3, r3, #32
 8004d86:	60a3      	str	r3, [r4, #8]
}
 8004d88:	e8bd 4038 	ldmia.w	sp!, {r3, r4, r5, lr}
 8004d8c:	b004      	add	sp, #16
 8004d8e:	4770      	bx	lr
    USBx->GUSBCFG |= USB_OTG_GUSBCFG_PHYSEL;
 8004d90:	68c3      	ldr	r3, [r0, #12]
 8004d92:	f043 0340 	orr.w	r3, r3, #64	@ 0x40
 8004d96:	60c3      	str	r3, [r0, #12]
    ret = USB_CoreReset(USBx);
 8004d98:	f7ff ffa0 	bl	8004cdc <USB_CoreReset>
    if (cfg.battery_charging_enable == 0U)
 8004d9c:	f89d 301d 	ldrb.w	r3, [sp, #29]
 8004da0:	b923      	cbnz	r3, 8004dac <USB_CoreInit+0x80>
      USBx->GCCFG |= USB_OTG_GCCFG_PWRDWN;
 8004da2:	6ba3      	ldr	r3, [r4, #56]	@ 0x38
 8004da4:	f443 3380 	orr.w	r3, r3, #65536	@ 0x10000
      USBx->GCCFG &= ~(USB_OTG_GCCFG_PWRDWN);
 8004da8:	63a3      	str	r3, [r4, #56]	@ 0x38
 8004daa:	e7e1      	b.n	8004d70 <USB_CoreInit+0x44>
 8004dac:	6ba3      	ldr	r3, [r4, #56]	@ 0x38
 8004dae:	f423 3380 	bic.w	r3, r3, #65536	@ 0x10000
 8004db2:	e7f9      	b.n	8004da8 <USB_CoreInit+0x7c>

08004db4 <USB_SetTurnaroundTime>:
  if (speed == USBD_FS_SPEED)
 8004db4:	2a02      	cmp	r2, #2
 8004db6:	d14a      	bne.n	8004e4e <USB_SetTurnaroundTime+0x9a>
    if ((hclk >= 14200000U) && (hclk < 15000000U))
 8004db8:	4b27      	ldr	r3, [pc, #156]	@ (8004e58 <USB_SetTurnaroundTime+0xa4>)
 8004dba:	4a28      	ldr	r2, [pc, #160]	@ (8004e5c <USB_SetTurnaroundTime+0xa8>)
 8004dbc:	440b      	add	r3, r1
 8004dbe:	4293      	cmp	r3, r2
 8004dc0:	d939      	bls.n	8004e36 <USB_SetTurnaroundTime+0x82>
    else if ((hclk >= 15000000U) && (hclk < 16000000U))
 8004dc2:	4b27      	ldr	r3, [pc, #156]	@ (8004e60 <USB_SetTurnaroundTime+0xac>)
 8004dc4:	4a27      	ldr	r2, [pc, #156]	@ (8004e64 <USB_SetTurnaroundTime+0xb0>)
 8004dc6:	440b      	add	r3, r1
 8004dc8:	4293      	cmp	r3, r2
 8004dca:	d936      	bls.n	8004e3a <USB_SetTurnaroundTime+0x86>
    else if ((hclk >= 16000000U) && (hclk < 17200000U))
 8004dcc:	4a26      	ldr	r2, [pc, #152]	@ (8004e68 <USB_SetTurnaroundTime+0xb4>)
 8004dce:	f5a1 0374 	sub.w	r3, r1, #15990784	@ 0xf40000
 8004dd2:	f5a3 5310 	sub.w	r3, r3, #9216	@ 0x2400
 8004dd6:	4293      	cmp	r3, r2
 8004dd8:	d931      	bls.n	8004e3e <USB_SetTurnaroundTime+0x8a>
    else if ((hclk >= 17200000U) && (hclk < 18500000U))
 8004dda:	4a24      	ldr	r2, [pc, #144]	@ (8004e6c <USB_SetTurnaroundTime+0xb8>)
 8004ddc:	f1a1 7383 	sub.w	r3, r1, #17170432	@ 0x1060000
 8004de0:	f5a3 43e7 	sub.w	r3, r3, #29568	@ 0x7380
 8004de4:	4293      	cmp	r3, r2
 8004de6:	d32c      	bcc.n	8004e42 <USB_SetTurnaroundTime+0x8e>
    else if ((hclk >= 18500000U) && (hclk < 20000000U))
 8004de8:	4b21      	ldr	r3, [pc, #132]	@ (8004e70 <USB_SetTurnaroundTime+0xbc>)
 8004dea:	4a22      	ldr	r2, [pc, #136]	@ (8004e74 <USB_SetTurnaroundTime+0xc0>)
 8004dec:	440b      	add	r3, r1
 8004dee:	4293      	cmp	r3, r2
 8004df0:	d929      	bls.n	8004e46 <USB_SetTurnaroundTime+0x92>
    else if ((hclk >= 20000000U) && (hclk < 21800000U))
 8004df2:	4b21      	ldr	r3, [pc, #132]	@ (8004e78 <USB_SetTurnaroundTime+0xc4>)
 8004df4:	4a21      	ldr	r2, [pc, #132]	@ (8004e7c <USB_SetTurnaroundTime+0xc8>)
 8004df6:	440b      	add	r3, r1
 8004df8:	4293      	cmp	r3, r2
 8004dfa:	d326      	bcc.n	8004e4a <USB_SetTurnaroundTime+0x96>
    else if ((hclk >= 21800000U) && (hclk < 24000000U))
 8004dfc:	4b20      	ldr	r3, [pc, #128]	@ (8004e80 <USB_SetTurnaroundTime+0xcc>)
 8004dfe:	4a21      	ldr	r2, [pc, #132]	@ (8004e84 <USB_SetTurnaroundTime+0xd0>)
 8004e00:	440b      	add	r3, r1
 8004e02:	4293      	cmp	r3, r2
 8004e04:	d323      	bcc.n	8004e4e <USB_SetTurnaroundTime+0x9a>
    else if ((hclk >= 24000000U) && (hclk < 27700000U))
 8004e06:	4a20      	ldr	r2, [pc, #128]	@ (8004e88 <USB_SetTurnaroundTime+0xd4>)
 8004e08:	f1a1 73b7 	sub.w	r3, r1, #23986176	@ 0x16e0000
 8004e0c:	f5a3 5358 	sub.w	r3, r3, #13824	@ 0x3600
 8004e10:	4293      	cmp	r3, r2
 8004e12:	d31e      	bcc.n	8004e52 <USB_SetTurnaroundTime+0x9e>
    else if ((hclk >= 27700000U) && (hclk < 32000000U))
 8004e14:	4b1d      	ldr	r3, [pc, #116]	@ (8004e8c <USB_SetTurnaroundTime+0xd8>)
      UsbTrd = 0x7U;
 8004e16:	4a1e      	ldr	r2, [pc, #120]	@ (8004e90 <USB_SetTurnaroundTime+0xdc>)
    else if ((hclk >= 27700000U) && (hclk < 32000000U))
 8004e18:	440b      	add	r3, r1
      UsbTrd = 0x7U;
 8004e1a:	4293      	cmp	r3, r2
 8004e1c:	bf2c      	ite	cs
 8004e1e:	2306      	movcs	r3, #6
 8004e20:	2307      	movcc	r3, #7
  USBx->GUSBCFG &= ~USB_OTG_GUSBCFG_TRDT;
 8004e22:	68c2      	ldr	r2, [r0, #12]
 8004e24:	f422 5270 	bic.w	r2, r2, #15360	@ 0x3c00
 8004e28:	60c2      	str	r2, [r0, #12]
  USBx->GUSBCFG |= (uint32_t)((UsbTrd << 10) & USB_OTG_GUSBCFG_TRDT);
 8004e2a:	68c2      	ldr	r2, [r0, #12]
 8004e2c:	ea42 2383 	orr.w	r3, r2, r3, lsl #10
 8004e30:	60c3      	str	r3, [r0, #12]
}
 8004e32:	2000      	movs	r0, #0
 8004e34:	4770      	bx	lr
      UsbTrd = 0xFU;
 8004e36:	230f      	movs	r3, #15
 8004e38:	e7f3      	b.n	8004e22 <USB_SetTurnaroundTime+0x6e>
      UsbTrd = 0xEU;
 8004e3a:	230e      	movs	r3, #14
 8004e3c:	e7f1      	b.n	8004e22 <USB_SetTurnaroundTime+0x6e>
      UsbTrd = 0xDU;
 8004e3e:	230d      	movs	r3, #13
 8004e40:	e7ef      	b.n	8004e22 <USB_SetTurnaroundTime+0x6e>
      UsbTrd = 0xCU;
 8004e42:	230c      	movs	r3, #12
 8004e44:	e7ed      	b.n	8004e22 <USB_SetTurnaroundTime+0x6e>
      UsbTrd = 0xBU;
 8004e46:	230b      	movs	r3, #11
 8004e48:	e7eb      	b.n	8004e22 <USB_SetTurnaroundTime+0x6e>
      UsbTrd = 0xAU;
 8004e4a:	230a      	movs	r3, #10
 8004e4c:	e7e9      	b.n	8004e22 <USB_SetTurnaroundTime+0x6e>
    UsbTrd = USBD_HS_TRDT_VALUE;
 8004e4e:	2309      	movs	r3, #9
 8004e50:	e7e7      	b.n	8004e22 <USB_SetTurnaroundTime+0x6e>
      UsbTrd = 0x8U;
 8004e52:	2308      	movs	r3, #8
 8004e54:	e7e5      	b.n	8004e22 <USB_SetTurnaroundTime+0x6e>
 8004e56:	bf00      	nop
 8004e58:	ff275340 	.word	0xff275340
 8004e5c:	000c34ff 	.word	0x000c34ff
 8004e60:	ff1b1e40 	.word	0xff1b1e40
 8004e64:	000f423f 	.word	0x000f423f
 8004e68:	00124f7f 	.word	0x00124f7f
 8004e6c:	0013d620 	.word	0x0013d620
 8004e70:	fee5b660 	.word	0xfee5b660
 8004e74:	0016e35f 	.word	0x0016e35f
 8004e78:	feced300 	.word	0xfeced300
 8004e7c:	001b7740 	.word	0x001b7740
 8004e80:	feb35bc0 	.word	0xfeb35bc0
 8004e84:	002191c0 	.word	0x002191c0
 8004e88:	00387520 	.word	0x00387520
 8004e8c:	fe5954e0 	.word	0xfe5954e0
 8004e90:	00419ce0 	.word	0x00419ce0

08004e94 <USB_EnableGlobalInt>:
  USBx->GAHBCFG |= USB_OTG_GAHBCFG_GINT;
 8004e94:	6883      	ldr	r3, [r0, #8]
 8004e96:	f043 0301 	orr.w	r3, r3, #1
 8004e9a:	6083      	str	r3, [r0, #8]
}
 8004e9c:	2000      	movs	r0, #0
 8004e9e:	4770      	bx	lr

08004ea0 <USB_DisableGlobalInt>:
  USBx->GAHBCFG &= ~USB_OTG_GAHBCFG_GINT;
 8004ea0:	6883      	ldr	r3, [r0, #8]
 8004ea2:	f023 0301 	bic.w	r3, r3, #1
 8004ea6:	6083      	str	r3, [r0, #8]
}
 8004ea8:	2000      	movs	r0, #0
 8004eaa:	4770      	bx	lr

08004eac <USB_SetCurrentMode>:
{
 8004eac:	b538      	push	{r3, r4, r5, lr}
  USBx->GUSBCFG &= ~(USB_OTG_GUSBCFG_FHMOD | USB_OTG_GUSBCFG_FDMOD);
 8004eae:	68c3      	ldr	r3, [r0, #12]
  if (mode == USB_HOST_MODE)
 8004eb0:	2901      	cmp	r1, #1
  USBx->GUSBCFG &= ~(USB_OTG_GUSBCFG_FHMOD | USB_OTG_GUSBCFG_FDMOD);
 8004eb2:	f023 43c0 	bic.w	r3, r3, #1610612736	@ 0x60000000
{
 8004eb6:	4605      	mov	r5, r0
 8004eb8:	460c      	mov	r4, r1
  USBx->GUSBCFG &= ~(USB_OTG_GUSBCFG_FHMOD | USB_OTG_GUSBCFG_FDMOD);
 8004eba:	60c3      	str	r3, [r0, #12]
  if (mode == USB_HOST_MODE)
 8004ebc:	d114      	bne.n	8004ee8 <USB_SetCurrentMode+0x3c>
    USBx->GUSBCFG |= USB_OTG_GUSBCFG_FHMOD;
 8004ebe:	68c3      	ldr	r3, [r0, #12]
 8004ec0:	f043 5300 	orr.w	r3, r3, #536870912	@ 0x20000000
 8004ec4:	60c3      	str	r3, [r0, #12]
  uint32_t ms = 0U;
 8004ec6:	2400      	movs	r4, #0
      HAL_Delay(10U);
 8004ec8:	200a      	movs	r0, #10
 8004eca:	f7fe fc4f 	bl	800376c <HAL_Delay>
  return ((USBx->GINTSTS) & 0x1U);
 8004ece:	696b      	ldr	r3, [r5, #20]
    } while ((USB_GetMode(USBx) != (uint32_t)USB_HOST_MODE) && (ms < HAL_USB_CURRENT_MODE_MAX_DELAY_MS));
 8004ed0:	07d9      	lsls	r1, r3, #31
      ms += 10U;
 8004ed2:	f104 040a 	add.w	r4, r4, #10
    } while ((USB_GetMode(USBx) != (uint32_t)USB_HOST_MODE) && (ms < HAL_USB_CURRENT_MODE_MAX_DELAY_MS));
 8004ed6:	d402      	bmi.n	8004ede <USB_SetCurrentMode+0x32>
 8004ed8:	2cc8      	cmp	r4, #200	@ 0xc8
 8004eda:	d1f5      	bne.n	8004ec8 <USB_SetCurrentMode+0x1c>
      ms += 10U;
 8004edc:	24c8      	movs	r4, #200	@ 0xc8
  if (ms == HAL_USB_CURRENT_MODE_MAX_DELAY_MS)
 8004ede:	f1a4 03c8 	sub.w	r3, r4, #200	@ 0xc8
 8004ee2:	4258      	negs	r0, r3
 8004ee4:	4158      	adcs	r0, r3
}
 8004ee6:	bd38      	pop	{r3, r4, r5, pc}
  else if (mode == USB_DEVICE_MODE)
 8004ee8:	b971      	cbnz	r1, 8004f08 <USB_SetCurrentMode+0x5c>
    USBx->GUSBCFG |= USB_OTG_GUSBCFG_FDMOD;
 8004eea:	68c3      	ldr	r3, [r0, #12]
 8004eec:	f043 4380 	orr.w	r3, r3, #1073741824	@ 0x40000000
 8004ef0:	60c3      	str	r3, [r0, #12]
      HAL_Delay(10U);
 8004ef2:	200a      	movs	r0, #10
 8004ef4:	f7fe fc3a 	bl	800376c <HAL_Delay>
  return ((USBx->GINTSTS) & 0x1U);
 8004ef8:	696b      	ldr	r3, [r5, #20]
    } while ((USB_GetMode(USBx) != (uint32_t)USB_DEVICE_MODE) && (ms < HAL_USB_CURRENT_MODE_MAX_DELAY_MS));
 8004efa:	07da      	lsls	r2, r3, #31
      ms += 10U;
 8004efc:	f104 040a 	add.w	r4, r4, #10
    } while ((USB_GetMode(USBx) != (uint32_t)USB_DEVICE_MODE) && (ms < HAL_USB_CURRENT_MODE_MAX_DELAY_MS));
 8004f00:	d5ed      	bpl.n	8004ede <USB_SetCurrentMode+0x32>
 8004f02:	2cc8      	cmp	r4, #200	@ 0xc8
 8004f04:	d1f5      	bne.n	8004ef2 <USB_SetCurrentMode+0x46>
 8004f06:	e7e9      	b.n	8004edc <USB_SetCurrentMode+0x30>
    return HAL_ERROR;
 8004f08:	2001      	movs	r0, #1
 8004f0a:	e7ec      	b.n	8004ee6 <USB_SetCurrentMode+0x3a>

08004f0c <USB_FlushTxFifo>:
{
 8004f0c:	b082      	sub	sp, #8
  __IO uint32_t count = 0U;
 8004f0e:	2300      	movs	r3, #0
{
 8004f10:	4602      	mov	r2, r0
  __IO uint32_t count = 0U;
 8004f12:	9301      	str	r3, [sp, #4]
    count++;
 8004f14:	9b01      	ldr	r3, [sp, #4]
 8004f16:	3301      	adds	r3, #1
 8004f18:	9301      	str	r3, [sp, #4]
    if (count > HAL_USB_TIMEOUT)
 8004f1a:	9b01      	ldr	r3, [sp, #4]
 8004f1c:	f1b3 6f70 	cmp.w	r3, #251658240	@ 0xf000000
 8004f20:	d815      	bhi.n	8004f4e <USB_FlushTxFifo+0x42>
  } while ((USBx->GRSTCTL & USB_OTG_GRSTCTL_AHBIDL) == 0U);
 8004f22:	6913      	ldr	r3, [r2, #16]
 8004f24:	2b00      	cmp	r3, #0
 8004f26:	daf5      	bge.n	8004f14 <USB_FlushTxFifo+0x8>
  USBx->GRSTCTL = (USB_OTG_GRSTCTL_TXFFLSH | (num << 6));
 8004f28:	0189      	lsls	r1, r1, #6
  count = 0U;
 8004f2a:	2300      	movs	r3, #0
  USBx->GRSTCTL = (USB_OTG_GRSTCTL_TXFFLSH | (num << 6));
 8004f2c:	f041 0120 	orr.w	r1, r1, #32
  count = 0U;
 8004f30:	9301      	str	r3, [sp, #4]
  USBx->GRSTCTL = (USB_OTG_GRSTCTL_TXFFLSH | (num << 6));
 8004f32:	6111      	str	r1, [r2, #16]
    count++;
 8004f34:	9b01      	ldr	r3, [sp, #4]
 8004f36:	3301      	adds	r3, #1
 8004f38:	9301      	str	r3, [sp, #4]
    if (count > HAL_USB_TIMEOUT)
 8004f3a:	9b01      	ldr	r3, [sp, #4]
 8004f3c:	f1b3 6f70 	cmp.w	r3, #251658240	@ 0xf000000
 8004f40:	d805      	bhi.n	8004f4e <USB_FlushTxFifo+0x42>
  } while ((USBx->GRSTCTL & USB_OTG_GRSTCTL_TXFFLSH) == USB_OTG_GRSTCTL_TXFFLSH);
 8004f42:	6910      	ldr	r0, [r2, #16]
 8004f44:	f010 0020 	ands.w	r0, r0, #32
 8004f48:	d1f4      	bne.n	8004f34 <USB_FlushTxFifo+0x28>
}
 8004f4a:	b002      	add	sp, #8
 8004f4c:	4770      	bx	lr
      return HAL_TIMEOUT;
 8004f4e:	2003      	movs	r0, #3
 8004f50:	e7fb      	b.n	8004f4a <USB_FlushTxFifo+0x3e>

08004f52 <USB_FlushRxFifo>:
{
 8004f52:	b082      	sub	sp, #8
  __IO uint32_t count = 0U;
 8004f54:	2300      	movs	r3, #0
{
 8004f56:	4602      	mov	r2, r0
  __IO uint32_t count = 0U;
 8004f58:	9301      	str	r3, [sp, #4]
    count++;
 8004f5a:	9b01      	ldr	r3, [sp, #4]
 8004f5c:	3301      	adds	r3, #1
 8004f5e:	9301      	str	r3, [sp, #4]
    if (count > HAL_USB_TIMEOUT)
 8004f60:	9b01      	ldr	r3, [sp, #4]
 8004f62:	f1b3 6f70 	cmp.w	r3, #251658240	@ 0xf000000
 8004f66:	d813      	bhi.n	8004f90 <USB_FlushRxFifo+0x3e>
  } while ((USBx->GRSTCTL & USB_OTG_GRSTCTL_AHBIDL) == 0U);
 8004f68:	6913      	ldr	r3, [r2, #16]
 8004f6a:	2b00      	cmp	r3, #0
 8004f6c:	daf5      	bge.n	8004f5a <USB_FlushRxFifo+0x8>
  count = 0U;
 8004f6e:	2300      	movs	r3, #0
 8004f70:	9301      	str	r3, [sp, #4]
  USBx->GRSTCTL = USB_OTG_GRSTCTL_RXFFLSH;
 8004f72:	2310      	movs	r3, #16
 8004f74:	6113      	str	r3, [r2, #16]
    count++;
 8004f76:	9b01      	ldr	r3, [sp, #4]
 8004f78:	3301      	adds	r3, #1
 8004f7a:	9301      	str	r3, [sp, #4]
    if (count > HAL_USB_TIMEOUT)
 8004f7c:	9b01      	ldr	r3, [sp, #4]
 8004f7e:	f1b3 6f70 	cmp.w	r3, #251658240	@ 0xf000000
 8004f82:	d805      	bhi.n	8004f90 <USB_FlushRxFifo+0x3e>
  } while ((USBx->GRSTCTL & USB_OTG_GRSTCTL_RXFFLSH) == USB_OTG_GRSTCTL_RXFFLSH);
 8004f84:	6910      	ldr	r0, [r2, #16]
 8004f86:	f010 0010 	ands.w	r0, r0, #16
 8004f8a:	d1f4      	bne.n	8004f76 <USB_FlushRxFifo+0x24>
}
 8004f8c:	b002      	add	sp, #8
 8004f8e:	4770      	bx	lr
      return HAL_TIMEOUT;
 8004f90:	2003      	movs	r0, #3
 8004f92:	e7fb      	b.n	8004f8c <USB_FlushRxFifo+0x3a>

08004f94 <USB_SetDevSpeed>:
  USBx_DEVICE->DCFG |= speed;
 8004f94:	f8d0 3800 	ldr.w	r3, [r0, #2048]	@ 0x800
 8004f98:	4319      	orrs	r1, r3
 8004f9a:	f8c0 1800 	str.w	r1, [r0, #2048]	@ 0x800
}
 8004f9e:	2000      	movs	r0, #0
 8004fa0:	4770      	bx	lr
	...

08004fa4 <USB_DevInit>:
{
 8004fa4:	b084      	sub	sp, #16
 8004fa6:	e92d 43f8 	stmdb	sp!, {r3, r4, r5, r6, r7, r8, r9, lr}
 8004faa:	4604      	mov	r4, r0
 8004fac:	a809      	add	r0, sp, #36	@ 0x24
 8004fae:	e880 000e 	stmia.w	r0, {r1, r2, r3}
  for (i = 0U; i < 15U; i++)
 8004fb2:	2300      	movs	r3, #0
 8004fb4:	f89d 6024 	ldrb.w	r6, [sp, #36]	@ 0x24
 8004fb8:	f89d 502e 	ldrb.w	r5, [sp, #46]	@ 0x2e
    USBx->DIEPTXF[i] = 0U;
 8004fbc:	4619      	mov	r1, r3
 8004fbe:	f103 0240 	add.w	r2, r3, #64	@ 0x40
 8004fc2:	eb04 0282 	add.w	r2, r4, r2, lsl #2
  for (i = 0U; i < 15U; i++)
 8004fc6:	3301      	adds	r3, #1
 8004fc8:	2b0f      	cmp	r3, #15
    USBx->DIEPTXF[i] = 0U;
 8004fca:	6051      	str	r1, [r2, #4]
  for (i = 0U; i < 15U; i++)
 8004fcc:	d1f7      	bne.n	8004fbe <USB_DevInit+0x1a>
    USBx_DEVICE->DCTL |= USB_OTG_DCTL_SDIS;
 8004fce:	f504 6700 	add.w	r7, r4, #2048	@ 0x800
  if (cfg.vbus_sensing_enable == 0U)
 8004fd2:	2d00      	cmp	r5, #0
 8004fd4:	d16c      	bne.n	80050b0 <USB_DevInit+0x10c>
    USBx_DEVICE->DCTL |= USB_OTG_DCTL_SDIS;
 8004fd6:	687b      	ldr	r3, [r7, #4]
 8004fd8:	f043 0302 	orr.w	r3, r3, #2
 8004fdc:	607b      	str	r3, [r7, #4]
    USBx->GCCFG |= USB_OTG_GCCFG_NOVBUSSENS;
 8004fde:	6ba3      	ldr	r3, [r4, #56]	@ 0x38
 8004fe0:	f443 1300 	orr.w	r3, r3, #2097152	@ 0x200000
 8004fe4:	63a3      	str	r3, [r4, #56]	@ 0x38
    USBx->GCCFG &= ~USB_OTG_GCCFG_VBUSBSEN;
 8004fe6:	6ba3      	ldr	r3, [r4, #56]	@ 0x38
 8004fe8:	f423 2300 	bic.w	r3, r3, #524288	@ 0x80000
 8004fec:	63a3      	str	r3, [r4, #56]	@ 0x38
    USBx->GCCFG &= ~USB_OTG_GCCFG_VBUSASEN;
 8004fee:	6ba3      	ldr	r3, [r4, #56]	@ 0x38
 8004ff0:	f423 2380 	bic.w	r3, r3, #262144	@ 0x40000
    USBx->GCCFG |= USB_OTG_GCCFG_VBUSBSEN;
 8004ff4:	63a3      	str	r3, [r4, #56]	@ 0x38
  USBx_PCGCCTL = 0U;
 8004ff6:	2300      	movs	r3, #0
 8004ff8:	f8c4 3e00 	str.w	r3, [r4, #3584]	@ 0xe00
  if (cfg.phy_itface == USB_OTG_ULPI_PHY)
 8004ffc:	f89d 3029 	ldrb.w	r3, [sp, #41]	@ 0x29
 8005000:	2b01      	cmp	r3, #1
 8005002:	d15f      	bne.n	80050c4 <USB_DevInit+0x120>
    if (cfg.speed == USBD_HS_SPEED)
 8005004:	f89d 1027 	ldrb.w	r1, [sp, #39]	@ 0x27
 8005008:	2900      	cmp	r1, #0
 800500a:	d159      	bne.n	80050c0 <USB_DevInit+0x11c>
    (void)USB_SetDevSpeed(USBx, USB_OTG_SPEED_FULL);
 800500c:	4620      	mov	r0, r4
 800500e:	f7ff ffc1 	bl	8004f94 <USB_SetDevSpeed>
  if (USB_FlushTxFifo(USBx, 0x10U) != HAL_OK) /* all Tx FIFOs */
 8005012:	2110      	movs	r1, #16
 8005014:	4620      	mov	r0, r4
 8005016:	f7ff ff79 	bl	8004f0c <USB_FlushTxFifo>
 800501a:	4601      	mov	r1, r0
  if (USB_FlushRxFifo(USBx) != HAL_OK)
 800501c:	4620      	mov	r0, r4
 800501e:	f7ff ff98 	bl	8004f52 <USB_FlushRxFifo>
 8005022:	4308      	orrs	r0, r1
 8005024:	b2c0      	uxtb	r0, r0
  USBx_DEVICE->DIEPMSK = 0U;
 8005026:	2300      	movs	r3, #0
  if (USB_FlushRxFifo(USBx) != HAL_OK)
 8005028:	3800      	subs	r0, #0
  USBx_DEVICE->DIEPMSK = 0U;
 800502a:	613b      	str	r3, [r7, #16]
  if (USB_FlushRxFifo(USBx) != HAL_OK)
 800502c:	bf18      	it	ne
 800502e:	2001      	movne	r0, #1
  USBx_DEVICE->DOEPMSK = 0U;
 8005030:	617b      	str	r3, [r7, #20]
  USBx_DEVICE->DAINTMSK = 0U;
 8005032:	f504 6210 	add.w	r2, r4, #2304	@ 0x900
 8005036:	61fb      	str	r3, [r7, #28]
      USBx_INEP(i)->DIEPCTL = 0U;
 8005038:	4619      	mov	r1, r3
        USBx_INEP(i)->DIEPCTL = USB_OTG_DIEPCTL_EPDIS | USB_OTG_DIEPCTL_SNAK;
 800503a:	f04f 4c90 	mov.w	ip, #1207959552	@ 0x48000000
        USBx_INEP(i)->DIEPCTL = USB_OTG_DIEPCTL_SNAK;
 800503e:	f04f 6e00 	mov.w	lr, #134217728	@ 0x8000000
    USBx_INEP(i)->DIEPINT  = 0xFB7FU;
 8005042:	f64f 387f 	movw	r8, #64383	@ 0xfb7f
  for (i = 0U; i < cfg.dev_endpoints; i++)
 8005046:	429e      	cmp	r6, r3
 8005048:	d83e      	bhi.n	80050c8 <USB_DevInit+0x124>
  for (i = 0U; i < cfg.dev_endpoints; i++)
 800504a:	2200      	movs	r2, #0
 800504c:	f504 6330 	add.w	r3, r4, #2816	@ 0xb00
      USBx_OUTEP(i)->DOEPCTL = 0U;
 8005050:	4611      	mov	r1, r2
        USBx_OUTEP(i)->DOEPCTL = USB_OTG_DOEPCTL_EPDIS | USB_OTG_DOEPCTL_SNAK;
 8005052:	f04f 4c90 	mov.w	ip, #1207959552	@ 0x48000000
        USBx_OUTEP(i)->DOEPCTL = USB_OTG_DOEPCTL_SNAK;
 8005056:	f04f 6e00 	mov.w	lr, #134217728	@ 0x8000000
    USBx_OUTEP(i)->DOEPINT  = 0xFB7FU;
 800505a:	f64f 387f 	movw	r8, #64383	@ 0xfb7f
  for (i = 0U; i < cfg.dev_endpoints; i++)
 800505e:	4296      	cmp	r6, r2
 8005060:	d845      	bhi.n	80050ee <USB_DevInit+0x14a>
  USBx_DEVICE->DIEPMSK &= ~(USB_OTG_DIEPMSK_TXFURM);
 8005062:	693b      	ldr	r3, [r7, #16]
 8005064:	f423 7380 	bic.w	r3, r3, #256	@ 0x100
 8005068:	613b      	str	r3, [r7, #16]
  USBx->GINTMSK = 0U;
 800506a:	2300      	movs	r3, #0
 800506c:	61a3      	str	r3, [r4, #24]
  USBx->GINTSTS = 0xBFFFFFFFU;
 800506e:	f06f 4380 	mvn.w	r3, #1073741824	@ 0x40000000
 8005072:	6163      	str	r3, [r4, #20]
  if (cfg.dma_enable == 0U)
 8005074:	f89d 3026 	ldrb.w	r3, [sp, #38]	@ 0x26
 8005078:	b91b      	cbnz	r3, 8005082 <USB_DevInit+0xde>
    USBx->GINTMSK |= USB_OTG_GINTMSK_RXFLVLM;
 800507a:	69a3      	ldr	r3, [r4, #24]
 800507c:	f043 0310 	orr.w	r3, r3, #16
 8005080:	61a3      	str	r3, [r4, #24]
  USBx->GINTMSK |= USB_OTG_GINTMSK_USBSUSPM | USB_OTG_GINTMSK_USBRST |
 8005082:	69a2      	ldr	r2, [r4, #24]
 8005084:	4b23      	ldr	r3, [pc, #140]	@ (8005114 <USB_DevInit+0x170>)
 8005086:	4313      	orrs	r3, r2
 8005088:	61a3      	str	r3, [r4, #24]
  if (cfg.Sof_enable != 0U)
 800508a:	f89d 302a 	ldrb.w	r3, [sp, #42]	@ 0x2a
 800508e:	b11b      	cbz	r3, 8005098 <USB_DevInit+0xf4>
    USBx->GINTMSK |= USB_OTG_GINTMSK_SOFM;
 8005090:	69a3      	ldr	r3, [r4, #24]
 8005092:	f043 0308 	orr.w	r3, r3, #8
 8005096:	61a3      	str	r3, [r4, #24]
  if (cfg.vbus_sensing_enable == 1U)
 8005098:	2d01      	cmp	r5, #1
    USBx->GINTMSK |= (USB_OTG_GINTMSK_SRQIM | USB_OTG_GINTMSK_OTGINT);
 800509a:	bf01      	itttt	eq
 800509c:	69a3      	ldreq	r3, [r4, #24]
 800509e:	f043 4380 	orreq.w	r3, r3, #1073741824	@ 0x40000000
 80050a2:	f043 0304 	orreq.w	r3, r3, #4
 80050a6:	61a3      	streq	r3, [r4, #24]
}
 80050a8:	e8bd 43f8 	ldmia.w	sp!, {r3, r4, r5, r6, r7, r8, r9, lr}
 80050ac:	b004      	add	sp, #16
 80050ae:	4770      	bx	lr
    USBx->GCCFG &= ~USB_OTG_GCCFG_NOVBUSSENS;
 80050b0:	6ba3      	ldr	r3, [r4, #56]	@ 0x38
 80050b2:	f423 1300 	bic.w	r3, r3, #2097152	@ 0x200000
 80050b6:	63a3      	str	r3, [r4, #56]	@ 0x38
    USBx->GCCFG |= USB_OTG_GCCFG_VBUSBSEN;
 80050b8:	6ba3      	ldr	r3, [r4, #56]	@ 0x38
 80050ba:	f443 2300 	orr.w	r3, r3, #524288	@ 0x80000
 80050be:	e799      	b.n	8004ff4 <USB_DevInit+0x50>
      (void)USB_SetDevSpeed(USBx, USB_OTG_SPEED_HIGH_IN_FULL);
 80050c0:	4619      	mov	r1, r3
 80050c2:	e7a3      	b.n	800500c <USB_DevInit+0x68>
    (void)USB_SetDevSpeed(USBx, USB_OTG_SPEED_FULL);
 80050c4:	2103      	movs	r1, #3
 80050c6:	e7a1      	b.n	800500c <USB_DevInit+0x68>
    if ((USBx_INEP(i)->DIEPCTL & USB_OTG_DIEPCTL_EPENA) == USB_OTG_DIEPCTL_EPENA)
 80050c8:	f8d2 9000 	ldr.w	r9, [r2]
 80050cc:	f1b9 0f00 	cmp.w	r9, #0
 80050d0:	da0b      	bge.n	80050ea <USB_DevInit+0x146>
      if (i == 0U)
 80050d2:	b93b      	cbnz	r3, 80050e4 <USB_DevInit+0x140>
        USBx_INEP(i)->DIEPCTL = USB_OTG_DIEPCTL_SNAK;
 80050d4:	f8c2 e000 	str.w	lr, [r2]
    USBx_INEP(i)->DIEPTSIZ = 0U;
 80050d8:	6111      	str	r1, [r2, #16]
  for (i = 0U; i < cfg.dev_endpoints; i++)
 80050da:	3301      	adds	r3, #1
    USBx_INEP(i)->DIEPINT  = 0xFB7FU;
 80050dc:	f8c2 8008 	str.w	r8, [r2, #8]
  for (i = 0U; i < cfg.dev_endpoints; i++)
 80050e0:	3220      	adds	r2, #32
 80050e2:	e7b0      	b.n	8005046 <USB_DevInit+0xa2>
        USBx_INEP(i)->DIEPCTL = USB_OTG_DIEPCTL_EPDIS | USB_OTG_DIEPCTL_SNAK;
 80050e4:	f8c2 c000 	str.w	ip, [r2]
 80050e8:	e7f6      	b.n	80050d8 <USB_DevInit+0x134>
      USBx_INEP(i)->DIEPCTL = 0U;
 80050ea:	6011      	str	r1, [r2, #0]
 80050ec:	e7f4      	b.n	80050d8 <USB_DevInit+0x134>
    if ((USBx_OUTEP(i)->DOEPCTL & USB_OTG_DOEPCTL_EPENA) == USB_OTG_DOEPCTL_EPENA)
 80050ee:	f8d3 9000 	ldr.w	r9, [r3]
 80050f2:	f1b9 0f00 	cmp.w	r9, #0
 80050f6:	da0b      	bge.n	8005110 <USB_DevInit+0x16c>
      if (i == 0U)
 80050f8:	b93a      	cbnz	r2, 800510a <USB_DevInit+0x166>
        USBx_OUTEP(i)->DOEPCTL = USB_OTG_DOEPCTL_SNAK;
 80050fa:	f8c3 e000 	str.w	lr, [r3]
    USBx_OUTEP(i)->DOEPTSIZ = 0U;
 80050fe:	6119      	str	r1, [r3, #16]
  for (i = 0U; i < cfg.dev_endpoints; i++)
 8005100:	3201      	adds	r2, #1
    USBx_OUTEP(i)->DOEPINT  = 0xFB7FU;
 8005102:	f8c3 8008 	str.w	r8, [r3, #8]
  for (i = 0U; i < cfg.dev_endpoints; i++)
 8005106:	3320      	adds	r3, #32
 8005108:	e7a9      	b.n	800505e <USB_DevInit+0xba>
        USBx_OUTEP(i)->DOEPCTL = USB_OTG_DOEPCTL_EPDIS | USB_OTG_DOEPCTL_SNAK;
 800510a:	f8c3 c000 	str.w	ip, [r3]
 800510e:	e7f6      	b.n	80050fe <USB_DevInit+0x15a>
      USBx_OUTEP(i)->DOEPCTL = 0U;
 8005110:	6019      	str	r1, [r3, #0]
 8005112:	e7f4      	b.n	80050fe <USB_DevInit+0x15a>
 8005114:	803c3800 	.word	0x803c3800

08005118 <USB_GetDevSpeed>:
  uint32_t DevEnumSpeed = USBx_DEVICE->DSTS & USB_OTG_DSTS_ENUMSPD;
 8005118:	f8d0 3808 	ldr.w	r3, [r0, #2056]	@ 0x808
  if (DevEnumSpeed == DSTS_ENUMSPD_HS_PHY_30MHZ_OR_60MHZ)
 800511c:	f013 0006 	ands.w	r0, r3, #6
 8005120:	d004      	beq.n	800512c <USB_GetDevSpeed+0x14>
    speed = 0xFU;
 8005122:	f013 0f02 	tst.w	r3, #2
 8005126:	bf14      	ite	ne
 8005128:	2002      	movne	r0, #2
 800512a:	200f      	moveq	r0, #15
}
 800512c:	4770      	bx	lr

0800512e <USB_ActivateEndpoint>:
{
 800512e:	b530      	push	{r4, r5, lr}
  uint32_t epnum = (uint32_t)ep->num;
 8005130:	780c      	ldrb	r4, [r1, #0]
    USBx_DEVICE->DAINTMSK |= USB_OTG_DAINTMSK_IEPM & (uint32_t)(1UL << (ep->num & EP_ADDR_MSK));
 8005132:	2201      	movs	r2, #1
 8005134:	f004 050f 	and.w	r5, r4, #15
 8005138:	40aa      	lsls	r2, r5
  if (ep->is_in == 1U)
 800513a:	784d      	ldrb	r5, [r1, #1]
 800513c:	2d01      	cmp	r5, #1
    USBx_DEVICE->DAINTMSK |= USB_OTG_DAINTMSK_IEPM & (uint32_t)(1UL << (ep->num & EP_ADDR_MSK));
 800513e:	f500 6300 	add.w	r3, r0, #2048	@ 0x800
    if ((USBx_INEP(epnum)->DIEPCTL & USB_OTG_DIEPCTL_USBAEP) == 0U)
 8005142:	eb00 1044 	add.w	r0, r0, r4, lsl #5
  if (ep->is_in == 1U)
 8005146:	d119      	bne.n	800517c <USB_ActivateEndpoint+0x4e>
    USBx_DEVICE->DAINTMSK |= USB_OTG_DAINTMSK_IEPM & (uint32_t)(1UL << (ep->num & EP_ADDR_MSK));
 8005148:	69dd      	ldr	r5, [r3, #28]
 800514a:	432a      	orrs	r2, r5
 800514c:	61da      	str	r2, [r3, #28]
    if ((USBx_INEP(epnum)->DIEPCTL & USB_OTG_DIEPCTL_USBAEP) == 0U)
 800514e:	f8d0 3900 	ldr.w	r3, [r0, #2304]	@ 0x900
 8005152:	041a      	lsls	r2, r3, #16
 8005154:	d410      	bmi.n	8005178 <USB_ActivateEndpoint+0x4a>
      USBx_INEP(epnum)->DIEPCTL |= (ep->maxpacket & USB_OTG_DIEPCTL_MPSIZ) |
 8005156:	688a      	ldr	r2, [r1, #8]
 8005158:	f8d0 5900 	ldr.w	r5, [r0, #2304]	@ 0x900
 800515c:	f3c2 030a 	ubfx	r3, r2, #0, #11
                                   ((uint32_t)ep->type << 18) | (epnum << 22) |
 8005160:	790a      	ldrb	r2, [r1, #4]
      USBx_INEP(epnum)->DIEPCTL |= (ep->maxpacket & USB_OTG_DIEPCTL_MPSIZ) |
 8005162:	432b      	orrs	r3, r5
 8005164:	ea43 4382 	orr.w	r3, r3, r2, lsl #18
 8005168:	ea43 5384 	orr.w	r3, r3, r4, lsl #22
 800516c:	f043 5380 	orr.w	r3, r3, #268435456	@ 0x10000000
 8005170:	f443 4300 	orr.w	r3, r3, #32768	@ 0x8000
 8005174:	f8c0 3900 	str.w	r3, [r0, #2304]	@ 0x900
}
 8005178:	2000      	movs	r0, #0
 800517a:	bd30      	pop	{r4, r5, pc}
    USBx_DEVICE->DAINTMSK |= USB_OTG_DAINTMSK_OEPM & ((uint32_t)(1UL << (ep->num & EP_ADDR_MSK)) << 16);
 800517c:	69dc      	ldr	r4, [r3, #28]
 800517e:	ea44 4202 	orr.w	r2, r4, r2, lsl #16
 8005182:	61da      	str	r2, [r3, #28]
    if (((USBx_OUTEP(epnum)->DOEPCTL) & USB_OTG_DOEPCTL_USBAEP) == 0U)
 8005184:	f8d0 3b00 	ldr.w	r3, [r0, #2816]	@ 0xb00
 8005188:	041b      	lsls	r3, r3, #16
 800518a:	d4f5      	bmi.n	8005178 <USB_ActivateEndpoint+0x4a>
      USBx_OUTEP(epnum)->DOEPCTL |= (ep->maxpacket & USB_OTG_DOEPCTL_MPSIZ) |
 800518c:	688b      	ldr	r3, [r1, #8]
 800518e:	f8d0 2b00 	ldr.w	r2, [r0, #2816]	@ 0xb00
 8005192:	f3c3 030a 	ubfx	r3, r3, #0, #11
 8005196:	4313      	orrs	r3, r2
                                    ((uint32_t)ep->type << 18) |
 8005198:	790a      	ldrb	r2, [r1, #4]
      USBx_OUTEP(epnum)->DOEPCTL |= (ep->maxpacket & USB_OTG_DOEPCTL_MPSIZ) |
 800519a:	ea43 4382 	orr.w	r3, r3, r2, lsl #18
 800519e:	f043 5380 	orr.w	r3, r3, #268435456	@ 0x10000000
 80051a2:	f443 4300 	orr.w	r3, r3, #32768	@ 0x8000
 80051a6:	f8c0 3b00 	str.w	r3, [r0, #2816]	@ 0xb00
 80051aa:	e7e5      	b.n	8005178 <USB_ActivateEndpoint+0x4a>

080051ac <USB_DeactivateEndpoint>:
{
 80051ac:	b510      	push	{r4, lr}
  uint32_t epnum = (uint32_t)ep->num;
 80051ae:	780a      	ldrb	r2, [r1, #0]
  if (ep->is_in == 1U)
 80051b0:	7849      	ldrb	r1, [r1, #1]
 80051b2:	2901      	cmp	r1, #1
    if ((USBx_INEP(epnum)->DIEPCTL & USB_OTG_DIEPCTL_EPENA) == USB_OTG_DIEPCTL_EPENA)
 80051b4:	eb00 1342 	add.w	r3, r0, r2, lsl #5
 80051b8:	f500 6000 	add.w	r0, r0, #2048	@ 0x800
 80051bc:	f002 020f 	and.w	r2, r2, #15
  if (ep->is_in == 1U)
 80051c0:	d122      	bne.n	8005208 <USB_DeactivateEndpoint+0x5c>
    if ((USBx_INEP(epnum)->DIEPCTL & USB_OTG_DIEPCTL_EPENA) == USB_OTG_DIEPCTL_EPENA)
 80051c2:	f8d3 1900 	ldr.w	r1, [r3, #2304]	@ 0x900
 80051c6:	2900      	cmp	r1, #0
 80051c8:	da0b      	bge.n	80051e2 <USB_DeactivateEndpoint+0x36>
      USBx_INEP(epnum)->DIEPCTL |= USB_OTG_DIEPCTL_SNAK;
 80051ca:	f8d3 1900 	ldr.w	r1, [r3, #2304]	@ 0x900
 80051ce:	f041 6100 	orr.w	r1, r1, #134217728	@ 0x8000000
 80051d2:	f8c3 1900 	str.w	r1, [r3, #2304]	@ 0x900
      USBx_INEP(epnum)->DIEPCTL |= USB_OTG_DIEPCTL_EPDIS;
 80051d6:	f8d3 1900 	ldr.w	r1, [r3, #2304]	@ 0x900
 80051da:	f041 4180 	orr.w	r1, r1, #1073741824	@ 0x40000000
 80051de:	f8c3 1900 	str.w	r1, [r3, #2304]	@ 0x900
    USBx_DEVICE->DEACHMSK &= ~(USB_OTG_DAINTMSK_IEPM & (uint32_t)(1UL << (ep->num & EP_ADDR_MSK)));
 80051e2:	6bc4      	ldr	r4, [r0, #60]	@ 0x3c
 80051e4:	2101      	movs	r1, #1
 80051e6:	fa01 f202 	lsl.w	r2, r1, r2
 80051ea:	ea24 0402 	bic.w	r4, r4, r2
 80051ee:	63c4      	str	r4, [r0, #60]	@ 0x3c
    USBx_DEVICE->DAINTMSK &= ~(USB_OTG_DAINTMSK_IEPM & (uint32_t)(1UL << (ep->num & EP_ADDR_MSK)));
 80051f0:	69c1      	ldr	r1, [r0, #28]
 80051f2:	ea21 0202 	bic.w	r2, r1, r2
 80051f6:	61c2      	str	r2, [r0, #28]
    USBx_INEP(epnum)->DIEPCTL &= ~(USB_OTG_DIEPCTL_USBAEP |
 80051f8:	f8d3 1900 	ldr.w	r1, [r3, #2304]	@ 0x900
 80051fc:	4a14      	ldr	r2, [pc, #80]	@ (8005250 <USB_DeactivateEndpoint+0xa4>)
 80051fe:	400a      	ands	r2, r1
 8005200:	f8c3 2900 	str.w	r2, [r3, #2304]	@ 0x900
}
 8005204:	2000      	movs	r0, #0
 8005206:	bd10      	pop	{r4, pc}
    if ((USBx_OUTEP(epnum)->DOEPCTL & USB_OTG_DOEPCTL_EPENA) == USB_OTG_DOEPCTL_EPENA)
 8005208:	f8d3 1b00 	ldr.w	r1, [r3, #2816]	@ 0xb00
 800520c:	2900      	cmp	r1, #0
 800520e:	da0b      	bge.n	8005228 <USB_DeactivateEndpoint+0x7c>
      USBx_OUTEP(epnum)->DOEPCTL |= USB_OTG_DOEPCTL_SNAK;
 8005210:	f8d3 1b00 	ldr.w	r1, [r3, #2816]	@ 0xb00
 8005214:	f041 6100 	orr.w	r1, r1, #134217728	@ 0x8000000
 8005218:	f8c3 1b00 	str.w	r1, [r3, #2816]	@ 0xb00
      USBx_OUTEP(epnum)->DOEPCTL |= USB_OTG_DOEPCTL_EPDIS;
 800521c:	f8d3 1b00 	ldr.w	r1, [r3, #2816]	@ 0xb00
 8005220:	f041 4180 	orr.w	r1, r1, #1073741824	@ 0x40000000
 8005224:	f8c3 1b00 	str.w	r1, [r3, #2816]	@ 0xb00
    USBx_DEVICE->DEACHMSK &= ~(USB_OTG_DAINTMSK_OEPM & ((uint32_t)(1UL << (ep->num & EP_ADDR_MSK)) << 16));
 8005228:	6bc4      	ldr	r4, [r0, #60]	@ 0x3c
 800522a:	f44f 3180 	mov.w	r1, #65536	@ 0x10000
 800522e:	fa01 f202 	lsl.w	r2, r1, r2
 8005232:	ea24 0402 	bic.w	r4, r4, r2
 8005236:	63c4      	str	r4, [r0, #60]	@ 0x3c
    USBx_DEVICE->DAINTMSK &= ~(USB_OTG_DAINTMSK_OEPM & ((uint32_t)(1UL << (ep->num & EP_ADDR_MSK)) << 16));
 8005238:	69c1      	ldr	r1, [r0, #28]
 800523a:	ea21 0202 	bic.w	r2, r1, r2
 800523e:	61c2      	str	r2, [r0, #28]
    USBx_OUTEP(epnum)->DOEPCTL &= ~(USB_OTG_DOEPCTL_USBAEP |
 8005240:	f8d3 1b00 	ldr.w	r1, [r3, #2816]	@ 0xb00
 8005244:	4a03      	ldr	r2, [pc, #12]	@ (8005254 <USB_DeactivateEndpoint+0xa8>)
 8005246:	400a      	ands	r2, r1
 8005248:	f8c3 2b00 	str.w	r2, [r3, #2816]	@ 0xb00
 800524c:	e7da      	b.n	8005204 <USB_DeactivateEndpoint+0x58>
 800524e:	bf00      	nop
 8005250:	ec337800 	.word	0xec337800
 8005254:	eff37800 	.word	0xeff37800

08005258 <USB_EPStopXfer>:
{
 8005258:	b082      	sub	sp, #8
  __IO uint32_t count = 0U;
 800525a:	2300      	movs	r3, #0
  if (ep->is_in == 1U)
 800525c:	784a      	ldrb	r2, [r1, #1]
  __IO uint32_t count = 0U;
 800525e:	9301      	str	r3, [sp, #4]
    if (((USBx_INEP(ep->num)->DIEPCTL) & USB_OTG_DIEPCTL_EPENA) == USB_OTG_DIEPCTL_EPENA)
 8005260:	780b      	ldrb	r3, [r1, #0]
  if (ep->is_in == 1U)
 8005262:	2a01      	cmp	r2, #1
    if (((USBx_INEP(ep->num)->DIEPCTL) & USB_OTG_DIEPCTL_EPENA) == USB_OTG_DIEPCTL_EPENA)
 8005264:	ea4f 1343 	mov.w	r3, r3, lsl #5
  if (ep->is_in == 1U)
 8005268:	d11e      	bne.n	80052a8 <USB_EPStopXfer+0x50>
    if (((USBx_INEP(ep->num)->DIEPCTL) & USB_OTG_DIEPCTL_EPENA) == USB_OTG_DIEPCTL_EPENA)
 800526a:	f500 6010 	add.w	r0, r0, #2304	@ 0x900
 800526e:	18c1      	adds	r1, r0, r3
 8005270:	58c2      	ldr	r2, [r0, r3]
 8005272:	2a00      	cmp	r2, #0
 8005274:	db02      	blt.n	800527c <USB_EPStopXfer+0x24>
  HAL_StatusTypeDef ret = HAL_OK;
 8005276:	2000      	movs	r0, #0
}
 8005278:	b002      	add	sp, #8
 800527a:	4770      	bx	lr
      USBx_INEP(ep->num)->DIEPCTL |= (USB_OTG_DIEPCTL_SNAK);
 800527c:	58c2      	ldr	r2, [r0, r3]
 800527e:	f042 6200 	orr.w	r2, r2, #134217728	@ 0x8000000
 8005282:	50c2      	str	r2, [r0, r3]
      USBx_INEP(ep->num)->DIEPCTL |= (USB_OTG_DIEPCTL_EPDIS);
 8005284:	58c2      	ldr	r2, [r0, r3]
 8005286:	f042 4280 	orr.w	r2, r2, #1073741824	@ 0x40000000
 800528a:	50c2      	str	r2, [r0, r3]
        if (count > 10000U)
 800528c:	f242 7210 	movw	r2, #10000	@ 0x2710
        count++;
 8005290:	9b01      	ldr	r3, [sp, #4]
 8005292:	3301      	adds	r3, #1
 8005294:	9301      	str	r3, [sp, #4]
        if (count > 10000U)
 8005296:	9b01      	ldr	r3, [sp, #4]
 8005298:	4293      	cmp	r3, r2
 800529a:	d901      	bls.n	80052a0 <USB_EPStopXfer+0x48>
          ret = HAL_ERROR;
 800529c:	2001      	movs	r0, #1
 800529e:	e7eb      	b.n	8005278 <USB_EPStopXfer+0x20>
      } while (((USBx_INEP(ep->num)->DIEPCTL) & USB_OTG_DIEPCTL_EPENA) ==  USB_OTG_DIEPCTL_EPENA);
 80052a0:	680b      	ldr	r3, [r1, #0]
 80052a2:	2b00      	cmp	r3, #0
 80052a4:	dbf4      	blt.n	8005290 <USB_EPStopXfer+0x38>
 80052a6:	e7e6      	b.n	8005276 <USB_EPStopXfer+0x1e>
    if (((USBx_OUTEP(ep->num)->DOEPCTL) & USB_OTG_DOEPCTL_EPENA) == USB_OTG_DOEPCTL_EPENA)
 80052a8:	f500 6030 	add.w	r0, r0, #2816	@ 0xb00
 80052ac:	18c1      	adds	r1, r0, r3
 80052ae:	58c2      	ldr	r2, [r0, r3]
 80052b0:	2a00      	cmp	r2, #0
 80052b2:	dae0      	bge.n	8005276 <USB_EPStopXfer+0x1e>
      USBx_OUTEP(ep->num)->DOEPCTL |= (USB_OTG_DOEPCTL_SNAK);
 80052b4:	58c2      	ldr	r2, [r0, r3]
 80052b6:	f042 6200 	orr.w	r2, r2, #134217728	@ 0x8000000
 80052ba:	50c2      	str	r2, [r0, r3]
      USBx_OUTEP(ep->num)->DOEPCTL |= (USB_OTG_DOEPCTL_EPDIS);
 80052bc:	58c2      	ldr	r2, [r0, r3]
 80052be:	f042 4280 	orr.w	r2, r2, #1073741824	@ 0x40000000
 80052c2:	50c2      	str	r2, [r0, r3]
        if (count > 10000U)
 80052c4:	f242 7210 	movw	r2, #10000	@ 0x2710
        count++;
 80052c8:	9b01      	ldr	r3, [sp, #4]
 80052ca:	3301      	adds	r3, #1
 80052cc:	9301      	str	r3, [sp, #4]
        if (count > 10000U)
 80052ce:	9b01      	ldr	r3, [sp, #4]
 80052d0:	4293      	cmp	r3, r2
 80052d2:	d8e3      	bhi.n	800529c <USB_EPStopXfer+0x44>
      } while (((USBx_OUTEP(ep->num)->DOEPCTL) & USB_OTG_DOEPCTL_EPENA) ==  USB_OTG_DOEPCTL_EPENA);
 80052d4:	680b      	ldr	r3, [r1, #0]
 80052d6:	2b00      	cmp	r3, #0
 80052d8:	dbf6      	blt.n	80052c8 <USB_EPStopXfer+0x70>
 80052da:	e7cc      	b.n	8005276 <USB_EPStopXfer+0x1e>

080052dc <USB_WritePacket>:
{
 80052dc:	b510      	push	{r4, lr}
 80052de:	f89d 4008 	ldrb.w	r4, [sp, #8]
  if (dma == 0U)
 80052e2:	b944      	cbnz	r4, 80052f6 <USB_WritePacket+0x1a>
    count32b = ((uint32_t)len + 3U) / 4U;
 80052e4:	3303      	adds	r3, #3
      USBx_DFIFO((uint32_t)ch_ep_num) = __UNALIGNED_UINT32_READ(pSrc);
 80052e6:	3201      	adds	r2, #1
    count32b = ((uint32_t)len + 3U) / 4U;
 80052e8:	089b      	lsrs	r3, r3, #2
      USBx_DFIFO((uint32_t)ch_ep_num) = __UNALIGNED_UINT32_READ(pSrc);
 80052ea:	eb00 3002 	add.w	r0, r0, r2, lsl #12
 80052ee:	eb01 0383 	add.w	r3, r1, r3, lsl #2
    for (i = 0U; i < count32b; i++)
 80052f2:	4299      	cmp	r1, r3
 80052f4:	d101      	bne.n	80052fa <USB_WritePacket+0x1e>
}
 80052f6:	2000      	movs	r0, #0
 80052f8:	bd10      	pop	{r4, pc}
      USBx_DFIFO((uint32_t)ch_ep_num) = __UNALIGNED_UINT32_READ(pSrc);
 80052fa:	f851 2b04 	ldr.w	r2, [r1], #4
 80052fe:	6002      	str	r2, [r0, #0]
    for (i = 0U; i < count32b; i++)
 8005300:	e7f7      	b.n	80052f2 <USB_WritePacket+0x16>
	...

08005304 <USB_EPStartXfer>:
{
 8005304:	e92d 41f3 	stmdb	sp!, {r0, r1, r4, r5, r6, r7, r8, lr}
  if (ep->is_in == 1U)
 8005308:	784b      	ldrb	r3, [r1, #1]
    if (ep->xfer_len == 0U)
 800530a:	690c      	ldr	r4, [r1, #16]
        if (ep->type == EP_TYPE_ISOC)
 800530c:	790f      	ldrb	r7, [r1, #4]
 800530e:	f8df e1f0 	ldr.w	lr, [pc, #496]	@ 8005500 <USB_EPStartXfer+0x1fc>
 8005312:	f8df 81f0 	ldr.w	r8, [pc, #496]	@ 8005504 <USB_EPStartXfer+0x200>
{
 8005316:	4616      	mov	r6, r2
  uint32_t epnum = (uint32_t)ep->num;
 8005318:	780a      	ldrb	r2, [r1, #0]
  if (ep->is_in == 1U)
 800531a:	2b01      	cmp	r3, #1
      USBx_INEP(epnum)->DIEPTSIZ &= ~(USB_OTG_DIEPTSIZ_PKTCNT);
 800531c:	eb00 1542 	add.w	r5, r0, r2, lsl #5
  if (ep->is_in == 1U)
 8005320:	f040 8097 	bne.w	8005452 <USB_EPStartXfer+0x14e>
      USBx_INEP(epnum)->DIEPTSIZ &= ~(USB_OTG_DIEPTSIZ_PKTCNT);
 8005324:	f505 6c10 	add.w	ip, r5, #2304	@ 0x900
 8005328:	f8dc 3010 	ldr.w	r3, [ip, #16]
    if (ep->xfer_len == 0U)
 800532c:	bb74      	cbnz	r4, 800538c <USB_EPStartXfer+0x88>
      USBx_INEP(epnum)->DIEPTSIZ &= ~(USB_OTG_DIEPTSIZ_PKTCNT);
 800532e:	ea03 030e 	and.w	r3, r3, lr
 8005332:	f8cc 3010 	str.w	r3, [ip, #16]
      USBx_INEP(epnum)->DIEPTSIZ |= (USB_OTG_DIEPTSIZ_PKTCNT & (1U << 19));
 8005336:	f8dc 3010 	ldr.w	r3, [ip, #16]
 800533a:	f443 2300 	orr.w	r3, r3, #524288	@ 0x80000
 800533e:	f8cc 3010 	str.w	r3, [ip, #16]
      USBx_INEP(epnum)->DIEPTSIZ &= ~(USB_OTG_DIEPTSIZ_XFRSIZ);
 8005342:	f8dc 3010 	ldr.w	r3, [ip, #16]
 8005346:	ea03 0308 	and.w	r3, r3, r8
    if (dma == 1U)
 800534a:	2e01      	cmp	r6, #1
      USBx_INEP(epnum)->DIEPTSIZ |= (USB_OTG_DIEPTSIZ_XFRSIZ & ep->xfer_len);
 800534c:	f8cc 3010 	str.w	r3, [ip, #16]
    if (dma == 1U)
 8005350:	d157      	bne.n	8005402 <USB_EPStartXfer+0xfe>
      if ((uint32_t)ep->dma_addr != 0U)
 8005352:	69cb      	ldr	r3, [r1, #28]
 8005354:	b10b      	cbz	r3, 800535a <USB_EPStartXfer+0x56>
        USBx_INEP(epnum)->DIEPDMA = (uint32_t)(ep->dma_addr);
 8005356:	f8cc 3014 	str.w	r3, [ip, #20]
      if (ep->type == EP_TYPE_ISOC)
 800535a:	2f01      	cmp	r7, #1
 800535c:	d10c      	bne.n	8005378 <USB_EPStartXfer+0x74>
        if ((USBx_DEVICE->DSTS & (1U << 8)) == 0U)
 800535e:	f8d0 3808 	ldr.w	r3, [r0, #2056]	@ 0x808
 8005362:	f413 7f80 	tst.w	r3, #256	@ 0x100
          USBx_INEP(epnum)->DIEPCTL |= USB_OTG_DIEPCTL_SODDFRM;
 8005366:	f8d5 3900 	ldr.w	r3, [r5, #2304]	@ 0x900
 800536a:	bf0c      	ite	eq
 800536c:	f043 5300 	orreq.w	r3, r3, #536870912	@ 0x20000000
          USBx_INEP(epnum)->DIEPCTL |= USB_OTG_DIEPCTL_SD0PID_SEVNFRM;
 8005370:	f043 5380 	orrne.w	r3, r3, #268435456	@ 0x10000000
 8005374:	f8c5 3900 	str.w	r3, [r5, #2304]	@ 0x900
      USBx_INEP(epnum)->DIEPCTL |= (USB_OTG_DIEPCTL_CNAK | USB_OTG_DIEPCTL_EPENA);
 8005378:	f8d5 3900 	ldr.w	r3, [r5, #2304]	@ 0x900
 800537c:	f043 4304 	orr.w	r3, r3, #2214592512	@ 0x84000000
 8005380:	f8c5 3900 	str.w	r3, [r5, #2304]	@ 0x900
}
 8005384:	2000      	movs	r0, #0
 8005386:	b002      	add	sp, #8
 8005388:	e8bd 81f0 	ldmia.w	sp!, {r4, r5, r6, r7, r8, pc}
      USBx_INEP(epnum)->DIEPTSIZ &= ~(USB_OTG_DIEPTSIZ_XFRSIZ);
 800538c:	ea03 0308 	and.w	r3, r3, r8
 8005390:	f8cc 3010 	str.w	r3, [ip, #16]
      USBx_INEP(epnum)->DIEPTSIZ &= ~(USB_OTG_DIEPTSIZ_PKTCNT);
 8005394:	f8dc 3010 	ldr.w	r3, [ip, #16]
 8005398:	ea03 030e 	and.w	r3, r3, lr
 800539c:	f8cc 3010 	str.w	r3, [ip, #16]
        if (ep->xfer_len > ep->maxpacket)
 80053a0:	688b      	ldr	r3, [r1, #8]
      if (epnum == 0U)
 80053a2:	b97a      	cbnz	r2, 80053c4 <USB_EPStartXfer+0xc0>
        if (ep->xfer_len > ep->maxpacket)
 80053a4:	42a3      	cmp	r3, r4
          ep->xfer_len = ep->maxpacket;
 80053a6:	bf38      	it	cc
 80053a8:	610b      	strcc	r3, [r1, #16]
        USBx_INEP(epnum)->DIEPTSIZ |= (USB_OTG_DIEPTSIZ_PKTCNT & (1U << 19));
 80053aa:	f8dc 3010 	ldr.w	r3, [ip, #16]
 80053ae:	f443 2300 	orr.w	r3, r3, #524288	@ 0x80000
          USBx_INEP(epnum)->DIEPTSIZ |= (USB_OTG_DIEPTSIZ_MULCNT & ((uint32_t)pktcnt << 29));
 80053b2:	f8cc 3010 	str.w	r3, [ip, #16]
      USBx_INEP(epnum)->DIEPTSIZ |= (USB_OTG_DIEPTSIZ_XFRSIZ & ep->xfer_len);
 80053b6:	690b      	ldr	r3, [r1, #16]
 80053b8:	f8dc 4010 	ldr.w	r4, [ip, #16]
 80053bc:	f3c3 0312 	ubfx	r3, r3, #0, #19
 80053c0:	4323      	orrs	r3, r4
 80053c2:	e7c2      	b.n	800534a <USB_EPStartXfer+0x46>
        pktcnt = (uint16_t)((ep->xfer_len + ep->maxpacket - 1U) / ep->maxpacket);
 80053c4:	441c      	add	r4, r3
 80053c6:	3c01      	subs	r4, #1
 80053c8:	fbb4 f4f3 	udiv	r4, r4, r3
        USBx_INEP(epnum)->DIEPTSIZ |= (USB_OTG_DIEPTSIZ_PKTCNT & ((uint32_t)pktcnt << 19));
 80053cc:	4b4b      	ldr	r3, [pc, #300]	@ (80054fc <USB_EPStartXfer+0x1f8>)
 80053ce:	f8dc e010 	ldr.w	lr, [ip, #16]
 80053d2:	fa1f f884 	uxth.w	r8, r4
 80053d6:	ea03 44c4 	and.w	r4, r3, r4, lsl #19
 80053da:	ea44 040e 	orr.w	r4, r4, lr
        if (ep->type == EP_TYPE_ISOC)
 80053de:	2f01      	cmp	r7, #1
        USBx_INEP(epnum)->DIEPTSIZ |= (USB_OTG_DIEPTSIZ_PKTCNT & ((uint32_t)pktcnt << 19));
 80053e0:	f8cc 4010 	str.w	r4, [ip, #16]
        if (ep->type == EP_TYPE_ISOC)
 80053e4:	d1e7      	bne.n	80053b6 <USB_EPStartXfer+0xb2>
          USBx_INEP(epnum)->DIEPTSIZ &= ~(USB_OTG_DIEPTSIZ_MULCNT);
 80053e6:	f8dc 3010 	ldr.w	r3, [ip, #16]
 80053ea:	f023 43c0 	bic.w	r3, r3, #1610612736	@ 0x60000000
 80053ee:	f8cc 3010 	str.w	r3, [ip, #16]
          USBx_INEP(epnum)->DIEPTSIZ |= (USB_OTG_DIEPTSIZ_MULCNT & ((uint32_t)pktcnt << 29));
 80053f2:	f8dc 4010 	ldr.w	r4, [ip, #16]
 80053f6:	ea4f 7348 	mov.w	r3, r8, lsl #29
 80053fa:	f003 43c0 	and.w	r3, r3, #1610612736	@ 0x60000000
 80053fe:	4323      	orrs	r3, r4
 8005400:	e7d7      	b.n	80053b2 <USB_EPStartXfer+0xae>
      USBx_INEP(epnum)->DIEPCTL |= (USB_OTG_DIEPCTL_CNAK | USB_OTG_DIEPCTL_EPENA);
 8005402:	f8d5 3900 	ldr.w	r3, [r5, #2304]	@ 0x900
      if (ep->type != EP_TYPE_ISOC)
 8005406:	2f01      	cmp	r7, #1
      USBx_INEP(epnum)->DIEPCTL |= (USB_OTG_DIEPCTL_CNAK | USB_OTG_DIEPCTL_EPENA);
 8005408:	f043 4304 	orr.w	r3, r3, #2214592512	@ 0x84000000
 800540c:	f8c5 3900 	str.w	r3, [r5, #2304]	@ 0x900
        if (ep->xfer_len > 0U)
 8005410:	690b      	ldr	r3, [r1, #16]
      if (ep->type != EP_TYPE_ISOC)
 8005412:	d00b      	beq.n	800542c <USB_EPStartXfer+0x128>
        if (ep->xfer_len > 0U)
 8005414:	2b00      	cmp	r3, #0
 8005416:	d0b5      	beq.n	8005384 <USB_EPStartXfer+0x80>
          USBx_DEVICE->DIEPEMPMSK |= 1UL << (ep->num & EP_ADDR_MSK);
 8005418:	f8d0 1834 	ldr.w	r1, [r0, #2100]	@ 0x834
 800541c:	f002 020f 	and.w	r2, r2, #15
 8005420:	2301      	movs	r3, #1
 8005422:	4093      	lsls	r3, r2
 8005424:	430b      	orrs	r3, r1
 8005426:	f8c0 3834 	str.w	r3, [r0, #2100]	@ 0x834
 800542a:	e7ab      	b.n	8005384 <USB_EPStartXfer+0x80>
        if ((USBx_DEVICE->DSTS & (1U << 8)) == 0U)
 800542c:	f8d0 4808 	ldr.w	r4, [r0, #2056]	@ 0x808
 8005430:	f414 7f80 	tst.w	r4, #256	@ 0x100
          USBx_INEP(epnum)->DIEPCTL |= USB_OTG_DIEPCTL_SODDFRM;
 8005434:	f8d5 4900 	ldr.w	r4, [r5, #2304]	@ 0x900
 8005438:	bf0c      	ite	eq
 800543a:	f044 5400 	orreq.w	r4, r4, #536870912	@ 0x20000000
          USBx_INEP(epnum)->DIEPCTL |= USB_OTG_DIEPCTL_SD0PID_SEVNFRM;
 800543e:	f044 5480 	orrne.w	r4, r4, #268435456	@ 0x10000000
 8005442:	f8c5 4900 	str.w	r4, [r5, #2304]	@ 0x900
        (void)USB_WritePacket(USBx, ep->xfer_buff, ep->num, (uint16_t)ep->xfer_len, dma);
 8005446:	9600      	str	r6, [sp, #0]
 8005448:	68c9      	ldr	r1, [r1, #12]
 800544a:	b29b      	uxth	r3, r3
 800544c:	f7ff ff46 	bl	80052dc <USB_WritePacket>
 8005450:	e798      	b.n	8005384 <USB_EPStartXfer+0x80>
    USBx_OUTEP(epnum)->DOEPTSIZ &= ~(USB_OTG_DOEPTSIZ_XFRSIZ);
 8005452:	f8d5 3b10 	ldr.w	r3, [r5, #2832]	@ 0xb10
 8005456:	ea03 0308 	and.w	r3, r3, r8
 800545a:	f8c5 3b10 	str.w	r3, [r5, #2832]	@ 0xb10
    USBx_OUTEP(epnum)->DOEPTSIZ &= ~(USB_OTG_DOEPTSIZ_PKTCNT);
 800545e:	f8d5 3b10 	ldr.w	r3, [r5, #2832]	@ 0xb10
 8005462:	ea03 030e 	and.w	r3, r3, lr
    USBx_OUTEP(epnum)->DOEPTSIZ &= ~(USB_OTG_DOEPTSIZ_XFRSIZ);
 8005466:	f505 6c30 	add.w	ip, r5, #2816	@ 0xb00
    USBx_OUTEP(epnum)->DOEPTSIZ &= ~(USB_OTG_DOEPTSIZ_PKTCNT);
 800546a:	f8cc 3010 	str.w	r3, [ip, #16]
        ep->xfer_len = ep->maxpacket;
 800546e:	688b      	ldr	r3, [r1, #8]
    if (epnum == 0U)
 8005470:	bb5a      	cbnz	r2, 80054ca <USB_EPStartXfer+0x1c6>
      if (ep->xfer_len > 0U)
 8005472:	b104      	cbz	r4, 8005476 <USB_EPStartXfer+0x172>
        ep->xfer_len = ep->maxpacket;
 8005474:	610b      	str	r3, [r1, #16]
      ep->xfer_size = ep->maxpacket;
 8005476:	620b      	str	r3, [r1, #32]
        USBx_OUTEP(epnum)->DOEPTSIZ |= (USB_OTG_DOEPTSIZ_XFRSIZ & ep->maxpacket);
 8005478:	f8dc 2010 	ldr.w	r2, [ip, #16]
 800547c:	f3c3 0312 	ubfx	r3, r3, #0, #19
 8005480:	4313      	orrs	r3, r2
 8005482:	f8cc 3010 	str.w	r3, [ip, #16]
        USBx_OUTEP(epnum)->DOEPTSIZ |= (USB_OTG_DOEPTSIZ_PKTCNT & (1U << 19));
 8005486:	f8dc 3010 	ldr.w	r3, [ip, #16]
 800548a:	f443 2300 	orr.w	r3, r3, #524288	@ 0x80000
    if (dma == 1U)
 800548e:	2e01      	cmp	r6, #1
        USBx_OUTEP(epnum)->DOEPTSIZ |= USB_OTG_DOEPTSIZ_XFRSIZ & ep->xfer_size;
 8005490:	f8cc 3010 	str.w	r3, [ip, #16]
    if (dma == 1U)
 8005494:	d103      	bne.n	800549e <USB_EPStartXfer+0x19a>
      if ((uint32_t)ep->xfer_buff != 0U)
 8005496:	68cb      	ldr	r3, [r1, #12]
 8005498:	b10b      	cbz	r3, 800549e <USB_EPStartXfer+0x19a>
        USBx_OUTEP(epnum)->DOEPDMA = (uint32_t)(ep->xfer_buff);
 800549a:	f8cc 3014 	str.w	r3, [ip, #20]
    if (ep->type == EP_TYPE_ISOC)
 800549e:	2f01      	cmp	r7, #1
 80054a0:	d10c      	bne.n	80054bc <USB_EPStartXfer+0x1b8>
      if ((USBx_DEVICE->DSTS & (1U << 8)) == 0U)
 80054a2:	f8d0 3808 	ldr.w	r3, [r0, #2056]	@ 0x808
 80054a6:	f413 7f80 	tst.w	r3, #256	@ 0x100
        USBx_OUTEP(epnum)->DOEPCTL |= USB_OTG_DOEPCTL_SODDFRM;
 80054aa:	f8d5 3b00 	ldr.w	r3, [r5, #2816]	@ 0xb00
 80054ae:	bf0c      	ite	eq
 80054b0:	f043 5300 	orreq.w	r3, r3, #536870912	@ 0x20000000
        USBx_OUTEP(epnum)->DOEPCTL |= USB_OTG_DOEPCTL_SD0PID_SEVNFRM;
 80054b4:	f043 5380 	orrne.w	r3, r3, #268435456	@ 0x10000000
 80054b8:	f8c5 3b00 	str.w	r3, [r5, #2816]	@ 0xb00
    USBx_OUTEP(epnum)->DOEPCTL |= (USB_OTG_DOEPCTL_CNAK | USB_OTG_DOEPCTL_EPENA);
 80054bc:	f8d5 3b00 	ldr.w	r3, [r5, #2816]	@ 0xb00
 80054c0:	f043 4304 	orr.w	r3, r3, #2214592512	@ 0x84000000
 80054c4:	f8c5 3b00 	str.w	r3, [r5, #2816]	@ 0xb00
 80054c8:	e75c      	b.n	8005384 <USB_EPStartXfer+0x80>
      if (ep->xfer_len == 0U)
 80054ca:	2c00      	cmp	r4, #0
 80054cc:	d0d4      	beq.n	8005478 <USB_EPStartXfer+0x174>
        pktcnt = (uint16_t)((ep->xfer_len + ep->maxpacket - 1U) / ep->maxpacket);
 80054ce:	441c      	add	r4, r3
        USBx_OUTEP(epnum)->DOEPTSIZ |= USB_OTG_DOEPTSIZ_PKTCNT & ((uint32_t)pktcnt << 19);
 80054d0:	4a0a      	ldr	r2, [pc, #40]	@ (80054fc <USB_EPStartXfer+0x1f8>)
 80054d2:	f8dc e010 	ldr.w	lr, [ip, #16]
        pktcnt = (uint16_t)((ep->xfer_len + ep->maxpacket - 1U) / ep->maxpacket);
 80054d6:	3c01      	subs	r4, #1
 80054d8:	fbb4 f4f3 	udiv	r4, r4, r3
 80054dc:	b2a4      	uxth	r4, r4
        USBx_OUTEP(epnum)->DOEPTSIZ |= USB_OTG_DOEPTSIZ_PKTCNT & ((uint32_t)pktcnt << 19);
 80054de:	ea02 42c4 	and.w	r2, r2, r4, lsl #19
        ep->xfer_size = ep->maxpacket * pktcnt;
 80054e2:	4363      	muls	r3, r4
        USBx_OUTEP(epnum)->DOEPTSIZ |= USB_OTG_DOEPTSIZ_PKTCNT & ((uint32_t)pktcnt << 19);
 80054e4:	ea42 020e 	orr.w	r2, r2, lr
        ep->xfer_size = ep->maxpacket * pktcnt;
 80054e8:	620b      	str	r3, [r1, #32]
        USBx_OUTEP(epnum)->DOEPTSIZ |= USB_OTG_DOEPTSIZ_PKTCNT & ((uint32_t)pktcnt << 19);
 80054ea:	f8cc 2010 	str.w	r2, [ip, #16]
        USBx_OUTEP(epnum)->DOEPTSIZ |= USB_OTG_DOEPTSIZ_XFRSIZ & ep->xfer_size;
 80054ee:	f8dc 2010 	ldr.w	r2, [ip, #16]
 80054f2:	f3c3 0312 	ubfx	r3, r3, #0, #19
 80054f6:	4313      	orrs	r3, r2
 80054f8:	e7c9      	b.n	800548e <USB_EPStartXfer+0x18a>
 80054fa:	bf00      	nop
 80054fc:	1ff80000 	.word	0x1ff80000
 8005500:	e007ffff 	.word	0xe007ffff
 8005504:	fff80000 	.word	0xfff80000

08005508 <USB_ReadPacket>:
{
 8005508:	4603      	mov	r3, r0
 800550a:	b570      	push	{r4, r5, r6, lr}
  for (i = 0U; i < count32b; i++)
 800550c:	2000      	movs	r0, #0
  uint32_t count32b = (uint32_t)len >> 2U;
 800550e:	0894      	lsrs	r4, r2, #2
    __UNALIGNED_UINT32_WRITE(pDest, USBx_DFIFO(0U));
 8005510:	f503 5580 	add.w	r5, r3, #4096	@ 0x1000
  uint16_t remaining_bytes = len % 4U;
 8005514:	f002 0203 	and.w	r2, r2, #3
  for (i = 0U; i < count32b; i++)
 8005518:	42a0      	cmp	r0, r4
 800551a:	d310      	bcc.n	800553e <USB_ReadPacket+0x36>
 800551c:	eb01 0084 	add.w	r0, r1, r4, lsl #2
  if (remaining_bytes != 0U)
 8005520:	b162      	cbz	r2, 800553c <USB_ReadPacket+0x34>
    __UNALIGNED_UINT32_WRITE(&pData, USBx_DFIFO(0U));
 8005522:	f503 5380 	add.w	r3, r3, #4096	@ 0x1000
 8005526:	681c      	ldr	r4, [r3, #0]
    i = 0U;
 8005528:	2300      	movs	r3, #0
      *(uint8_t *)pDest = (uint8_t)(pData >> (8U * (uint8_t)(i)));
 800552a:	00d9      	lsls	r1, r3, #3
 800552c:	fa24 f101 	lsr.w	r1, r4, r1
 8005530:	54c1      	strb	r1, [r0, r3]
      i++;
 8005532:	3301      	adds	r3, #1
    } while (remaining_bytes != 0U);
 8005534:	b299      	uxth	r1, r3
 8005536:	428a      	cmp	r2, r1
 8005538:	d1f7      	bne.n	800552a <USB_ReadPacket+0x22>
 800553a:	4410      	add	r0, r2
}
 800553c:	bd70      	pop	{r4, r5, r6, pc}
    __UNALIGNED_UINT32_WRITE(pDest, USBx_DFIFO(0U));
 800553e:	682e      	ldr	r6, [r5, #0]
 8005540:	f841 6020 	str.w	r6, [r1, r0, lsl #2]
  for (i = 0U; i < count32b; i++)
 8005544:	3001      	adds	r0, #1
 8005546:	e7e7      	b.n	8005518 <USB_ReadPacket+0x10>

08005548 <USB_EPSetStall>:
  if (ep->is_in == 1U)
 8005548:	784a      	ldrb	r2, [r1, #1]
  uint32_t epnum = (uint32_t)ep->num;
 800554a:	780b      	ldrb	r3, [r1, #0]
  if (ep->is_in == 1U)
 800554c:	2a01      	cmp	r2, #1
    if (((USBx_INEP(epnum)->DIEPCTL & USB_OTG_DIEPCTL_EPENA) == 0U) && (epnum != 0U))
 800554e:	eb00 1043 	add.w	r0, r0, r3, lsl #5
  if (ep->is_in == 1U)
 8005552:	d112      	bne.n	800557a <USB_EPSetStall+0x32>
    if (((USBx_INEP(epnum)->DIEPCTL & USB_OTG_DIEPCTL_EPENA) == 0U) && (epnum != 0U))
 8005554:	f8d0 2900 	ldr.w	r2, [r0, #2304]	@ 0x900
 8005558:	2a00      	cmp	r2, #0
 800555a:	db06      	blt.n	800556a <USB_EPSetStall+0x22>
 800555c:	b12b      	cbz	r3, 800556a <USB_EPSetStall+0x22>
      USBx_INEP(epnum)->DIEPCTL &= ~(USB_OTG_DIEPCTL_EPDIS);
 800555e:	f8d0 3900 	ldr.w	r3, [r0, #2304]	@ 0x900
 8005562:	f023 4380 	bic.w	r3, r3, #1073741824	@ 0x40000000
 8005566:	f8c0 3900 	str.w	r3, [r0, #2304]	@ 0x900
    USBx_INEP(epnum)->DIEPCTL |= USB_OTG_DIEPCTL_STALL;
 800556a:	f8d0 3900 	ldr.w	r3, [r0, #2304]	@ 0x900
 800556e:	f443 1300 	orr.w	r3, r3, #2097152	@ 0x200000
 8005572:	f8c0 3900 	str.w	r3, [r0, #2304]	@ 0x900
}
 8005576:	2000      	movs	r0, #0
 8005578:	4770      	bx	lr
    if (((USBx_OUTEP(epnum)->DOEPCTL & USB_OTG_DOEPCTL_EPENA) == 0U) && (epnum != 0U))
 800557a:	f8d0 2b00 	ldr.w	r2, [r0, #2816]	@ 0xb00
 800557e:	2a00      	cmp	r2, #0
 8005580:	db06      	blt.n	8005590 <USB_EPSetStall+0x48>
 8005582:	b12b      	cbz	r3, 8005590 <USB_EPSetStall+0x48>
      USBx_OUTEP(epnum)->DOEPCTL &= ~(USB_OTG_DOEPCTL_EPDIS);
 8005584:	f8d0 3b00 	ldr.w	r3, [r0, #2816]	@ 0xb00
 8005588:	f023 4380 	bic.w	r3, r3, #1073741824	@ 0x40000000
 800558c:	f8c0 3b00 	str.w	r3, [r0, #2816]	@ 0xb00
    USBx_OUTEP(epnum)->DOEPCTL |= USB_OTG_DOEPCTL_STALL;
 8005590:	f8d0 3b00 	ldr.w	r3, [r0, #2816]	@ 0xb00
 8005594:	f443 1300 	orr.w	r3, r3, #2097152	@ 0x200000
 8005598:	f8c0 3b00 	str.w	r3, [r0, #2816]	@ 0xb00
 800559c:	e7eb      	b.n	8005576 <USB_EPSetStall+0x2e>

0800559e <USB_EPClearStall>:
    USBx_INEP(epnum)->DIEPCTL &= ~USB_OTG_DIEPCTL_STALL;
 800559e:	780b      	ldrb	r3, [r1, #0]
  if (ep->is_in == 1U)
 80055a0:	784a      	ldrb	r2, [r1, #1]
    USBx_INEP(epnum)->DIEPCTL &= ~USB_OTG_DIEPCTL_STALL;
 80055a2:	eb00 1043 	add.w	r0, r0, r3, lsl #5
    if ((ep->type == EP_TYPE_INTR) || (ep->type == EP_TYPE_BULK))
 80055a6:	790b      	ldrb	r3, [r1, #4]
  if (ep->is_in == 1U)
 80055a8:	2a01      	cmp	r2, #1
    if ((ep->type == EP_TYPE_INTR) || (ep->type == EP_TYPE_BULK))
 80055aa:	f1a3 0302 	sub.w	r3, r3, #2
 80055ae:	b2db      	uxtb	r3, r3
  if (ep->is_in == 1U)
 80055b0:	d10f      	bne.n	80055d2 <USB_EPClearStall+0x34>
    USBx_INEP(epnum)->DIEPCTL &= ~USB_OTG_DIEPCTL_STALL;
 80055b2:	f8d0 2900 	ldr.w	r2, [r0, #2304]	@ 0x900
    if ((ep->type == EP_TYPE_INTR) || (ep->type == EP_TYPE_BULK))
 80055b6:	2b01      	cmp	r3, #1
    USBx_INEP(epnum)->DIEPCTL &= ~USB_OTG_DIEPCTL_STALL;
 80055b8:	f422 1200 	bic.w	r2, r2, #2097152	@ 0x200000
 80055bc:	f8c0 2900 	str.w	r2, [r0, #2304]	@ 0x900
    if ((ep->type == EP_TYPE_INTR) || (ep->type == EP_TYPE_BULK))
 80055c0:	d805      	bhi.n	80055ce <USB_EPClearStall+0x30>
      USBx_INEP(epnum)->DIEPCTL |= USB_OTG_DIEPCTL_SD0PID_SEVNFRM; /* DATA0 */
 80055c2:	f8d0 3900 	ldr.w	r3, [r0, #2304]	@ 0x900
 80055c6:	f043 5380 	orr.w	r3, r3, #268435456	@ 0x10000000
 80055ca:	f8c0 3900 	str.w	r3, [r0, #2304]	@ 0x900
}
 80055ce:	2000      	movs	r0, #0
 80055d0:	4770      	bx	lr
    USBx_OUTEP(epnum)->DOEPCTL &= ~USB_OTG_DOEPCTL_STALL;
 80055d2:	f8d0 2b00 	ldr.w	r2, [r0, #2816]	@ 0xb00
 80055d6:	f422 1200 	bic.w	r2, r2, #2097152	@ 0x200000
    if ((ep->type == EP_TYPE_INTR) || (ep->type == EP_TYPE_BULK))
 80055da:	2b01      	cmp	r3, #1
    USBx_OUTEP(epnum)->DOEPCTL &= ~USB_OTG_DOEPCTL_STALL;
 80055dc:	f8c0 2b00 	str.w	r2, [r0, #2816]	@ 0xb00
      USBx_OUTEP(epnum)->DOEPCTL |= USB_OTG_DOEPCTL_SD0PID_SEVNFRM; /* DATA0 */
 80055e0:	bf9e      	ittt	ls
 80055e2:	f8d0 3b00 	ldrls.w	r3, [r0, #2816]	@ 0xb00
 80055e6:	f043 5380 	orrls.w	r3, r3, #268435456	@ 0x10000000
 80055ea:	f8c0 3b00 	strls.w	r3, [r0, #2816]	@ 0xb00
 80055ee:	e7ee      	b.n	80055ce <USB_EPClearStall+0x30>

080055f0 <USB_SetDevAddress>:
  USBx_DEVICE->DCFG &= ~(USB_OTG_DCFG_DAD);
 80055f0:	f8d0 3800 	ldr.w	r3, [r0, #2048]	@ 0x800
 80055f4:	f423 63fe 	bic.w	r3, r3, #2032	@ 0x7f0
 80055f8:	f8c0 3800 	str.w	r3, [r0, #2048]	@ 0x800
  USBx_DEVICE->DCFG |= ((uint32_t)address << 4) & USB_OTG_DCFG_DAD;
 80055fc:	f8d0 3800 	ldr.w	r3, [r0, #2048]	@ 0x800
 8005600:	0109      	lsls	r1, r1, #4
 8005602:	f401 61fe 	and.w	r1, r1, #2032	@ 0x7f0
 8005606:	4319      	orrs	r1, r3
 8005608:	f8c0 1800 	str.w	r1, [r0, #2048]	@ 0x800
}
 800560c:	2000      	movs	r0, #0
 800560e:	4770      	bx	lr

08005610 <USB_DevConnect>:
  USBx_PCGCCTL &= ~(USB_OTG_PCGCCTL_STOPCLK | USB_OTG_PCGCCTL_GATECLK);
 8005610:	f8d0 3e00 	ldr.w	r3, [r0, #3584]	@ 0xe00
 8005614:	f023 0303 	bic.w	r3, r3, #3
 8005618:	f8c0 3e00 	str.w	r3, [r0, #3584]	@ 0xe00
  USBx_DEVICE->DCTL &= ~USB_OTG_DCTL_SDIS;
 800561c:	f8d0 3804 	ldr.w	r3, [r0, #2052]	@ 0x804
 8005620:	f023 0302 	bic.w	r3, r3, #2
 8005624:	f8c0 3804 	str.w	r3, [r0, #2052]	@ 0x804
}
 8005628:	2000      	movs	r0, #0
 800562a:	4770      	bx	lr

0800562c <USB_DevDisconnect>:
  USBx_PCGCCTL &= ~(USB_OTG_PCGCCTL_STOPCLK | USB_OTG_PCGCCTL_GATECLK);
 800562c:	f8d0 3e00 	ldr.w	r3, [r0, #3584]	@ 0xe00
 8005630:	f023 0303 	bic.w	r3, r3, #3
 8005634:	f8c0 3e00 	str.w	r3, [r0, #3584]	@ 0xe00
  USBx_DEVICE->DCTL |= USB_OTG_DCTL_SDIS;
 8005638:	f8d0 3804 	ldr.w	r3, [r0, #2052]	@ 0x804
 800563c:	f043 0302 	orr.w	r3, r3, #2
 8005640:	f8c0 3804 	str.w	r3, [r0, #2052]	@ 0x804
}
 8005644:	2000      	movs	r0, #0
 8005646:	4770      	bx	lr

08005648 <USB_ReadInterrupts>:
  tmpreg = USBx->GINTSTS;
 8005648:	6942      	ldr	r2, [r0, #20]
  tmpreg &= USBx->GINTMSK;
 800564a:	6980      	ldr	r0, [r0, #24]
}
 800564c:	4010      	ands	r0, r2
 800564e:	4770      	bx	lr

08005650 <USB_ReadDevAllOutEpInterrupt>:
  tmpreg  = USBx_DEVICE->DAINT;
 8005650:	f8d0 3818 	ldr.w	r3, [r0, #2072]	@ 0x818
 8005654:	f500 6000 	add.w	r0, r0, #2048	@ 0x800
  tmpreg &= USBx_DEVICE->DAINTMSK;
 8005658:	69c0      	ldr	r0, [r0, #28]
 800565a:	4018      	ands	r0, r3
}
 800565c:	0c00      	lsrs	r0, r0, #16
 800565e:	4770      	bx	lr

08005660 <USB_ReadDevAllInEpInterrupt>:
  tmpreg  = USBx_DEVICE->DAINT;
 8005660:	f8d0 3818 	ldr.w	r3, [r0, #2072]	@ 0x818
 8005664:	f500 6000 	add.w	r0, r0, #2048	@ 0x800
  tmpreg &= USBx_DEVICE->DAINTMSK;
 8005668:	69c0      	ldr	r0, [r0, #28]
 800566a:	4018      	ands	r0, r3
}
 800566c:	b280      	uxth	r0, r0
 800566e:	4770      	bx	lr

08005670 <USB_ReadDevOutEPInterrupt>:
  tmpreg  = USBx_OUTEP((uint32_t)epnum)->DOEPINT;
 8005670:	eb00 1141 	add.w	r1, r0, r1, lsl #5
  tmpreg &= USBx_DEVICE->DOEPMSK;
 8005674:	f500 6000 	add.w	r0, r0, #2048	@ 0x800
  tmpreg  = USBx_OUTEP((uint32_t)epnum)->DOEPINT;
 8005678:	f8d1 2b08 	ldr.w	r2, [r1, #2824]	@ 0xb08
  tmpreg &= USBx_DEVICE->DOEPMSK;
 800567c:	6940      	ldr	r0, [r0, #20]
}
 800567e:	4010      	ands	r0, r2
 8005680:	4770      	bx	lr

08005682 <USB_ReadDevInEPInterrupt>:
  msk = USBx_DEVICE->DIEPMSK;
 8005682:	f8d0 2810 	ldr.w	r2, [r0, #2064]	@ 0x810
  emp = USBx_DEVICE->DIEPEMPMSK;
 8005686:	f8d0 3834 	ldr.w	r3, [r0, #2100]	@ 0x834
  tmpreg = USBx_INEP((uint32_t)epnum)->DIEPINT & msk;
 800568a:	eb00 1041 	add.w	r0, r0, r1, lsl #5
  msk |= ((emp >> (epnum & EP_ADDR_MSK)) & 0x1U) << 7;
 800568e:	f001 010f 	and.w	r1, r1, #15
 8005692:	40cb      	lsrs	r3, r1
  tmpreg = USBx_INEP((uint32_t)epnum)->DIEPINT & msk;
 8005694:	f500 6010 	add.w	r0, r0, #2304	@ 0x900
  msk |= ((emp >> (epnum & EP_ADDR_MSK)) & 0x1U) << 7;
 8005698:	01db      	lsls	r3, r3, #7
  tmpreg = USBx_INEP((uint32_t)epnum)->DIEPINT & msk;
 800569a:	6880      	ldr	r0, [r0, #8]
  msk |= ((emp >> (epnum & EP_ADDR_MSK)) & 0x1U) << 7;
 800569c:	b2db      	uxtb	r3, r3
 800569e:	4313      	orrs	r3, r2
}
 80056a0:	4018      	ands	r0, r3
 80056a2:	4770      	bx	lr

080056a4 <USB_GetMode>:
  return ((USBx->GINTSTS) & 0x1U);
 80056a4:	6940      	ldr	r0, [r0, #20]
}
 80056a6:	f000 0001 	and.w	r0, r0, #1
 80056aa:	4770      	bx	lr

080056ac <USB_ActivateSetup>:
  USBx_INEP(0U)->DIEPCTL &= ~USB_OTG_DIEPCTL_MPSIZ;
 80056ac:	f8d0 3900 	ldr.w	r3, [r0, #2304]	@ 0x900
 80056b0:	f36f 030a 	bfc	r3, #0, #11
 80056b4:	f8c0 3900 	str.w	r3, [r0, #2304]	@ 0x900
  USBx_DEVICE->DCTL |= USB_OTG_DCTL_CGINAK;
 80056b8:	f8d0 3804 	ldr.w	r3, [r0, #2052]	@ 0x804
 80056bc:	f443 7380 	orr.w	r3, r3, #256	@ 0x100
 80056c0:	f8c0 3804 	str.w	r3, [r0, #2052]	@ 0x804
}
 80056c4:	2000      	movs	r0, #0
 80056c6:	4770      	bx	lr

080056c8 <USB_EP0_OutStart>:
{
 80056c8:	b530      	push	{r4, r5, lr}
  uint32_t gSNPSiD = *(__IO const uint32_t *)(&USBx->CID + 0x1U);
 80056ca:	6c05      	ldr	r5, [r0, #64]	@ 0x40
  if (gSNPSiD > USB_OTG_CORE_ID_300A)
 80056cc:	4c10      	ldr	r4, [pc, #64]	@ (8005710 <USB_EP0_OutStart+0x48>)
 80056ce:	42a5      	cmp	r5, r4
    if ((USBx_OUTEP(0U)->DOEPCTL & USB_OTG_DOEPCTL_EPENA) == USB_OTG_DOEPCTL_EPENA)
 80056d0:	f500 6330 	add.w	r3, r0, #2816	@ 0xb00
  if (gSNPSiD > USB_OTG_CORE_ID_300A)
 80056d4:	d903      	bls.n	80056de <USB_EP0_OutStart+0x16>
    if ((USBx_OUTEP(0U)->DOEPCTL & USB_OTG_DOEPCTL_EPENA) == USB_OTG_DOEPCTL_EPENA)
 80056d6:	f8d0 4b00 	ldr.w	r4, [r0, #2816]	@ 0xb00
 80056da:	2c00      	cmp	r4, #0
 80056dc:	db16      	blt.n	800570c <USB_EP0_OutStart+0x44>
  USBx_OUTEP(0U)->DOEPTSIZ = 0U;
 80056de:	2400      	movs	r4, #0
 80056e0:	611c      	str	r4, [r3, #16]
  USBx_OUTEP(0U)->DOEPTSIZ |= (USB_OTG_DOEPTSIZ_PKTCNT & (1U << 19));
 80056e2:	691c      	ldr	r4, [r3, #16]
 80056e4:	f444 2400 	orr.w	r4, r4, #524288	@ 0x80000
 80056e8:	611c      	str	r4, [r3, #16]
  USBx_OUTEP(0U)->DOEPTSIZ |= (3U * 8U);
 80056ea:	691c      	ldr	r4, [r3, #16]
 80056ec:	f044 0418 	orr.w	r4, r4, #24
 80056f0:	611c      	str	r4, [r3, #16]
  USBx_OUTEP(0U)->DOEPTSIZ |=  USB_OTG_DOEPTSIZ_STUPCNT;
 80056f2:	691c      	ldr	r4, [r3, #16]
  if (dma == 1U)
 80056f4:	2901      	cmp	r1, #1
  USBx_OUTEP(0U)->DOEPTSIZ |=  USB_OTG_DOEPTSIZ_STUPCNT;
 80056f6:	f044 44c0 	orr.w	r4, r4, #1610612736	@ 0x60000000
 80056fa:	611c      	str	r4, [r3, #16]
    USBx_OUTEP(0U)->DOEPDMA = (uint32_t)psetup;
 80056fc:	bf01      	itttt	eq
 80056fe:	615a      	streq	r2, [r3, #20]
    USBx_OUTEP(0U)->DOEPCTL |= USB_OTG_DOEPCTL_EPENA | USB_OTG_DOEPCTL_USBAEP;
 8005700:	f8d0 3b00 	ldreq.w	r3, [r0, #2816]	@ 0xb00
 8005704:	f043 2380 	orreq.w	r3, r3, #2147516416	@ 0x80008000
 8005708:	f8c0 3b00 	streq.w	r3, [r0, #2816]	@ 0xb00
}
 800570c:	2000      	movs	r0, #0
 800570e:	bd30      	pop	{r4, r5, pc}
 8005710:	4f54300a 	.word	0x4f54300a

08005714 <main>:




int main(void)
{
 8005714:	b508      	push	{r3, lr}
  hwInit();
 8005716:	f7fd ffc3 	bl	80036a0 <hwInit>
  apInit();
 800571a:	f7fb fc71 	bl	8001000 <apInit>

  apMain();
 800571e:	f7fb fc7f 	bl	8001020 <apMain>

  return 0;
}
 8005722:	2000      	movs	r0, #0
 8005724:	bd08      	pop	{r3, pc}

08005726 <sulp>:
 8005726:	b570      	push	{r4, r5, r6, lr}
 8005728:	4604      	mov	r4, r0
 800572a:	460d      	mov	r5, r1
 800572c:	ec45 4b10 	vmov	d0, r4, r5
 8005730:	4616      	mov	r6, r2
 8005732:	f002 f8c3 	bl	80078bc <__ulp>
 8005736:	ec51 0b10 	vmov	r0, r1, d0
 800573a:	b17e      	cbz	r6, 800575c <sulp+0x36>
 800573c:	f3c5 530a 	ubfx	r3, r5, #20, #11
 8005740:	f1c3 036b 	rsb	r3, r3, #107	@ 0x6b
 8005744:	2b00      	cmp	r3, #0
 8005746:	dd09      	ble.n	800575c <sulp+0x36>
 8005748:	051b      	lsls	r3, r3, #20
 800574a:	f103 557f 	add.w	r5, r3, #1069547520	@ 0x3fc00000
 800574e:	2400      	movs	r4, #0
 8005750:	f505 1540 	add.w	r5, r5, #3145728	@ 0x300000
 8005754:	4622      	mov	r2, r4
 8005756:	462b      	mov	r3, r5
 8005758:	f7fa ff66 	bl	8000628 <__aeabi_dmul>
 800575c:	ec41 0b10 	vmov	d0, r0, r1
 8005760:	bd70      	pop	{r4, r5, r6, pc}
 8005762:	0000      	movs	r0, r0
 8005764:	0000      	movs	r0, r0
	...

08005768 <_strtod_l>:
 8005768:	e92d 4ff0 	stmdb	sp!, {r4, r5, r6, r7, r8, r9, sl, fp, lr}
 800576c:	b09f      	sub	sp, #124	@ 0x7c
 800576e:	460c      	mov	r4, r1
 8005770:	9217      	str	r2, [sp, #92]	@ 0x5c
 8005772:	2200      	movs	r2, #0
 8005774:	921a      	str	r2, [sp, #104]	@ 0x68
 8005776:	9005      	str	r0, [sp, #20]
 8005778:	f04f 0a00 	mov.w	sl, #0
 800577c:	f04f 0b00 	mov.w	fp, #0
 8005780:	460a      	mov	r2, r1
 8005782:	9219      	str	r2, [sp, #100]	@ 0x64
 8005784:	7811      	ldrb	r1, [r2, #0]
 8005786:	292b      	cmp	r1, #43	@ 0x2b
 8005788:	d04a      	beq.n	8005820 <_strtod_l+0xb8>
 800578a:	d838      	bhi.n	80057fe <_strtod_l+0x96>
 800578c:	290d      	cmp	r1, #13
 800578e:	d832      	bhi.n	80057f6 <_strtod_l+0x8e>
 8005790:	2908      	cmp	r1, #8
 8005792:	d832      	bhi.n	80057fa <_strtod_l+0x92>
 8005794:	2900      	cmp	r1, #0
 8005796:	d03b      	beq.n	8005810 <_strtod_l+0xa8>
 8005798:	2200      	movs	r2, #0
 800579a:	920e      	str	r2, [sp, #56]	@ 0x38
 800579c:	9d19      	ldr	r5, [sp, #100]	@ 0x64
 800579e:	782a      	ldrb	r2, [r5, #0]
 80057a0:	2a30      	cmp	r2, #48	@ 0x30
 80057a2:	f040 80b2 	bne.w	800590a <_strtod_l+0x1a2>
 80057a6:	786a      	ldrb	r2, [r5, #1]
 80057a8:	f002 02df 	and.w	r2, r2, #223	@ 0xdf
 80057ac:	2a58      	cmp	r2, #88	@ 0x58
 80057ae:	d16e      	bne.n	800588e <_strtod_l+0x126>
 80057b0:	9302      	str	r3, [sp, #8]
 80057b2:	9b0e      	ldr	r3, [sp, #56]	@ 0x38
 80057b4:	9301      	str	r3, [sp, #4]
 80057b6:	ab1a      	add	r3, sp, #104	@ 0x68
 80057b8:	9300      	str	r3, [sp, #0]
 80057ba:	4a8f      	ldr	r2, [pc, #572]	@ (80059f8 <_strtod_l+0x290>)
 80057bc:	9805      	ldr	r0, [sp, #20]
 80057be:	ab1b      	add	r3, sp, #108	@ 0x6c
 80057c0:	a919      	add	r1, sp, #100	@ 0x64
 80057c2:	f001 f97d 	bl	8006ac0 <__gethex>
 80057c6:	f010 060f 	ands.w	r6, r0, #15
 80057ca:	4604      	mov	r4, r0
 80057cc:	d005      	beq.n	80057da <_strtod_l+0x72>
 80057ce:	2e06      	cmp	r6, #6
 80057d0:	d128      	bne.n	8005824 <_strtod_l+0xbc>
 80057d2:	3501      	adds	r5, #1
 80057d4:	2300      	movs	r3, #0
 80057d6:	9519      	str	r5, [sp, #100]	@ 0x64
 80057d8:	930e      	str	r3, [sp, #56]	@ 0x38
 80057da:	9b17      	ldr	r3, [sp, #92]	@ 0x5c
 80057dc:	2b00      	cmp	r3, #0
 80057de:	f040 858e 	bne.w	80062fe <_strtod_l+0xb96>
 80057e2:	9b0e      	ldr	r3, [sp, #56]	@ 0x38
 80057e4:	b1cb      	cbz	r3, 800581a <_strtod_l+0xb2>
 80057e6:	4652      	mov	r2, sl
 80057e8:	f10b 4300 	add.w	r3, fp, #2147483648	@ 0x80000000
 80057ec:	ec43 2b10 	vmov	d0, r2, r3
 80057f0:	b01f      	add	sp, #124	@ 0x7c
 80057f2:	e8bd 8ff0 	ldmia.w	sp!, {r4, r5, r6, r7, r8, r9, sl, fp, pc}
 80057f6:	2920      	cmp	r1, #32
 80057f8:	d1ce      	bne.n	8005798 <_strtod_l+0x30>
 80057fa:	3201      	adds	r2, #1
 80057fc:	e7c1      	b.n	8005782 <_strtod_l+0x1a>
 80057fe:	292d      	cmp	r1, #45	@ 0x2d
 8005800:	d1ca      	bne.n	8005798 <_strtod_l+0x30>
 8005802:	2101      	movs	r1, #1
 8005804:	910e      	str	r1, [sp, #56]	@ 0x38
 8005806:	1c51      	adds	r1, r2, #1
 8005808:	9119      	str	r1, [sp, #100]	@ 0x64
 800580a:	7852      	ldrb	r2, [r2, #1]
 800580c:	2a00      	cmp	r2, #0
 800580e:	d1c5      	bne.n	800579c <_strtod_l+0x34>
 8005810:	9b17      	ldr	r3, [sp, #92]	@ 0x5c
 8005812:	9419      	str	r4, [sp, #100]	@ 0x64
 8005814:	2b00      	cmp	r3, #0
 8005816:	f040 8570 	bne.w	80062fa <_strtod_l+0xb92>
 800581a:	4652      	mov	r2, sl
 800581c:	465b      	mov	r3, fp
 800581e:	e7e5      	b.n	80057ec <_strtod_l+0x84>
 8005820:	2100      	movs	r1, #0
 8005822:	e7ef      	b.n	8005804 <_strtod_l+0x9c>
 8005824:	9a1a      	ldr	r2, [sp, #104]	@ 0x68
 8005826:	b13a      	cbz	r2, 8005838 <_strtod_l+0xd0>
 8005828:	2135      	movs	r1, #53	@ 0x35
 800582a:	a81c      	add	r0, sp, #112	@ 0x70
 800582c:	f002 f940 	bl	8007ab0 <__copybits>
 8005830:	991a      	ldr	r1, [sp, #104]	@ 0x68
 8005832:	9805      	ldr	r0, [sp, #20]
 8005834:	f001 fd16 	bl	8007264 <_Bfree>
 8005838:	3e01      	subs	r6, #1
 800583a:	9a1b      	ldr	r2, [sp, #108]	@ 0x6c
 800583c:	2e04      	cmp	r6, #4
 800583e:	d806      	bhi.n	800584e <_strtod_l+0xe6>
 8005840:	e8df f006 	tbb	[pc, r6]
 8005844:	201d0314 	.word	0x201d0314
 8005848:	14          	.byte	0x14
 8005849:	00          	.byte	0x00
 800584a:	e9dd ab1c 	ldrd	sl, fp, [sp, #112]	@ 0x70
 800584e:	05e1      	lsls	r1, r4, #23
 8005850:	bf48      	it	mi
 8005852:	f04b 4b00 	orrmi.w	fp, fp, #2147483648	@ 0x80000000
 8005856:	f02b 4300 	bic.w	r3, fp, #2147483648	@ 0x80000000
 800585a:	0d1b      	lsrs	r3, r3, #20
 800585c:	051b      	lsls	r3, r3, #20
 800585e:	2b00      	cmp	r3, #0
 8005860:	d1bb      	bne.n	80057da <_strtod_l+0x72>
 8005862:	f001 f829 	bl	80068b8 <__errno>
 8005866:	2322      	movs	r3, #34	@ 0x22
 8005868:	6003      	str	r3, [r0, #0]
 800586a:	e7b6      	b.n	80057da <_strtod_l+0x72>
 800586c:	e9dd a31c 	ldrd	sl, r3, [sp, #112]	@ 0x70
 8005870:	f202 4233 	addw	r2, r2, #1075	@ 0x433
 8005874:	f423 1380 	bic.w	r3, r3, #1048576	@ 0x100000
 8005878:	ea43 5b02 	orr.w	fp, r3, r2, lsl #20
 800587c:	e7e7      	b.n	800584e <_strtod_l+0xe6>
 800587e:	f8df b180 	ldr.w	fp, [pc, #384]	@ 8005a00 <_strtod_l+0x298>
 8005882:	e7e4      	b.n	800584e <_strtod_l+0xe6>
 8005884:	f06f 4b00 	mvn.w	fp, #2147483648	@ 0x80000000
 8005888:	f04f 3aff 	mov.w	sl, #4294967295
 800588c:	e7df      	b.n	800584e <_strtod_l+0xe6>
 800588e:	9b19      	ldr	r3, [sp, #100]	@ 0x64
 8005890:	1c5a      	adds	r2, r3, #1
 8005892:	9219      	str	r2, [sp, #100]	@ 0x64
 8005894:	785b      	ldrb	r3, [r3, #1]
 8005896:	2b30      	cmp	r3, #48	@ 0x30
 8005898:	d0f9      	beq.n	800588e <_strtod_l+0x126>
 800589a:	2b00      	cmp	r3, #0
 800589c:	d09d      	beq.n	80057da <_strtod_l+0x72>
 800589e:	2301      	movs	r3, #1
 80058a0:	2700      	movs	r7, #0
 80058a2:	9308      	str	r3, [sp, #32]
 80058a4:	9b19      	ldr	r3, [sp, #100]	@ 0x64
 80058a6:	930c      	str	r3, [sp, #48]	@ 0x30
 80058a8:	970b      	str	r7, [sp, #44]	@ 0x2c
 80058aa:	46b9      	mov	r9, r7
 80058ac:	220a      	movs	r2, #10
 80058ae:	9819      	ldr	r0, [sp, #100]	@ 0x64
 80058b0:	7805      	ldrb	r5, [r0, #0]
 80058b2:	f1a5 0330 	sub.w	r3, r5, #48	@ 0x30
 80058b6:	b2d9      	uxtb	r1, r3
 80058b8:	2909      	cmp	r1, #9
 80058ba:	d928      	bls.n	800590e <_strtod_l+0x1a6>
 80058bc:	494f      	ldr	r1, [pc, #316]	@ (80059fc <_strtod_l+0x294>)
 80058be:	2201      	movs	r2, #1
 80058c0:	f000 ff76 	bl	80067b0 <strncmp>
 80058c4:	2800      	cmp	r0, #0
 80058c6:	d032      	beq.n	800592e <_strtod_l+0x1c6>
 80058c8:	2000      	movs	r0, #0
 80058ca:	462a      	mov	r2, r5
 80058cc:	900a      	str	r0, [sp, #40]	@ 0x28
 80058ce:	464d      	mov	r5, r9
 80058d0:	4603      	mov	r3, r0
 80058d2:	2a65      	cmp	r2, #101	@ 0x65
 80058d4:	d001      	beq.n	80058da <_strtod_l+0x172>
 80058d6:	2a45      	cmp	r2, #69	@ 0x45
 80058d8:	d114      	bne.n	8005904 <_strtod_l+0x19c>
 80058da:	b91d      	cbnz	r5, 80058e4 <_strtod_l+0x17c>
 80058dc:	9a08      	ldr	r2, [sp, #32]
 80058de:	4302      	orrs	r2, r0
 80058e0:	d096      	beq.n	8005810 <_strtod_l+0xa8>
 80058e2:	2500      	movs	r5, #0
 80058e4:	9c19      	ldr	r4, [sp, #100]	@ 0x64
 80058e6:	1c62      	adds	r2, r4, #1
 80058e8:	9219      	str	r2, [sp, #100]	@ 0x64
 80058ea:	7862      	ldrb	r2, [r4, #1]
 80058ec:	2a2b      	cmp	r2, #43	@ 0x2b
 80058ee:	d07a      	beq.n	80059e6 <_strtod_l+0x27e>
 80058f0:	2a2d      	cmp	r2, #45	@ 0x2d
 80058f2:	d07e      	beq.n	80059f2 <_strtod_l+0x28a>
 80058f4:	f04f 0c00 	mov.w	ip, #0
 80058f8:	f1a2 0130 	sub.w	r1, r2, #48	@ 0x30
 80058fc:	2909      	cmp	r1, #9
 80058fe:	f240 8085 	bls.w	8005a0c <_strtod_l+0x2a4>
 8005902:	9419      	str	r4, [sp, #100]	@ 0x64
 8005904:	f04f 0800 	mov.w	r8, #0
 8005908:	e0a5      	b.n	8005a56 <_strtod_l+0x2ee>
 800590a:	2300      	movs	r3, #0
 800590c:	e7c8      	b.n	80058a0 <_strtod_l+0x138>
 800590e:	f1b9 0f08 	cmp.w	r9, #8
 8005912:	bfd8      	it	le
 8005914:	990b      	ldrle	r1, [sp, #44]	@ 0x2c
 8005916:	f100 0001 	add.w	r0, r0, #1
 800591a:	bfda      	itte	le
 800591c:	fb02 3301 	mlale	r3, r2, r1, r3
 8005920:	930b      	strle	r3, [sp, #44]	@ 0x2c
 8005922:	fb02 3707 	mlagt	r7, r2, r7, r3
 8005926:	f109 0901 	add.w	r9, r9, #1
 800592a:	9019      	str	r0, [sp, #100]	@ 0x64
 800592c:	e7bf      	b.n	80058ae <_strtod_l+0x146>
 800592e:	9b19      	ldr	r3, [sp, #100]	@ 0x64
 8005930:	1c5a      	adds	r2, r3, #1
 8005932:	9219      	str	r2, [sp, #100]	@ 0x64
 8005934:	785a      	ldrb	r2, [r3, #1]
 8005936:	f1b9 0f00 	cmp.w	r9, #0
 800593a:	d03b      	beq.n	80059b4 <_strtod_l+0x24c>
 800593c:	900a      	str	r0, [sp, #40]	@ 0x28
 800593e:	464d      	mov	r5, r9
 8005940:	f1a2 0330 	sub.w	r3, r2, #48	@ 0x30
 8005944:	2b09      	cmp	r3, #9
 8005946:	d912      	bls.n	800596e <_strtod_l+0x206>
 8005948:	2301      	movs	r3, #1
 800594a:	e7c2      	b.n	80058d2 <_strtod_l+0x16a>
 800594c:	9b19      	ldr	r3, [sp, #100]	@ 0x64
 800594e:	1c5a      	adds	r2, r3, #1
 8005950:	9219      	str	r2, [sp, #100]	@ 0x64
 8005952:	785a      	ldrb	r2, [r3, #1]
 8005954:	3001      	adds	r0, #1
 8005956:	2a30      	cmp	r2, #48	@ 0x30
 8005958:	d0f8      	beq.n	800594c <_strtod_l+0x1e4>
 800595a:	f1a2 0331 	sub.w	r3, r2, #49	@ 0x31
 800595e:	2b08      	cmp	r3, #8
 8005960:	f200 84d2 	bhi.w	8006308 <_strtod_l+0xba0>
 8005964:	9b19      	ldr	r3, [sp, #100]	@ 0x64
 8005966:	900a      	str	r0, [sp, #40]	@ 0x28
 8005968:	2000      	movs	r0, #0
 800596a:	930c      	str	r3, [sp, #48]	@ 0x30
 800596c:	4605      	mov	r5, r0
 800596e:	3a30      	subs	r2, #48	@ 0x30
 8005970:	f100 0301 	add.w	r3, r0, #1
 8005974:	d018      	beq.n	80059a8 <_strtod_l+0x240>
 8005976:	990a      	ldr	r1, [sp, #40]	@ 0x28
 8005978:	4419      	add	r1, r3
 800597a:	910a      	str	r1, [sp, #40]	@ 0x28
 800597c:	462e      	mov	r6, r5
 800597e:	f04f 0e0a 	mov.w	lr, #10
 8005982:	1c71      	adds	r1, r6, #1
 8005984:	eba1 0c05 	sub.w	ip, r1, r5
 8005988:	4563      	cmp	r3, ip
 800598a:	dc15      	bgt.n	80059b8 <_strtod_l+0x250>
 800598c:	ea20 70e0 	bic.w	r0, r0, r0, asr #31
 8005990:	182b      	adds	r3, r5, r0
 8005992:	2b08      	cmp	r3, #8
 8005994:	f105 0501 	add.w	r5, r5, #1
 8005998:	4405      	add	r5, r0
 800599a:	dc1a      	bgt.n	80059d2 <_strtod_l+0x26a>
 800599c:	990b      	ldr	r1, [sp, #44]	@ 0x2c
 800599e:	230a      	movs	r3, #10
 80059a0:	fb03 2301 	mla	r3, r3, r1, r2
 80059a4:	930b      	str	r3, [sp, #44]	@ 0x2c
 80059a6:	2300      	movs	r3, #0
 80059a8:	9a19      	ldr	r2, [sp, #100]	@ 0x64
 80059aa:	1c51      	adds	r1, r2, #1
 80059ac:	9119      	str	r1, [sp, #100]	@ 0x64
 80059ae:	7852      	ldrb	r2, [r2, #1]
 80059b0:	4618      	mov	r0, r3
 80059b2:	e7c5      	b.n	8005940 <_strtod_l+0x1d8>
 80059b4:	4648      	mov	r0, r9
 80059b6:	e7ce      	b.n	8005956 <_strtod_l+0x1ee>
 80059b8:	2e08      	cmp	r6, #8
 80059ba:	dc05      	bgt.n	80059c8 <_strtod_l+0x260>
 80059bc:	9e0b      	ldr	r6, [sp, #44]	@ 0x2c
 80059be:	fb0e f606 	mul.w	r6, lr, r6
 80059c2:	960b      	str	r6, [sp, #44]	@ 0x2c
 80059c4:	460e      	mov	r6, r1
 80059c6:	e7dc      	b.n	8005982 <_strtod_l+0x21a>
 80059c8:	2910      	cmp	r1, #16
 80059ca:	bfd8      	it	le
 80059cc:	fb0e f707 	mulle.w	r7, lr, r7
 80059d0:	e7f8      	b.n	80059c4 <_strtod_l+0x25c>
 80059d2:	2b0f      	cmp	r3, #15
 80059d4:	bfdc      	itt	le
 80059d6:	230a      	movle	r3, #10
 80059d8:	fb03 2707 	mlale	r7, r3, r7, r2
 80059dc:	e7e3      	b.n	80059a6 <_strtod_l+0x23e>
 80059de:	2300      	movs	r3, #0
 80059e0:	930a      	str	r3, [sp, #40]	@ 0x28
 80059e2:	2301      	movs	r3, #1
 80059e4:	e77a      	b.n	80058dc <_strtod_l+0x174>
 80059e6:	f04f 0c00 	mov.w	ip, #0
 80059ea:	1ca2      	adds	r2, r4, #2
 80059ec:	9219      	str	r2, [sp, #100]	@ 0x64
 80059ee:	78a2      	ldrb	r2, [r4, #2]
 80059f0:	e782      	b.n	80058f8 <_strtod_l+0x190>
 80059f2:	f04f 0c01 	mov.w	ip, #1
 80059f6:	e7f8      	b.n	80059ea <_strtod_l+0x282>
 80059f8:	08008e08 	.word	0x08008e08
 80059fc:	08008908 	.word	0x08008908
 8005a00:	7ff00000 	.word	0x7ff00000
 8005a04:	9a19      	ldr	r2, [sp, #100]	@ 0x64
 8005a06:	1c51      	adds	r1, r2, #1
 8005a08:	9119      	str	r1, [sp, #100]	@ 0x64
 8005a0a:	7852      	ldrb	r2, [r2, #1]
 8005a0c:	2a30      	cmp	r2, #48	@ 0x30
 8005a0e:	d0f9      	beq.n	8005a04 <_strtod_l+0x29c>
 8005a10:	f1a2 0131 	sub.w	r1, r2, #49	@ 0x31
 8005a14:	2908      	cmp	r1, #8
 8005a16:	f63f af75 	bhi.w	8005904 <_strtod_l+0x19c>
 8005a1a:	3a30      	subs	r2, #48	@ 0x30
 8005a1c:	9209      	str	r2, [sp, #36]	@ 0x24
 8005a1e:	9a19      	ldr	r2, [sp, #100]	@ 0x64
 8005a20:	920f      	str	r2, [sp, #60]	@ 0x3c
 8005a22:	f04f 080a 	mov.w	r8, #10
 8005a26:	9a19      	ldr	r2, [sp, #100]	@ 0x64
 8005a28:	1c56      	adds	r6, r2, #1
 8005a2a:	9619      	str	r6, [sp, #100]	@ 0x64
 8005a2c:	7852      	ldrb	r2, [r2, #1]
 8005a2e:	f1a2 0e30 	sub.w	lr, r2, #48	@ 0x30
 8005a32:	f1be 0f09 	cmp.w	lr, #9
 8005a36:	d939      	bls.n	8005aac <_strtod_l+0x344>
 8005a38:	990f      	ldr	r1, [sp, #60]	@ 0x3c
 8005a3a:	1a76      	subs	r6, r6, r1
 8005a3c:	2e08      	cmp	r6, #8
 8005a3e:	f644 681f 	movw	r8, #19999	@ 0x4e1f
 8005a42:	dc03      	bgt.n	8005a4c <_strtod_l+0x2e4>
 8005a44:	9909      	ldr	r1, [sp, #36]	@ 0x24
 8005a46:	4588      	cmp	r8, r1
 8005a48:	bfa8      	it	ge
 8005a4a:	4688      	movge	r8, r1
 8005a4c:	f1bc 0f00 	cmp.w	ip, #0
 8005a50:	d001      	beq.n	8005a56 <_strtod_l+0x2ee>
 8005a52:	f1c8 0800 	rsb	r8, r8, #0
 8005a56:	2d00      	cmp	r5, #0
 8005a58:	d14e      	bne.n	8005af8 <_strtod_l+0x390>
 8005a5a:	9908      	ldr	r1, [sp, #32]
 8005a5c:	4308      	orrs	r0, r1
 8005a5e:	f47f aebc 	bne.w	80057da <_strtod_l+0x72>
 8005a62:	2b00      	cmp	r3, #0
 8005a64:	f47f aed4 	bne.w	8005810 <_strtod_l+0xa8>
 8005a68:	2a69      	cmp	r2, #105	@ 0x69
 8005a6a:	d028      	beq.n	8005abe <_strtod_l+0x356>
 8005a6c:	dc25      	bgt.n	8005aba <_strtod_l+0x352>
 8005a6e:	2a49      	cmp	r2, #73	@ 0x49
 8005a70:	d025      	beq.n	8005abe <_strtod_l+0x356>
 8005a72:	2a4e      	cmp	r2, #78	@ 0x4e
 8005a74:	f47f aecc 	bne.w	8005810 <_strtod_l+0xa8>
 8005a78:	499a      	ldr	r1, [pc, #616]	@ (8005ce4 <_strtod_l+0x57c>)
 8005a7a:	a819      	add	r0, sp, #100	@ 0x64
 8005a7c:	f001 fa42 	bl	8006f04 <__match>
 8005a80:	2800      	cmp	r0, #0
 8005a82:	f43f aec5 	beq.w	8005810 <_strtod_l+0xa8>
 8005a86:	9b19      	ldr	r3, [sp, #100]	@ 0x64
 8005a88:	781b      	ldrb	r3, [r3, #0]
 8005a8a:	2b28      	cmp	r3, #40	@ 0x28
 8005a8c:	d12e      	bne.n	8005aec <_strtod_l+0x384>
 8005a8e:	4996      	ldr	r1, [pc, #600]	@ (8005ce8 <_strtod_l+0x580>)
 8005a90:	aa1c      	add	r2, sp, #112	@ 0x70
 8005a92:	a819      	add	r0, sp, #100	@ 0x64
 8005a94:	f001 fa4a 	bl	8006f2c <__hexnan>
 8005a98:	2805      	cmp	r0, #5
 8005a9a:	d127      	bne.n	8005aec <_strtod_l+0x384>
 8005a9c:	9b1d      	ldr	r3, [sp, #116]	@ 0x74
 8005a9e:	f8dd a070 	ldr.w	sl, [sp, #112]	@ 0x70
 8005aa2:	f043 4bff 	orr.w	fp, r3, #2139095040	@ 0x7f800000
 8005aa6:	f44b 0be0 	orr.w	fp, fp, #7340032	@ 0x700000
 8005aaa:	e696      	b.n	80057da <_strtod_l+0x72>
 8005aac:	9909      	ldr	r1, [sp, #36]	@ 0x24
 8005aae:	fb08 2101 	mla	r1, r8, r1, r2
 8005ab2:	f1a1 0230 	sub.w	r2, r1, #48	@ 0x30
 8005ab6:	9209      	str	r2, [sp, #36]	@ 0x24
 8005ab8:	e7b5      	b.n	8005a26 <_strtod_l+0x2be>
 8005aba:	2a6e      	cmp	r2, #110	@ 0x6e
 8005abc:	e7da      	b.n	8005a74 <_strtod_l+0x30c>
 8005abe:	498b      	ldr	r1, [pc, #556]	@ (8005cec <_strtod_l+0x584>)
 8005ac0:	a819      	add	r0, sp, #100	@ 0x64
 8005ac2:	f001 fa1f 	bl	8006f04 <__match>
 8005ac6:	2800      	cmp	r0, #0
 8005ac8:	f43f aea2 	beq.w	8005810 <_strtod_l+0xa8>
 8005acc:	9b19      	ldr	r3, [sp, #100]	@ 0x64
 8005ace:	4988      	ldr	r1, [pc, #544]	@ (8005cf0 <_strtod_l+0x588>)
 8005ad0:	3b01      	subs	r3, #1
 8005ad2:	a819      	add	r0, sp, #100	@ 0x64
 8005ad4:	9319      	str	r3, [sp, #100]	@ 0x64
 8005ad6:	f001 fa15 	bl	8006f04 <__match>
 8005ada:	b910      	cbnz	r0, 8005ae2 <_strtod_l+0x37a>
 8005adc:	9b19      	ldr	r3, [sp, #100]	@ 0x64
 8005ade:	3301      	adds	r3, #1
 8005ae0:	9319      	str	r3, [sp, #100]	@ 0x64
 8005ae2:	f8df b21c 	ldr.w	fp, [pc, #540]	@ 8005d00 <_strtod_l+0x598>
 8005ae6:	f04f 0a00 	mov.w	sl, #0
 8005aea:	e676      	b.n	80057da <_strtod_l+0x72>
 8005aec:	4881      	ldr	r0, [pc, #516]	@ (8005cf4 <_strtod_l+0x58c>)
 8005aee:	f000 ff27 	bl	8006940 <nan>
 8005af2:	ec5b ab10 	vmov	sl, fp, d0
 8005af6:	e670      	b.n	80057da <_strtod_l+0x72>
 8005af8:	9b0a      	ldr	r3, [sp, #40]	@ 0x28
 8005afa:	980b      	ldr	r0, [sp, #44]	@ 0x2c
 8005afc:	eba8 0303 	sub.w	r3, r8, r3
 8005b00:	f1b9 0f00 	cmp.w	r9, #0
 8005b04:	bf08      	it	eq
 8005b06:	46a9      	moveq	r9, r5
 8005b08:	2d10      	cmp	r5, #16
 8005b0a:	9309      	str	r3, [sp, #36]	@ 0x24
 8005b0c:	462c      	mov	r4, r5
 8005b0e:	bfa8      	it	ge
 8005b10:	2410      	movge	r4, #16
 8005b12:	f7fa fd0f 	bl	8000534 <__aeabi_ui2d>
 8005b16:	2d09      	cmp	r5, #9
 8005b18:	4682      	mov	sl, r0
 8005b1a:	468b      	mov	fp, r1
 8005b1c:	dc13      	bgt.n	8005b46 <_strtod_l+0x3de>
 8005b1e:	9b09      	ldr	r3, [sp, #36]	@ 0x24
 8005b20:	2b00      	cmp	r3, #0
 8005b22:	f43f ae5a 	beq.w	80057da <_strtod_l+0x72>
 8005b26:	9b09      	ldr	r3, [sp, #36]	@ 0x24
 8005b28:	dd78      	ble.n	8005c1c <_strtod_l+0x4b4>
 8005b2a:	2b16      	cmp	r3, #22
 8005b2c:	dc5f      	bgt.n	8005bee <_strtod_l+0x486>
 8005b2e:	4972      	ldr	r1, [pc, #456]	@ (8005cf8 <_strtod_l+0x590>)
 8005b30:	eb01 01c3 	add.w	r1, r1, r3, lsl #3
 8005b34:	e9d1 0100 	ldrd	r0, r1, [r1]
 8005b38:	4652      	mov	r2, sl
 8005b3a:	465b      	mov	r3, fp
 8005b3c:	f7fa fd74 	bl	8000628 <__aeabi_dmul>
 8005b40:	4682      	mov	sl, r0
 8005b42:	468b      	mov	fp, r1
 8005b44:	e649      	b.n	80057da <_strtod_l+0x72>
 8005b46:	4b6c      	ldr	r3, [pc, #432]	@ (8005cf8 <_strtod_l+0x590>)
 8005b48:	eb03 03c4 	add.w	r3, r3, r4, lsl #3
 8005b4c:	e953 2312 	ldrd	r2, r3, [r3, #-72]	@ 0x48
 8005b50:	f7fa fd6a 	bl	8000628 <__aeabi_dmul>
 8005b54:	4682      	mov	sl, r0
 8005b56:	4638      	mov	r0, r7
 8005b58:	468b      	mov	fp, r1
 8005b5a:	f7fa fceb 	bl	8000534 <__aeabi_ui2d>
 8005b5e:	4602      	mov	r2, r0
 8005b60:	460b      	mov	r3, r1
 8005b62:	4650      	mov	r0, sl
 8005b64:	4659      	mov	r1, fp
 8005b66:	f7fa fba9 	bl	80002bc <__adddf3>
 8005b6a:	2d0f      	cmp	r5, #15
 8005b6c:	4682      	mov	sl, r0
 8005b6e:	468b      	mov	fp, r1
 8005b70:	ddd5      	ble.n	8005b1e <_strtod_l+0x3b6>
 8005b72:	9b09      	ldr	r3, [sp, #36]	@ 0x24
 8005b74:	1b2c      	subs	r4, r5, r4
 8005b76:	441c      	add	r4, r3
 8005b78:	2c00      	cmp	r4, #0
 8005b7a:	f340 8093 	ble.w	8005ca4 <_strtod_l+0x53c>
 8005b7e:	f014 030f 	ands.w	r3, r4, #15
 8005b82:	d00a      	beq.n	8005b9a <_strtod_l+0x432>
 8005b84:	495c      	ldr	r1, [pc, #368]	@ (8005cf8 <_strtod_l+0x590>)
 8005b86:	eb01 01c3 	add.w	r1, r1, r3, lsl #3
 8005b8a:	4652      	mov	r2, sl
 8005b8c:	465b      	mov	r3, fp
 8005b8e:	e9d1 0100 	ldrd	r0, r1, [r1]
 8005b92:	f7fa fd49 	bl	8000628 <__aeabi_dmul>
 8005b96:	4682      	mov	sl, r0
 8005b98:	468b      	mov	fp, r1
 8005b9a:	f034 040f 	bics.w	r4, r4, #15
 8005b9e:	d073      	beq.n	8005c88 <_strtod_l+0x520>
 8005ba0:	f5b4 7f9a 	cmp.w	r4, #308	@ 0x134
 8005ba4:	dd49      	ble.n	8005c3a <_strtod_l+0x4d2>
 8005ba6:	2400      	movs	r4, #0
 8005ba8:	46a0      	mov	r8, r4
 8005baa:	940b      	str	r4, [sp, #44]	@ 0x2c
 8005bac:	46a1      	mov	r9, r4
 8005bae:	9a05      	ldr	r2, [sp, #20]
 8005bb0:	f8df b14c 	ldr.w	fp, [pc, #332]	@ 8005d00 <_strtod_l+0x598>
 8005bb4:	2322      	movs	r3, #34	@ 0x22
 8005bb6:	6013      	str	r3, [r2, #0]
 8005bb8:	f04f 0a00 	mov.w	sl, #0
 8005bbc:	9b0b      	ldr	r3, [sp, #44]	@ 0x2c
 8005bbe:	2b00      	cmp	r3, #0
 8005bc0:	f43f ae0b 	beq.w	80057da <_strtod_l+0x72>
 8005bc4:	991a      	ldr	r1, [sp, #104]	@ 0x68
 8005bc6:	9805      	ldr	r0, [sp, #20]
 8005bc8:	f001 fb4c 	bl	8007264 <_Bfree>
 8005bcc:	9805      	ldr	r0, [sp, #20]
 8005bce:	4649      	mov	r1, r9
 8005bd0:	f001 fb48 	bl	8007264 <_Bfree>
 8005bd4:	9805      	ldr	r0, [sp, #20]
 8005bd6:	4641      	mov	r1, r8
 8005bd8:	f001 fb44 	bl	8007264 <_Bfree>
 8005bdc:	990b      	ldr	r1, [sp, #44]	@ 0x2c
 8005bde:	9805      	ldr	r0, [sp, #20]
 8005be0:	f001 fb40 	bl	8007264 <_Bfree>
 8005be4:	9805      	ldr	r0, [sp, #20]
 8005be6:	4621      	mov	r1, r4
 8005be8:	f001 fb3c 	bl	8007264 <_Bfree>
 8005bec:	e5f5      	b.n	80057da <_strtod_l+0x72>
 8005bee:	9a09      	ldr	r2, [sp, #36]	@ 0x24
 8005bf0:	f1c5 0325 	rsb	r3, r5, #37	@ 0x25
 8005bf4:	4293      	cmp	r3, r2
 8005bf6:	dbbc      	blt.n	8005b72 <_strtod_l+0x40a>
 8005bf8:	4c3f      	ldr	r4, [pc, #252]	@ (8005cf8 <_strtod_l+0x590>)
 8005bfa:	f1c5 050f 	rsb	r5, r5, #15
 8005bfe:	eb04 01c5 	add.w	r1, r4, r5, lsl #3
 8005c02:	4652      	mov	r2, sl
 8005c04:	465b      	mov	r3, fp
 8005c06:	e9d1 0100 	ldrd	r0, r1, [r1]
 8005c0a:	f7fa fd0d 	bl	8000628 <__aeabi_dmul>
 8005c0e:	9b09      	ldr	r3, [sp, #36]	@ 0x24
 8005c10:	1b5d      	subs	r5, r3, r5
 8005c12:	eb04 04c5 	add.w	r4, r4, r5, lsl #3
 8005c16:	e9d4 2300 	ldrd	r2, r3, [r4]
 8005c1a:	e78f      	b.n	8005b3c <_strtod_l+0x3d4>
 8005c1c:	3316      	adds	r3, #22
 8005c1e:	dba8      	blt.n	8005b72 <_strtod_l+0x40a>
 8005c20:	9b0a      	ldr	r3, [sp, #40]	@ 0x28
 8005c22:	eba3 0808 	sub.w	r8, r3, r8
 8005c26:	4b34      	ldr	r3, [pc, #208]	@ (8005cf8 <_strtod_l+0x590>)
 8005c28:	eb03 08c8 	add.w	r8, r3, r8, lsl #3
 8005c2c:	e9d8 2300 	ldrd	r2, r3, [r8]
 8005c30:	4650      	mov	r0, sl
 8005c32:	4659      	mov	r1, fp
 8005c34:	f7fa fe22 	bl	800087c <__aeabi_ddiv>
 8005c38:	e782      	b.n	8005b40 <_strtod_l+0x3d8>
 8005c3a:	2300      	movs	r3, #0
 8005c3c:	4f2f      	ldr	r7, [pc, #188]	@ (8005cfc <_strtod_l+0x594>)
 8005c3e:	1124      	asrs	r4, r4, #4
 8005c40:	4650      	mov	r0, sl
 8005c42:	4659      	mov	r1, fp
 8005c44:	461e      	mov	r6, r3
 8005c46:	2c01      	cmp	r4, #1
 8005c48:	dc21      	bgt.n	8005c8e <_strtod_l+0x526>
 8005c4a:	b10b      	cbz	r3, 8005c50 <_strtod_l+0x4e8>
 8005c4c:	4682      	mov	sl, r0
 8005c4e:	468b      	mov	fp, r1
 8005c50:	492a      	ldr	r1, [pc, #168]	@ (8005cfc <_strtod_l+0x594>)
 8005c52:	f1ab 7b54 	sub.w	fp, fp, #55574528	@ 0x3500000
 8005c56:	eb01 01c6 	add.w	r1, r1, r6, lsl #3
 8005c5a:	4652      	mov	r2, sl
 8005c5c:	465b      	mov	r3, fp
 8005c5e:	e9d1 0100 	ldrd	r0, r1, [r1]
 8005c62:	f7fa fce1 	bl	8000628 <__aeabi_dmul>
 8005c66:	4b26      	ldr	r3, [pc, #152]	@ (8005d00 <_strtod_l+0x598>)
 8005c68:	460a      	mov	r2, r1
 8005c6a:	400b      	ands	r3, r1
 8005c6c:	4925      	ldr	r1, [pc, #148]	@ (8005d04 <_strtod_l+0x59c>)
 8005c6e:	428b      	cmp	r3, r1
 8005c70:	4682      	mov	sl, r0
 8005c72:	d898      	bhi.n	8005ba6 <_strtod_l+0x43e>
 8005c74:	f5a1 1180 	sub.w	r1, r1, #1048576	@ 0x100000
 8005c78:	428b      	cmp	r3, r1
 8005c7a:	bf86      	itte	hi
 8005c7c:	f8df b088 	ldrhi.w	fp, [pc, #136]	@ 8005d08 <_strtod_l+0x5a0>
 8005c80:	f04f 3aff 	movhi.w	sl, #4294967295
 8005c84:	f102 7b54 	addls.w	fp, r2, #55574528	@ 0x3500000
 8005c88:	2300      	movs	r3, #0
 8005c8a:	9308      	str	r3, [sp, #32]
 8005c8c:	e076      	b.n	8005d7c <_strtod_l+0x614>
 8005c8e:	07e2      	lsls	r2, r4, #31
 8005c90:	d504      	bpl.n	8005c9c <_strtod_l+0x534>
 8005c92:	e9d7 2300 	ldrd	r2, r3, [r7]
 8005c96:	f7fa fcc7 	bl	8000628 <__aeabi_dmul>
 8005c9a:	2301      	movs	r3, #1
 8005c9c:	3601      	adds	r6, #1
 8005c9e:	1064      	asrs	r4, r4, #1
 8005ca0:	3708      	adds	r7, #8
 8005ca2:	e7d0      	b.n	8005c46 <_strtod_l+0x4de>
 8005ca4:	d0f0      	beq.n	8005c88 <_strtod_l+0x520>
 8005ca6:	4264      	negs	r4, r4
 8005ca8:	f014 020f 	ands.w	r2, r4, #15
 8005cac:	d00a      	beq.n	8005cc4 <_strtod_l+0x55c>
 8005cae:	4b12      	ldr	r3, [pc, #72]	@ (8005cf8 <_strtod_l+0x590>)
 8005cb0:	eb03 03c2 	add.w	r3, r3, r2, lsl #3
 8005cb4:	4650      	mov	r0, sl
 8005cb6:	4659      	mov	r1, fp
 8005cb8:	e9d3 2300 	ldrd	r2, r3, [r3]
 8005cbc:	f7fa fdde 	bl	800087c <__aeabi_ddiv>
 8005cc0:	4682      	mov	sl, r0
 8005cc2:	468b      	mov	fp, r1
 8005cc4:	1124      	asrs	r4, r4, #4
 8005cc6:	d0df      	beq.n	8005c88 <_strtod_l+0x520>
 8005cc8:	2c1f      	cmp	r4, #31
 8005cca:	dd1f      	ble.n	8005d0c <_strtod_l+0x5a4>
 8005ccc:	2400      	movs	r4, #0
 8005cce:	46a0      	mov	r8, r4
 8005cd0:	940b      	str	r4, [sp, #44]	@ 0x2c
 8005cd2:	46a1      	mov	r9, r4
 8005cd4:	9a05      	ldr	r2, [sp, #20]
 8005cd6:	2322      	movs	r3, #34	@ 0x22
 8005cd8:	f04f 0a00 	mov.w	sl, #0
 8005cdc:	f04f 0b00 	mov.w	fp, #0
 8005ce0:	6013      	str	r3, [r2, #0]
 8005ce2:	e76b      	b.n	8005bbc <_strtod_l+0x454>
 8005ce4:	08008c4a 	.word	0x08008c4a
 8005ce8:	08008df4 	.word	0x08008df4
 8005cec:	08008c41 	.word	0x08008c41
 8005cf0:	08008c44 	.word	0x08008c44
 8005cf4:	08008a19 	.word	0x08008a19
 8005cf8:	08008f80 	.word	0x08008f80
 8005cfc:	08008f58 	.word	0x08008f58
 8005d00:	7ff00000 	.word	0x7ff00000
 8005d04:	7ca00000 	.word	0x7ca00000
 8005d08:	7fefffff 	.word	0x7fefffff
 8005d0c:	f014 0310 	ands.w	r3, r4, #16
 8005d10:	bf18      	it	ne
 8005d12:	236a      	movne	r3, #106	@ 0x6a
 8005d14:	4ea9      	ldr	r6, [pc, #676]	@ (8005fbc <_strtod_l+0x854>)
 8005d16:	9308      	str	r3, [sp, #32]
 8005d18:	4650      	mov	r0, sl
 8005d1a:	4659      	mov	r1, fp
 8005d1c:	2300      	movs	r3, #0
 8005d1e:	07e7      	lsls	r7, r4, #31
 8005d20:	d504      	bpl.n	8005d2c <_strtod_l+0x5c4>
 8005d22:	e9d6 2300 	ldrd	r2, r3, [r6]
 8005d26:	f7fa fc7f 	bl	8000628 <__aeabi_dmul>
 8005d2a:	2301      	movs	r3, #1
 8005d2c:	1064      	asrs	r4, r4, #1
 8005d2e:	f106 0608 	add.w	r6, r6, #8
 8005d32:	d1f4      	bne.n	8005d1e <_strtod_l+0x5b6>
 8005d34:	b10b      	cbz	r3, 8005d3a <_strtod_l+0x5d2>
 8005d36:	4682      	mov	sl, r0
 8005d38:	468b      	mov	fp, r1
 8005d3a:	9b08      	ldr	r3, [sp, #32]
 8005d3c:	b1b3      	cbz	r3, 8005d6c <_strtod_l+0x604>
 8005d3e:	f3cb 520a 	ubfx	r2, fp, #20, #11
 8005d42:	f1c2 036b 	rsb	r3, r2, #107	@ 0x6b
 8005d46:	2b00      	cmp	r3, #0
 8005d48:	4659      	mov	r1, fp
 8005d4a:	dd0f      	ble.n	8005d6c <_strtod_l+0x604>
 8005d4c:	2b1f      	cmp	r3, #31
 8005d4e:	dd56      	ble.n	8005dfe <_strtod_l+0x696>
 8005d50:	2b34      	cmp	r3, #52	@ 0x34
 8005d52:	bfde      	ittt	le
 8005d54:	f04f 33ff 	movle.w	r3, #4294967295
 8005d58:	f1c2 024b 	rsble	r2, r2, #75	@ 0x4b
 8005d5c:	4093      	lslle	r3, r2
 8005d5e:	f04f 0a00 	mov.w	sl, #0
 8005d62:	bfcc      	ite	gt
 8005d64:	f04f 7b5c 	movgt.w	fp, #57671680	@ 0x3700000
 8005d68:	ea03 0b01 	andle.w	fp, r3, r1
 8005d6c:	2200      	movs	r2, #0
 8005d6e:	2300      	movs	r3, #0
 8005d70:	4650      	mov	r0, sl
 8005d72:	4659      	mov	r1, fp
 8005d74:	f7fa fec0 	bl	8000af8 <__aeabi_dcmpeq>
 8005d78:	2800      	cmp	r0, #0
 8005d7a:	d1a7      	bne.n	8005ccc <_strtod_l+0x564>
 8005d7c:	9b0b      	ldr	r3, [sp, #44]	@ 0x2c
 8005d7e:	9300      	str	r3, [sp, #0]
 8005d80:	990c      	ldr	r1, [sp, #48]	@ 0x30
 8005d82:	9805      	ldr	r0, [sp, #20]
 8005d84:	462b      	mov	r3, r5
 8005d86:	464a      	mov	r2, r9
 8005d88:	f001 fad4 	bl	8007334 <__s2b>
 8005d8c:	900b      	str	r0, [sp, #44]	@ 0x2c
 8005d8e:	2800      	cmp	r0, #0
 8005d90:	f43f af09 	beq.w	8005ba6 <_strtod_l+0x43e>
 8005d94:	9a09      	ldr	r2, [sp, #36]	@ 0x24
 8005d96:	9b0a      	ldr	r3, [sp, #40]	@ 0x28
 8005d98:	2a00      	cmp	r2, #0
 8005d9a:	eba3 0308 	sub.w	r3, r3, r8
 8005d9e:	bfa8      	it	ge
 8005da0:	2300      	movge	r3, #0
 8005da2:	9312      	str	r3, [sp, #72]	@ 0x48
 8005da4:	2400      	movs	r4, #0
 8005da6:	ea22 73e2 	bic.w	r3, r2, r2, asr #31
 8005daa:	9316      	str	r3, [sp, #88]	@ 0x58
 8005dac:	46a0      	mov	r8, r4
 8005dae:	9b0b      	ldr	r3, [sp, #44]	@ 0x2c
 8005db0:	9805      	ldr	r0, [sp, #20]
 8005db2:	6859      	ldr	r1, [r3, #4]
 8005db4:	f001 fa16 	bl	80071e4 <_Balloc>
 8005db8:	4681      	mov	r9, r0
 8005dba:	2800      	cmp	r0, #0
 8005dbc:	f43f aef7 	beq.w	8005bae <_strtod_l+0x446>
 8005dc0:	9b0b      	ldr	r3, [sp, #44]	@ 0x2c
 8005dc2:	691a      	ldr	r2, [r3, #16]
 8005dc4:	3202      	adds	r2, #2
 8005dc6:	f103 010c 	add.w	r1, r3, #12
 8005dca:	0092      	lsls	r2, r2, #2
 8005dcc:	300c      	adds	r0, #12
 8005dce:	f000 fda8 	bl	8006922 <memcpy>
 8005dd2:	ec4b ab10 	vmov	d0, sl, fp
 8005dd6:	9805      	ldr	r0, [sp, #20]
 8005dd8:	aa1c      	add	r2, sp, #112	@ 0x70
 8005dda:	a91b      	add	r1, sp, #108	@ 0x6c
 8005ddc:	e9cd ab0c 	strd	sl, fp, [sp, #48]	@ 0x30
 8005de0:	f001 fddc 	bl	800799c <__d2b>
 8005de4:	901a      	str	r0, [sp, #104]	@ 0x68
 8005de6:	2800      	cmp	r0, #0
 8005de8:	f43f aee1 	beq.w	8005bae <_strtod_l+0x446>
 8005dec:	9805      	ldr	r0, [sp, #20]
 8005dee:	2101      	movs	r1, #1
 8005df0:	f001 fb36 	bl	8007460 <__i2b>
 8005df4:	4680      	mov	r8, r0
 8005df6:	b948      	cbnz	r0, 8005e0c <_strtod_l+0x6a4>
 8005df8:	f04f 0800 	mov.w	r8, #0
 8005dfc:	e6d7      	b.n	8005bae <_strtod_l+0x446>
 8005dfe:	f04f 32ff 	mov.w	r2, #4294967295
 8005e02:	fa02 f303 	lsl.w	r3, r2, r3
 8005e06:	ea03 0a0a 	and.w	sl, r3, sl
 8005e0a:	e7af      	b.n	8005d6c <_strtod_l+0x604>
 8005e0c:	9d1b      	ldr	r5, [sp, #108]	@ 0x6c
 8005e0e:	9a1c      	ldr	r2, [sp, #112]	@ 0x70
 8005e10:	2d00      	cmp	r5, #0
 8005e12:	bfab      	itete	ge
 8005e14:	9b12      	ldrge	r3, [sp, #72]	@ 0x48
 8005e16:	9b16      	ldrlt	r3, [sp, #88]	@ 0x58
 8005e18:	9e16      	ldrge	r6, [sp, #88]	@ 0x58
 8005e1a:	9f12      	ldrlt	r7, [sp, #72]	@ 0x48
 8005e1c:	bfac      	ite	ge
 8005e1e:	18ef      	addge	r7, r5, r3
 8005e20:	1b5e      	sublt	r6, r3, r5
 8005e22:	9b08      	ldr	r3, [sp, #32]
 8005e24:	1aed      	subs	r5, r5, r3
 8005e26:	4415      	add	r5, r2
 8005e28:	4b65      	ldr	r3, [pc, #404]	@ (8005fc0 <_strtod_l+0x858>)
 8005e2a:	3d01      	subs	r5, #1
 8005e2c:	429d      	cmp	r5, r3
 8005e2e:	f1c2 0236 	rsb	r2, r2, #54	@ 0x36
 8005e32:	da50      	bge.n	8005ed6 <_strtod_l+0x76e>
 8005e34:	1b5b      	subs	r3, r3, r5
 8005e36:	2b1f      	cmp	r3, #31
 8005e38:	eba2 0203 	sub.w	r2, r2, r3
 8005e3c:	f04f 0101 	mov.w	r1, #1
 8005e40:	dc3d      	bgt.n	8005ebe <_strtod_l+0x756>
 8005e42:	fa01 f303 	lsl.w	r3, r1, r3
 8005e46:	9313      	str	r3, [sp, #76]	@ 0x4c
 8005e48:	2300      	movs	r3, #0
 8005e4a:	9310      	str	r3, [sp, #64]	@ 0x40
 8005e4c:	18bd      	adds	r5, r7, r2
 8005e4e:	9b08      	ldr	r3, [sp, #32]
 8005e50:	42af      	cmp	r7, r5
 8005e52:	4416      	add	r6, r2
 8005e54:	441e      	add	r6, r3
 8005e56:	463b      	mov	r3, r7
 8005e58:	bfa8      	it	ge
 8005e5a:	462b      	movge	r3, r5
 8005e5c:	42b3      	cmp	r3, r6
 8005e5e:	bfa8      	it	ge
 8005e60:	4633      	movge	r3, r6
 8005e62:	2b00      	cmp	r3, #0
 8005e64:	bfc2      	ittt	gt
 8005e66:	1aed      	subgt	r5, r5, r3
 8005e68:	1af6      	subgt	r6, r6, r3
 8005e6a:	1aff      	subgt	r7, r7, r3
 8005e6c:	9b12      	ldr	r3, [sp, #72]	@ 0x48
 8005e6e:	2b00      	cmp	r3, #0
 8005e70:	dd16      	ble.n	8005ea0 <_strtod_l+0x738>
 8005e72:	4641      	mov	r1, r8
 8005e74:	9805      	ldr	r0, [sp, #20]
 8005e76:	461a      	mov	r2, r3
 8005e78:	f001 fbaa 	bl	80075d0 <__pow5mult>
 8005e7c:	4680      	mov	r8, r0
 8005e7e:	2800      	cmp	r0, #0
 8005e80:	d0ba      	beq.n	8005df8 <_strtod_l+0x690>
 8005e82:	4601      	mov	r1, r0
 8005e84:	9a1a      	ldr	r2, [sp, #104]	@ 0x68
 8005e86:	9805      	ldr	r0, [sp, #20]
 8005e88:	f001 fb00 	bl	800748c <__multiply>
 8005e8c:	900a      	str	r0, [sp, #40]	@ 0x28
 8005e8e:	2800      	cmp	r0, #0
 8005e90:	f43f ae8d 	beq.w	8005bae <_strtod_l+0x446>
 8005e94:	991a      	ldr	r1, [sp, #104]	@ 0x68
 8005e96:	9805      	ldr	r0, [sp, #20]
 8005e98:	f001 f9e4 	bl	8007264 <_Bfree>
 8005e9c:	9b0a      	ldr	r3, [sp, #40]	@ 0x28
 8005e9e:	931a      	str	r3, [sp, #104]	@ 0x68
 8005ea0:	2d00      	cmp	r5, #0
 8005ea2:	dc1d      	bgt.n	8005ee0 <_strtod_l+0x778>
 8005ea4:	9b09      	ldr	r3, [sp, #36]	@ 0x24
 8005ea6:	2b00      	cmp	r3, #0
 8005ea8:	dd23      	ble.n	8005ef2 <_strtod_l+0x78a>
 8005eaa:	4649      	mov	r1, r9
 8005eac:	9a16      	ldr	r2, [sp, #88]	@ 0x58
 8005eae:	9805      	ldr	r0, [sp, #20]
 8005eb0:	f001 fb8e 	bl	80075d0 <__pow5mult>
 8005eb4:	4681      	mov	r9, r0
 8005eb6:	b9e0      	cbnz	r0, 8005ef2 <_strtod_l+0x78a>
 8005eb8:	f04f 0900 	mov.w	r9, #0
 8005ebc:	e677      	b.n	8005bae <_strtod_l+0x446>
 8005ebe:	f1c5 457f 	rsb	r5, r5, #4278190080	@ 0xff000000
 8005ec2:	f505 057f 	add.w	r5, r5, #16711680	@ 0xff0000
 8005ec6:	f505 457b 	add.w	r5, r5, #64256	@ 0xfb00
 8005eca:	35e2      	adds	r5, #226	@ 0xe2
 8005ecc:	fa01 f305 	lsl.w	r3, r1, r5
 8005ed0:	9310      	str	r3, [sp, #64]	@ 0x40
 8005ed2:	9113      	str	r1, [sp, #76]	@ 0x4c
 8005ed4:	e7ba      	b.n	8005e4c <_strtod_l+0x6e4>
 8005ed6:	2300      	movs	r3, #0
 8005ed8:	9310      	str	r3, [sp, #64]	@ 0x40
 8005eda:	2301      	movs	r3, #1
 8005edc:	9313      	str	r3, [sp, #76]	@ 0x4c
 8005ede:	e7b5      	b.n	8005e4c <_strtod_l+0x6e4>
 8005ee0:	991a      	ldr	r1, [sp, #104]	@ 0x68
 8005ee2:	9805      	ldr	r0, [sp, #20]
 8005ee4:	462a      	mov	r2, r5
 8005ee6:	f001 fbcd 	bl	8007684 <__lshift>
 8005eea:	901a      	str	r0, [sp, #104]	@ 0x68
 8005eec:	2800      	cmp	r0, #0
 8005eee:	d1d9      	bne.n	8005ea4 <_strtod_l+0x73c>
 8005ef0:	e65d      	b.n	8005bae <_strtod_l+0x446>
 8005ef2:	2e00      	cmp	r6, #0
 8005ef4:	dd07      	ble.n	8005f06 <_strtod_l+0x79e>
 8005ef6:	4649      	mov	r1, r9
 8005ef8:	9805      	ldr	r0, [sp, #20]
 8005efa:	4632      	mov	r2, r6
 8005efc:	f001 fbc2 	bl	8007684 <__lshift>
 8005f00:	4681      	mov	r9, r0
 8005f02:	2800      	cmp	r0, #0
 8005f04:	d0d8      	beq.n	8005eb8 <_strtod_l+0x750>
 8005f06:	2f00      	cmp	r7, #0
 8005f08:	dd08      	ble.n	8005f1c <_strtod_l+0x7b4>
 8005f0a:	4641      	mov	r1, r8
 8005f0c:	9805      	ldr	r0, [sp, #20]
 8005f0e:	463a      	mov	r2, r7
 8005f10:	f001 fbb8 	bl	8007684 <__lshift>
 8005f14:	4680      	mov	r8, r0
 8005f16:	2800      	cmp	r0, #0
 8005f18:	f43f ae49 	beq.w	8005bae <_strtod_l+0x446>
 8005f1c:	991a      	ldr	r1, [sp, #104]	@ 0x68
 8005f1e:	9805      	ldr	r0, [sp, #20]
 8005f20:	464a      	mov	r2, r9
 8005f22:	f001 fc37 	bl	8007794 <__mdiff>
 8005f26:	4604      	mov	r4, r0
 8005f28:	2800      	cmp	r0, #0
 8005f2a:	f43f ae40 	beq.w	8005bae <_strtod_l+0x446>
 8005f2e:	68c3      	ldr	r3, [r0, #12]
 8005f30:	930f      	str	r3, [sp, #60]	@ 0x3c
 8005f32:	2300      	movs	r3, #0
 8005f34:	60c3      	str	r3, [r0, #12]
 8005f36:	4641      	mov	r1, r8
 8005f38:	f001 fc10 	bl	800775c <__mcmp>
 8005f3c:	2800      	cmp	r0, #0
 8005f3e:	da45      	bge.n	8005fcc <_strtod_l+0x864>
 8005f40:	9b0f      	ldr	r3, [sp, #60]	@ 0x3c
 8005f42:	ea53 030a 	orrs.w	r3, r3, sl
 8005f46:	d16b      	bne.n	8006020 <_strtod_l+0x8b8>
 8005f48:	f3cb 0313 	ubfx	r3, fp, #0, #20
 8005f4c:	2b00      	cmp	r3, #0
 8005f4e:	d167      	bne.n	8006020 <_strtod_l+0x8b8>
 8005f50:	f02b 4300 	bic.w	r3, fp, #2147483648	@ 0x80000000
 8005f54:	0d1b      	lsrs	r3, r3, #20
 8005f56:	051b      	lsls	r3, r3, #20
 8005f58:	f1b3 6fd6 	cmp.w	r3, #112197632	@ 0x6b00000
 8005f5c:	d960      	bls.n	8006020 <_strtod_l+0x8b8>
 8005f5e:	6963      	ldr	r3, [r4, #20]
 8005f60:	b913      	cbnz	r3, 8005f68 <_strtod_l+0x800>
 8005f62:	6923      	ldr	r3, [r4, #16]
 8005f64:	2b01      	cmp	r3, #1
 8005f66:	dd5b      	ble.n	8006020 <_strtod_l+0x8b8>
 8005f68:	4621      	mov	r1, r4
 8005f6a:	2201      	movs	r2, #1
 8005f6c:	9805      	ldr	r0, [sp, #20]
 8005f6e:	f001 fb89 	bl	8007684 <__lshift>
 8005f72:	4641      	mov	r1, r8
 8005f74:	4604      	mov	r4, r0
 8005f76:	f001 fbf1 	bl	800775c <__mcmp>
 8005f7a:	2800      	cmp	r0, #0
 8005f7c:	dd50      	ble.n	8006020 <_strtod_l+0x8b8>
 8005f7e:	f02b 4300 	bic.w	r3, fp, #2147483648	@ 0x80000000
 8005f82:	9a08      	ldr	r2, [sp, #32]
 8005f84:	0d1b      	lsrs	r3, r3, #20
 8005f86:	051b      	lsls	r3, r3, #20
 8005f88:	2a00      	cmp	r2, #0
 8005f8a:	d06a      	beq.n	8006062 <_strtod_l+0x8fa>
 8005f8c:	f1b3 6fd6 	cmp.w	r3, #112197632	@ 0x6b00000
 8005f90:	d867      	bhi.n	8006062 <_strtod_l+0x8fa>
 8005f92:	f1b3 7f5c 	cmp.w	r3, #57671680	@ 0x3700000
 8005f96:	f67f ae9d 	bls.w	8005cd4 <_strtod_l+0x56c>
 8005f9a:	4b0a      	ldr	r3, [pc, #40]	@ (8005fc4 <_strtod_l+0x85c>)
 8005f9c:	4650      	mov	r0, sl
 8005f9e:	4659      	mov	r1, fp
 8005fa0:	2200      	movs	r2, #0
 8005fa2:	f7fa fb41 	bl	8000628 <__aeabi_dmul>
 8005fa6:	4b08      	ldr	r3, [pc, #32]	@ (8005fc8 <_strtod_l+0x860>)
 8005fa8:	400b      	ands	r3, r1
 8005faa:	4682      	mov	sl, r0
 8005fac:	468b      	mov	fp, r1
 8005fae:	2b00      	cmp	r3, #0
 8005fb0:	f47f ae08 	bne.w	8005bc4 <_strtod_l+0x45c>
 8005fb4:	9a05      	ldr	r2, [sp, #20]
 8005fb6:	2322      	movs	r3, #34	@ 0x22
 8005fb8:	6013      	str	r3, [r2, #0]
 8005fba:	e603      	b.n	8005bc4 <_strtod_l+0x45c>
 8005fbc:	08008e20 	.word	0x08008e20
 8005fc0:	fffffc02 	.word	0xfffffc02
 8005fc4:	39500000 	.word	0x39500000
 8005fc8:	7ff00000 	.word	0x7ff00000
 8005fcc:	f8cd b028 	str.w	fp, [sp, #40]	@ 0x28
 8005fd0:	d165      	bne.n	800609e <_strtod_l+0x936>
 8005fd2:	9a0f      	ldr	r2, [sp, #60]	@ 0x3c
 8005fd4:	f3cb 0313 	ubfx	r3, fp, #0, #20
 8005fd8:	b35a      	cbz	r2, 8006032 <_strtod_l+0x8ca>
 8005fda:	4a9f      	ldr	r2, [pc, #636]	@ (8006258 <_strtod_l+0xaf0>)
 8005fdc:	4293      	cmp	r3, r2
 8005fde:	d12b      	bne.n	8006038 <_strtod_l+0x8d0>
 8005fe0:	9b08      	ldr	r3, [sp, #32]
 8005fe2:	4651      	mov	r1, sl
 8005fe4:	b303      	cbz	r3, 8006028 <_strtod_l+0x8c0>
 8005fe6:	4b9d      	ldr	r3, [pc, #628]	@ (800625c <_strtod_l+0xaf4>)
 8005fe8:	465a      	mov	r2, fp
 8005fea:	4013      	ands	r3, r2
 8005fec:	f1b3 6fd4 	cmp.w	r3, #111149056	@ 0x6a00000
 8005ff0:	f04f 32ff 	mov.w	r2, #4294967295
 8005ff4:	d81b      	bhi.n	800602e <_strtod_l+0x8c6>
 8005ff6:	0d1b      	lsrs	r3, r3, #20
 8005ff8:	f1c3 036b 	rsb	r3, r3, #107	@ 0x6b
 8005ffc:	fa02 f303 	lsl.w	r3, r2, r3
 8006000:	4299      	cmp	r1, r3
 8006002:	d119      	bne.n	8006038 <_strtod_l+0x8d0>
 8006004:	4b96      	ldr	r3, [pc, #600]	@ (8006260 <_strtod_l+0xaf8>)
 8006006:	9a0a      	ldr	r2, [sp, #40]	@ 0x28
 8006008:	429a      	cmp	r2, r3
 800600a:	d102      	bne.n	8006012 <_strtod_l+0x8aa>
 800600c:	3101      	adds	r1, #1
 800600e:	f43f adce 	beq.w	8005bae <_strtod_l+0x446>
 8006012:	4b92      	ldr	r3, [pc, #584]	@ (800625c <_strtod_l+0xaf4>)
 8006014:	9a0a      	ldr	r2, [sp, #40]	@ 0x28
 8006016:	401a      	ands	r2, r3
 8006018:	f502 1b80 	add.w	fp, r2, #1048576	@ 0x100000
 800601c:	f04f 0a00 	mov.w	sl, #0
 8006020:	9b08      	ldr	r3, [sp, #32]
 8006022:	2b00      	cmp	r3, #0
 8006024:	d1b9      	bne.n	8005f9a <_strtod_l+0x832>
 8006026:	e5cd      	b.n	8005bc4 <_strtod_l+0x45c>
 8006028:	f04f 33ff 	mov.w	r3, #4294967295
 800602c:	e7e8      	b.n	8006000 <_strtod_l+0x898>
 800602e:	4613      	mov	r3, r2
 8006030:	e7e6      	b.n	8006000 <_strtod_l+0x898>
 8006032:	ea53 030a 	orrs.w	r3, r3, sl
 8006036:	d0a2      	beq.n	8005f7e <_strtod_l+0x816>
 8006038:	9b10      	ldr	r3, [sp, #64]	@ 0x40
 800603a:	b1db      	cbz	r3, 8006074 <_strtod_l+0x90c>
 800603c:	9a0a      	ldr	r2, [sp, #40]	@ 0x28
 800603e:	4213      	tst	r3, r2
 8006040:	d0ee      	beq.n	8006020 <_strtod_l+0x8b8>
 8006042:	9b0f      	ldr	r3, [sp, #60]	@ 0x3c
 8006044:	9a08      	ldr	r2, [sp, #32]
 8006046:	4650      	mov	r0, sl
 8006048:	4659      	mov	r1, fp
 800604a:	b1bb      	cbz	r3, 800607c <_strtod_l+0x914>
 800604c:	f7ff fb6b 	bl	8005726 <sulp>
 8006050:	e9dd 010c 	ldrd	r0, r1, [sp, #48]	@ 0x30
 8006054:	ec53 2b10 	vmov	r2, r3, d0
 8006058:	f7fa f930 	bl	80002bc <__adddf3>
 800605c:	4682      	mov	sl, r0
 800605e:	468b      	mov	fp, r1
 8006060:	e7de      	b.n	8006020 <_strtod_l+0x8b8>
 8006062:	f5a3 1380 	sub.w	r3, r3, #1048576	@ 0x100000
 8006066:	ea6f 5b13 	mvn.w	fp, r3, lsr #20
 800606a:	ea6f 5b0b 	mvn.w	fp, fp, lsl #20
 800606e:	f04f 3aff 	mov.w	sl, #4294967295
 8006072:	e7d5      	b.n	8006020 <_strtod_l+0x8b8>
 8006074:	9b13      	ldr	r3, [sp, #76]	@ 0x4c
 8006076:	ea13 0f0a 	tst.w	r3, sl
 800607a:	e7e1      	b.n	8006040 <_strtod_l+0x8d8>
 800607c:	f7ff fb53 	bl	8005726 <sulp>
 8006080:	e9dd 010c 	ldrd	r0, r1, [sp, #48]	@ 0x30
 8006084:	ec53 2b10 	vmov	r2, r3, d0
 8006088:	f7fa f916 	bl	80002b8 <__aeabi_dsub>
 800608c:	2200      	movs	r2, #0
 800608e:	2300      	movs	r3, #0
 8006090:	4682      	mov	sl, r0
 8006092:	468b      	mov	fp, r1
 8006094:	f7fa fd30 	bl	8000af8 <__aeabi_dcmpeq>
 8006098:	2800      	cmp	r0, #0
 800609a:	d0c1      	beq.n	8006020 <_strtod_l+0x8b8>
 800609c:	e61a      	b.n	8005cd4 <_strtod_l+0x56c>
 800609e:	4641      	mov	r1, r8
 80060a0:	4620      	mov	r0, r4
 80060a2:	f001 fcd3 	bl	8007a4c <__ratio>
 80060a6:	ec57 6b10 	vmov	r6, r7, d0
 80060aa:	2200      	movs	r2, #0
 80060ac:	f04f 4380 	mov.w	r3, #1073741824	@ 0x40000000
 80060b0:	4630      	mov	r0, r6
 80060b2:	4639      	mov	r1, r7
 80060b4:	f7fa fd34 	bl	8000b20 <__aeabi_dcmple>
 80060b8:	2800      	cmp	r0, #0
 80060ba:	d06f      	beq.n	800619c <_strtod_l+0xa34>
 80060bc:	9b0f      	ldr	r3, [sp, #60]	@ 0x3c
 80060be:	2b00      	cmp	r3, #0
 80060c0:	d17a      	bne.n	80061b8 <_strtod_l+0xa50>
 80060c2:	f1ba 0f00 	cmp.w	sl, #0
 80060c6:	d158      	bne.n	800617a <_strtod_l+0xa12>
 80060c8:	9b0a      	ldr	r3, [sp, #40]	@ 0x28
 80060ca:	f3c3 0313 	ubfx	r3, r3, #0, #20
 80060ce:	2b00      	cmp	r3, #0
 80060d0:	d15a      	bne.n	8006188 <_strtod_l+0xa20>
 80060d2:	4b64      	ldr	r3, [pc, #400]	@ (8006264 <_strtod_l+0xafc>)
 80060d4:	2200      	movs	r2, #0
 80060d6:	4630      	mov	r0, r6
 80060d8:	4639      	mov	r1, r7
 80060da:	f7fa fd17 	bl	8000b0c <__aeabi_dcmplt>
 80060de:	2800      	cmp	r0, #0
 80060e0:	d159      	bne.n	8006196 <_strtod_l+0xa2e>
 80060e2:	4630      	mov	r0, r6
 80060e4:	4639      	mov	r1, r7
 80060e6:	4b60      	ldr	r3, [pc, #384]	@ (8006268 <_strtod_l+0xb00>)
 80060e8:	2200      	movs	r2, #0
 80060ea:	f7fa fa9d 	bl	8000628 <__aeabi_dmul>
 80060ee:	4606      	mov	r6, r0
 80060f0:	460f      	mov	r7, r1
 80060f2:	f107 4300 	add.w	r3, r7, #2147483648	@ 0x80000000
 80060f6:	9606      	str	r6, [sp, #24]
 80060f8:	9307      	str	r3, [sp, #28]
 80060fa:	e9dd 2306 	ldrd	r2, r3, [sp, #24]
 80060fe:	4d57      	ldr	r5, [pc, #348]	@ (800625c <_strtod_l+0xaf4>)
 8006100:	e9cd 2310 	strd	r2, r3, [sp, #64]	@ 0x40
 8006104:	9b0a      	ldr	r3, [sp, #40]	@ 0x28
 8006106:	401d      	ands	r5, r3
 8006108:	4b58      	ldr	r3, [pc, #352]	@ (800626c <_strtod_l+0xb04>)
 800610a:	429d      	cmp	r5, r3
 800610c:	f040 80b2 	bne.w	8006274 <_strtod_l+0xb0c>
 8006110:	9b0a      	ldr	r3, [sp, #40]	@ 0x28
 8006112:	f1a3 7b54 	sub.w	fp, r3, #55574528	@ 0x3500000
 8006116:	ec4b ab10 	vmov	d0, sl, fp
 800611a:	f001 fbcf 	bl	80078bc <__ulp>
 800611e:	e9dd 2306 	ldrd	r2, r3, [sp, #24]
 8006122:	ec51 0b10 	vmov	r0, r1, d0
 8006126:	f7fa fa7f 	bl	8000628 <__aeabi_dmul>
 800612a:	4652      	mov	r2, sl
 800612c:	465b      	mov	r3, fp
 800612e:	f7fa f8c5 	bl	80002bc <__adddf3>
 8006132:	460b      	mov	r3, r1
 8006134:	4949      	ldr	r1, [pc, #292]	@ (800625c <_strtod_l+0xaf4>)
 8006136:	4a4e      	ldr	r2, [pc, #312]	@ (8006270 <_strtod_l+0xb08>)
 8006138:	4019      	ands	r1, r3
 800613a:	4291      	cmp	r1, r2
 800613c:	4682      	mov	sl, r0
 800613e:	d942      	bls.n	80061c6 <_strtod_l+0xa5e>
 8006140:	9a0d      	ldr	r2, [sp, #52]	@ 0x34
 8006142:	4b47      	ldr	r3, [pc, #284]	@ (8006260 <_strtod_l+0xaf8>)
 8006144:	429a      	cmp	r2, r3
 8006146:	d103      	bne.n	8006150 <_strtod_l+0x9e8>
 8006148:	9b0c      	ldr	r3, [sp, #48]	@ 0x30
 800614a:	3301      	adds	r3, #1
 800614c:	f43f ad2f 	beq.w	8005bae <_strtod_l+0x446>
 8006150:	f8df b10c 	ldr.w	fp, [pc, #268]	@ 8006260 <_strtod_l+0xaf8>
 8006154:	f04f 3aff 	mov.w	sl, #4294967295
 8006158:	991a      	ldr	r1, [sp, #104]	@ 0x68
 800615a:	9805      	ldr	r0, [sp, #20]
 800615c:	f001 f882 	bl	8007264 <_Bfree>
 8006160:	9805      	ldr	r0, [sp, #20]
 8006162:	4649      	mov	r1, r9
 8006164:	f001 f87e 	bl	8007264 <_Bfree>
 8006168:	9805      	ldr	r0, [sp, #20]
 800616a:	4641      	mov	r1, r8
 800616c:	f001 f87a 	bl	8007264 <_Bfree>
 8006170:	9805      	ldr	r0, [sp, #20]
 8006172:	4621      	mov	r1, r4
 8006174:	f001 f876 	bl	8007264 <_Bfree>
 8006178:	e619      	b.n	8005dae <_strtod_l+0x646>
 800617a:	f1ba 0f01 	cmp.w	sl, #1
 800617e:	d103      	bne.n	8006188 <_strtod_l+0xa20>
 8006180:	9b0a      	ldr	r3, [sp, #40]	@ 0x28
 8006182:	2b00      	cmp	r3, #0
 8006184:	f43f ada6 	beq.w	8005cd4 <_strtod_l+0x56c>
 8006188:	ed9f 7b2b 	vldr	d7, [pc, #172]	@ 8006238 <_strtod_l+0xad0>
 800618c:	4f35      	ldr	r7, [pc, #212]	@ (8006264 <_strtod_l+0xafc>)
 800618e:	ed8d 7b06 	vstr	d7, [sp, #24]
 8006192:	2600      	movs	r6, #0
 8006194:	e7b1      	b.n	80060fa <_strtod_l+0x992>
 8006196:	4f34      	ldr	r7, [pc, #208]	@ (8006268 <_strtod_l+0xb00>)
 8006198:	2600      	movs	r6, #0
 800619a:	e7aa      	b.n	80060f2 <_strtod_l+0x98a>
 800619c:	4b32      	ldr	r3, [pc, #200]	@ (8006268 <_strtod_l+0xb00>)
 800619e:	4630      	mov	r0, r6
 80061a0:	4639      	mov	r1, r7
 80061a2:	2200      	movs	r2, #0
 80061a4:	f7fa fa40 	bl	8000628 <__aeabi_dmul>
 80061a8:	9b0f      	ldr	r3, [sp, #60]	@ 0x3c
 80061aa:	4606      	mov	r6, r0
 80061ac:	460f      	mov	r7, r1
 80061ae:	2b00      	cmp	r3, #0
 80061b0:	d09f      	beq.n	80060f2 <_strtod_l+0x98a>
 80061b2:	e9cd 6706 	strd	r6, r7, [sp, #24]
 80061b6:	e7a0      	b.n	80060fa <_strtod_l+0x992>
 80061b8:	ed9f 7b21 	vldr	d7, [pc, #132]	@ 8006240 <_strtod_l+0xad8>
 80061bc:	ed8d 7b06 	vstr	d7, [sp, #24]
 80061c0:	ec57 6b17 	vmov	r6, r7, d7
 80061c4:	e799      	b.n	80060fa <_strtod_l+0x992>
 80061c6:	f103 7b54 	add.w	fp, r3, #55574528	@ 0x3500000
 80061ca:	9b08      	ldr	r3, [sp, #32]
 80061cc:	f8cd b028 	str.w	fp, [sp, #40]	@ 0x28
 80061d0:	2b00      	cmp	r3, #0
 80061d2:	d1c1      	bne.n	8006158 <_strtod_l+0x9f0>
 80061d4:	f02b 4300 	bic.w	r3, fp, #2147483648	@ 0x80000000
 80061d8:	0d1b      	lsrs	r3, r3, #20
 80061da:	051b      	lsls	r3, r3, #20
 80061dc:	429d      	cmp	r5, r3
 80061de:	d1bb      	bne.n	8006158 <_strtod_l+0x9f0>
 80061e0:	4630      	mov	r0, r6
 80061e2:	4639      	mov	r1, r7
 80061e4:	f7fa fd58 	bl	8000c98 <__aeabi_d2lz>
 80061e8:	f7fa f9f0 	bl	80005cc <__aeabi_l2d>
 80061ec:	4602      	mov	r2, r0
 80061ee:	460b      	mov	r3, r1
 80061f0:	4630      	mov	r0, r6
 80061f2:	4639      	mov	r1, r7
 80061f4:	f7fa f860 	bl	80002b8 <__aeabi_dsub>
 80061f8:	460b      	mov	r3, r1
 80061fa:	4602      	mov	r2, r0
 80061fc:	e9cd 230c 	strd	r2, r3, [sp, #48]	@ 0x30
 8006200:	f3cb 0613 	ubfx	r6, fp, #0, #20
 8006204:	9b0f      	ldr	r3, [sp, #60]	@ 0x3c
 8006206:	ea46 060a 	orr.w	r6, r6, sl
 800620a:	431e      	orrs	r6, r3
 800620c:	d06f      	beq.n	80062ee <_strtod_l+0xb86>
 800620e:	a30e      	add	r3, pc, #56	@ (adr r3, 8006248 <_strtod_l+0xae0>)
 8006210:	e9d3 2300 	ldrd	r2, r3, [r3]
 8006214:	f7fa fc7a 	bl	8000b0c <__aeabi_dcmplt>
 8006218:	2800      	cmp	r0, #0
 800621a:	f47f acd3 	bne.w	8005bc4 <_strtod_l+0x45c>
 800621e:	a30c      	add	r3, pc, #48	@ (adr r3, 8006250 <_strtod_l+0xae8>)
 8006220:	e9d3 2300 	ldrd	r2, r3, [r3]
 8006224:	e9dd 010c 	ldrd	r0, r1, [sp, #48]	@ 0x30
 8006228:	f7fa fc8e 	bl	8000b48 <__aeabi_dcmpgt>
 800622c:	2800      	cmp	r0, #0
 800622e:	d093      	beq.n	8006158 <_strtod_l+0x9f0>
 8006230:	e4c8      	b.n	8005bc4 <_strtod_l+0x45c>
 8006232:	bf00      	nop
 8006234:	f3af 8000 	nop.w
 8006238:	00000000 	.word	0x00000000
 800623c:	bff00000 	.word	0xbff00000
 8006240:	00000000 	.word	0x00000000
 8006244:	3ff00000 	.word	0x3ff00000
 8006248:	94a03595 	.word	0x94a03595
 800624c:	3fdfffff 	.word	0x3fdfffff
 8006250:	35afe535 	.word	0x35afe535
 8006254:	3fe00000 	.word	0x3fe00000
 8006258:	000fffff 	.word	0x000fffff
 800625c:	7ff00000 	.word	0x7ff00000
 8006260:	7fefffff 	.word	0x7fefffff
 8006264:	3ff00000 	.word	0x3ff00000
 8006268:	3fe00000 	.word	0x3fe00000
 800626c:	7fe00000 	.word	0x7fe00000
 8006270:	7c9fffff 	.word	0x7c9fffff
 8006274:	9b08      	ldr	r3, [sp, #32]
 8006276:	b323      	cbz	r3, 80062c2 <_strtod_l+0xb5a>
 8006278:	f1b5 6fd4 	cmp.w	r5, #111149056	@ 0x6a00000
 800627c:	d821      	bhi.n	80062c2 <_strtod_l+0xb5a>
 800627e:	a328      	add	r3, pc, #160	@ (adr r3, 8006320 <_strtod_l+0xbb8>)
 8006280:	e9d3 2300 	ldrd	r2, r3, [r3]
 8006284:	4630      	mov	r0, r6
 8006286:	4639      	mov	r1, r7
 8006288:	f7fa fc4a 	bl	8000b20 <__aeabi_dcmple>
 800628c:	b1a0      	cbz	r0, 80062b8 <_strtod_l+0xb50>
 800628e:	4639      	mov	r1, r7
 8006290:	4630      	mov	r0, r6
 8006292:	f7fa fc79 	bl	8000b88 <__aeabi_d2uiz>
 8006296:	2801      	cmp	r0, #1
 8006298:	bf38      	it	cc
 800629a:	2001      	movcc	r0, #1
 800629c:	f7fa f94a 	bl	8000534 <__aeabi_ui2d>
 80062a0:	9b0f      	ldr	r3, [sp, #60]	@ 0x3c
 80062a2:	4606      	mov	r6, r0
 80062a4:	460f      	mov	r7, r1
 80062a6:	b9fb      	cbnz	r3, 80062e8 <_strtod_l+0xb80>
 80062a8:	f101 4300 	add.w	r3, r1, #2147483648	@ 0x80000000
 80062ac:	9014      	str	r0, [sp, #80]	@ 0x50
 80062ae:	9315      	str	r3, [sp, #84]	@ 0x54
 80062b0:	e9dd 2314 	ldrd	r2, r3, [sp, #80]	@ 0x50
 80062b4:	e9cd 2310 	strd	r2, r3, [sp, #64]	@ 0x40
 80062b8:	9b11      	ldr	r3, [sp, #68]	@ 0x44
 80062ba:	f103 63d6 	add.w	r3, r3, #112197632	@ 0x6b00000
 80062be:	1b5b      	subs	r3, r3, r5
 80062c0:	9311      	str	r3, [sp, #68]	@ 0x44
 80062c2:	ed9d 0b0c 	vldr	d0, [sp, #48]	@ 0x30
 80062c6:	e9dd ab10 	ldrd	sl, fp, [sp, #64]	@ 0x40
 80062ca:	f001 faf7 	bl	80078bc <__ulp>
 80062ce:	4650      	mov	r0, sl
 80062d0:	ec53 2b10 	vmov	r2, r3, d0
 80062d4:	4659      	mov	r1, fp
 80062d6:	f7fa f9a7 	bl	8000628 <__aeabi_dmul>
 80062da:	e9dd 230c 	ldrd	r2, r3, [sp, #48]	@ 0x30
 80062de:	f7f9 ffed 	bl	80002bc <__adddf3>
 80062e2:	4682      	mov	sl, r0
 80062e4:	468b      	mov	fp, r1
 80062e6:	e770      	b.n	80061ca <_strtod_l+0xa62>
 80062e8:	e9cd 6714 	strd	r6, r7, [sp, #80]	@ 0x50
 80062ec:	e7e0      	b.n	80062b0 <_strtod_l+0xb48>
 80062ee:	a30e      	add	r3, pc, #56	@ (adr r3, 8006328 <_strtod_l+0xbc0>)
 80062f0:	e9d3 2300 	ldrd	r2, r3, [r3]
 80062f4:	f7fa fc0a 	bl	8000b0c <__aeabi_dcmplt>
 80062f8:	e798      	b.n	800622c <_strtod_l+0xac4>
 80062fa:	2300      	movs	r3, #0
 80062fc:	930e      	str	r3, [sp, #56]	@ 0x38
 80062fe:	9a17      	ldr	r2, [sp, #92]	@ 0x5c
 8006300:	9b19      	ldr	r3, [sp, #100]	@ 0x64
 8006302:	6013      	str	r3, [r2, #0]
 8006304:	f7ff ba6d 	b.w	80057e2 <_strtod_l+0x7a>
 8006308:	2a65      	cmp	r2, #101	@ 0x65
 800630a:	f43f ab68 	beq.w	80059de <_strtod_l+0x276>
 800630e:	2a45      	cmp	r2, #69	@ 0x45
 8006310:	f43f ab65 	beq.w	80059de <_strtod_l+0x276>
 8006314:	2301      	movs	r3, #1
 8006316:	f7ff bba0 	b.w	8005a5a <_strtod_l+0x2f2>
 800631a:	bf00      	nop
 800631c:	f3af 8000 	nop.w
 8006320:	ffc00000 	.word	0xffc00000
 8006324:	41dfffff 	.word	0x41dfffff
 8006328:	94a03595 	.word	0x94a03595
 800632c:	3fcfffff 	.word	0x3fcfffff

08006330 <strtof>:
 8006330:	e92d 41f0 	stmdb	sp!, {r4, r5, r6, r7, r8, lr}
 8006334:	f8df 80bc 	ldr.w	r8, [pc, #188]	@ 80063f4 <strtof+0xc4>
 8006338:	4b29      	ldr	r3, [pc, #164]	@ (80063e0 <strtof+0xb0>)
 800633a:	460a      	mov	r2, r1
 800633c:	ed2d 8b02 	vpush	{d8}
 8006340:	4601      	mov	r1, r0
 8006342:	f8d8 0000 	ldr.w	r0, [r8]
 8006346:	f7ff fa0f 	bl	8005768 <_strtod_l>
 800634a:	ec55 4b10 	vmov	r4, r5, d0
 800634e:	4622      	mov	r2, r4
 8006350:	462b      	mov	r3, r5
 8006352:	4620      	mov	r0, r4
 8006354:	4629      	mov	r1, r5
 8006356:	f7fa fc01 	bl	8000b5c <__aeabi_dcmpun>
 800635a:	b190      	cbz	r0, 8006382 <strtof+0x52>
 800635c:	2d00      	cmp	r5, #0
 800635e:	4821      	ldr	r0, [pc, #132]	@ (80063e4 <strtof+0xb4>)
 8006360:	da09      	bge.n	8006376 <strtof+0x46>
 8006362:	f000 faf5 	bl	8006950 <nanf>
 8006366:	eeb1 8a40 	vneg.f32	s16, s0
 800636a:	eeb0 0a48 	vmov.f32	s0, s16
 800636e:	ecbd 8b02 	vpop	{d8}
 8006372:	e8bd 81f0 	ldmia.w	sp!, {r4, r5, r6, r7, r8, pc}
 8006376:	ecbd 8b02 	vpop	{d8}
 800637a:	e8bd 41f0 	ldmia.w	sp!, {r4, r5, r6, r7, r8, lr}
 800637e:	f000 bae7 	b.w	8006950 <nanf>
 8006382:	4620      	mov	r0, r4
 8006384:	4629      	mov	r1, r5
 8006386:	f7fa fc1f 	bl	8000bc8 <__aeabi_d2f>
 800638a:	ee08 0a10 	vmov	s16, r0
 800638e:	eddf 7a16 	vldr	s15, [pc, #88]	@ 80063e8 <strtof+0xb8>
 8006392:	eeb0 7ac8 	vabs.f32	s14, s16
 8006396:	eeb4 7a67 	vcmp.f32	s14, s15
 800639a:	eef1 fa10 	vmrs	APSR_nzcv, fpscr
 800639e:	dd11      	ble.n	80063c4 <strtof+0x94>
 80063a0:	f025 4700 	bic.w	r7, r5, #2147483648	@ 0x80000000
 80063a4:	4b11      	ldr	r3, [pc, #68]	@ (80063ec <strtof+0xbc>)
 80063a6:	f04f 32ff 	mov.w	r2, #4294967295
 80063aa:	4620      	mov	r0, r4
 80063ac:	4639      	mov	r1, r7
 80063ae:	f7fa fbd5 	bl	8000b5c <__aeabi_dcmpun>
 80063b2:	b980      	cbnz	r0, 80063d6 <strtof+0xa6>
 80063b4:	4b0d      	ldr	r3, [pc, #52]	@ (80063ec <strtof+0xbc>)
 80063b6:	f04f 32ff 	mov.w	r2, #4294967295
 80063ba:	4620      	mov	r0, r4
 80063bc:	4639      	mov	r1, r7
 80063be:	f7fa fbaf 	bl	8000b20 <__aeabi_dcmple>
 80063c2:	b940      	cbnz	r0, 80063d6 <strtof+0xa6>
 80063c4:	ee18 3a10 	vmov	r3, s16
 80063c8:	f013 4fff 	tst.w	r3, #2139095040	@ 0x7f800000
 80063cc:	d1cd      	bne.n	800636a <strtof+0x3a>
 80063ce:	4b08      	ldr	r3, [pc, #32]	@ (80063f0 <strtof+0xc0>)
 80063d0:	402b      	ands	r3, r5
 80063d2:	2b00      	cmp	r3, #0
 80063d4:	d0c9      	beq.n	800636a <strtof+0x3a>
 80063d6:	f8d8 3000 	ldr.w	r3, [r8]
 80063da:	2222      	movs	r2, #34	@ 0x22
 80063dc:	601a      	str	r2, [r3, #0]
 80063de:	e7c4      	b.n	800636a <strtof+0x3a>
 80063e0:	20000124 	.word	0x20000124
 80063e4:	08008a19 	.word	0x08008a19
 80063e8:	7f7fffff 	.word	0x7f7fffff
 80063ec:	7fefffff 	.word	0x7fefffff
 80063f0:	7ff00000 	.word	0x7ff00000
 80063f4:	20000290 	.word	0x20000290

080063f8 <_strtoul_l.isra.0>:
 80063f8:	e92d 43f0 	stmdb	sp!, {r4, r5, r6, r7, r8, r9, lr}
 80063fc:	4e34      	ldr	r6, [pc, #208]	@ (80064d0 <_strtoul_l.isra.0+0xd8>)
 80063fe:	4686      	mov	lr, r0
 8006400:	460d      	mov	r5, r1
 8006402:	4628      	mov	r0, r5
 8006404:	f815 4b01 	ldrb.w	r4, [r5], #1
 8006408:	5d37      	ldrb	r7, [r6, r4]
 800640a:	f017 0708 	ands.w	r7, r7, #8
 800640e:	d1f8      	bne.n	8006402 <_strtoul_l.isra.0+0xa>
 8006410:	2c2d      	cmp	r4, #45	@ 0x2d
 8006412:	d110      	bne.n	8006436 <_strtoul_l.isra.0+0x3e>
 8006414:	782c      	ldrb	r4, [r5, #0]
 8006416:	2701      	movs	r7, #1
 8006418:	1c85      	adds	r5, r0, #2
 800641a:	f033 0010 	bics.w	r0, r3, #16
 800641e:	d115      	bne.n	800644c <_strtoul_l.isra.0+0x54>
 8006420:	2c30      	cmp	r4, #48	@ 0x30
 8006422:	d10d      	bne.n	8006440 <_strtoul_l.isra.0+0x48>
 8006424:	7828      	ldrb	r0, [r5, #0]
 8006426:	f000 00df 	and.w	r0, r0, #223	@ 0xdf
 800642a:	2858      	cmp	r0, #88	@ 0x58
 800642c:	d108      	bne.n	8006440 <_strtoul_l.isra.0+0x48>
 800642e:	786c      	ldrb	r4, [r5, #1]
 8006430:	3502      	adds	r5, #2
 8006432:	2310      	movs	r3, #16
 8006434:	e00a      	b.n	800644c <_strtoul_l.isra.0+0x54>
 8006436:	2c2b      	cmp	r4, #43	@ 0x2b
 8006438:	bf04      	itt	eq
 800643a:	782c      	ldrbeq	r4, [r5, #0]
 800643c:	1c85      	addeq	r5, r0, #2
 800643e:	e7ec      	b.n	800641a <_strtoul_l.isra.0+0x22>
 8006440:	2b00      	cmp	r3, #0
 8006442:	d1f6      	bne.n	8006432 <_strtoul_l.isra.0+0x3a>
 8006444:	2c30      	cmp	r4, #48	@ 0x30
 8006446:	bf14      	ite	ne
 8006448:	230a      	movne	r3, #10
 800644a:	2308      	moveq	r3, #8
 800644c:	f04f 38ff 	mov.w	r8, #4294967295
 8006450:	2600      	movs	r6, #0
 8006452:	fbb8 f8f3 	udiv	r8, r8, r3
 8006456:	fb03 f908 	mul.w	r9, r3, r8
 800645a:	ea6f 0909 	mvn.w	r9, r9
 800645e:	4630      	mov	r0, r6
 8006460:	f1a4 0c30 	sub.w	ip, r4, #48	@ 0x30
 8006464:	f1bc 0f09 	cmp.w	ip, #9
 8006468:	d810      	bhi.n	800648c <_strtoul_l.isra.0+0x94>
 800646a:	4664      	mov	r4, ip
 800646c:	42a3      	cmp	r3, r4
 800646e:	dd1e      	ble.n	80064ae <_strtoul_l.isra.0+0xb6>
 8006470:	f1b6 3fff 	cmp.w	r6, #4294967295
 8006474:	d007      	beq.n	8006486 <_strtoul_l.isra.0+0x8e>
 8006476:	4580      	cmp	r8, r0
 8006478:	d316      	bcc.n	80064a8 <_strtoul_l.isra.0+0xb0>
 800647a:	d101      	bne.n	8006480 <_strtoul_l.isra.0+0x88>
 800647c:	45a1      	cmp	r9, r4
 800647e:	db13      	blt.n	80064a8 <_strtoul_l.isra.0+0xb0>
 8006480:	fb00 4003 	mla	r0, r0, r3, r4
 8006484:	2601      	movs	r6, #1
 8006486:	f815 4b01 	ldrb.w	r4, [r5], #1
 800648a:	e7e9      	b.n	8006460 <_strtoul_l.isra.0+0x68>
 800648c:	f1a4 0c41 	sub.w	ip, r4, #65	@ 0x41
 8006490:	f1bc 0f19 	cmp.w	ip, #25
 8006494:	d801      	bhi.n	800649a <_strtoul_l.isra.0+0xa2>
 8006496:	3c37      	subs	r4, #55	@ 0x37
 8006498:	e7e8      	b.n	800646c <_strtoul_l.isra.0+0x74>
 800649a:	f1a4 0c61 	sub.w	ip, r4, #97	@ 0x61
 800649e:	f1bc 0f19 	cmp.w	ip, #25
 80064a2:	d804      	bhi.n	80064ae <_strtoul_l.isra.0+0xb6>
 80064a4:	3c57      	subs	r4, #87	@ 0x57
 80064a6:	e7e1      	b.n	800646c <_strtoul_l.isra.0+0x74>
 80064a8:	f04f 36ff 	mov.w	r6, #4294967295
 80064ac:	e7eb      	b.n	8006486 <_strtoul_l.isra.0+0x8e>
 80064ae:	1c73      	adds	r3, r6, #1
 80064b0:	d106      	bne.n	80064c0 <_strtoul_l.isra.0+0xc8>
 80064b2:	2322      	movs	r3, #34	@ 0x22
 80064b4:	f8ce 3000 	str.w	r3, [lr]
 80064b8:	4630      	mov	r0, r6
 80064ba:	b932      	cbnz	r2, 80064ca <_strtoul_l.isra.0+0xd2>
 80064bc:	e8bd 83f0 	ldmia.w	sp!, {r4, r5, r6, r7, r8, r9, pc}
 80064c0:	b107      	cbz	r7, 80064c4 <_strtoul_l.isra.0+0xcc>
 80064c2:	4240      	negs	r0, r0
 80064c4:	2a00      	cmp	r2, #0
 80064c6:	d0f9      	beq.n	80064bc <_strtoul_l.isra.0+0xc4>
 80064c8:	b106      	cbz	r6, 80064cc <_strtoul_l.isra.0+0xd4>
 80064ca:	1e69      	subs	r1, r5, #1
 80064cc:	6011      	str	r1, [r2, #0]
 80064ce:	e7f5      	b.n	80064bc <_strtoul_l.isra.0+0xc4>
 80064d0:	08008e49 	.word	0x08008e49

080064d4 <strtoul>:
 80064d4:	4613      	mov	r3, r2
 80064d6:	460a      	mov	r2, r1
 80064d8:	4601      	mov	r1, r0
 80064da:	4802      	ldr	r0, [pc, #8]	@ (80064e4 <strtoul+0x10>)
 80064dc:	6800      	ldr	r0, [r0, #0]
 80064de:	f7ff bf8b 	b.w	80063f8 <_strtoul_l.isra.0>
 80064e2:	bf00      	nop
 80064e4:	20000290 	.word	0x20000290

080064e8 <std>:
 80064e8:	2300      	movs	r3, #0
 80064ea:	b510      	push	{r4, lr}
 80064ec:	4604      	mov	r4, r0
 80064ee:	e9c0 3300 	strd	r3, r3, [r0]
 80064f2:	e9c0 3304 	strd	r3, r3, [r0, #16]
 80064f6:	6083      	str	r3, [r0, #8]
 80064f8:	8181      	strh	r1, [r0, #12]
 80064fa:	6643      	str	r3, [r0, #100]	@ 0x64
 80064fc:	81c2      	strh	r2, [r0, #14]
 80064fe:	6183      	str	r3, [r0, #24]
 8006500:	4619      	mov	r1, r3
 8006502:	2208      	movs	r2, #8
 8006504:	305c      	adds	r0, #92	@ 0x5c
 8006506:	f000 f94b 	bl	80067a0 <memset>
 800650a:	4b0d      	ldr	r3, [pc, #52]	@ (8006540 <std+0x58>)
 800650c:	6263      	str	r3, [r4, #36]	@ 0x24
 800650e:	4b0d      	ldr	r3, [pc, #52]	@ (8006544 <std+0x5c>)
 8006510:	62a3      	str	r3, [r4, #40]	@ 0x28
 8006512:	4b0d      	ldr	r3, [pc, #52]	@ (8006548 <std+0x60>)
 8006514:	62e3      	str	r3, [r4, #44]	@ 0x2c
 8006516:	4b0d      	ldr	r3, [pc, #52]	@ (800654c <std+0x64>)
 8006518:	6323      	str	r3, [r4, #48]	@ 0x30
 800651a:	4b0d      	ldr	r3, [pc, #52]	@ (8006550 <std+0x68>)
 800651c:	6224      	str	r4, [r4, #32]
 800651e:	429c      	cmp	r4, r3
 8006520:	d006      	beq.n	8006530 <std+0x48>
 8006522:	f103 0268 	add.w	r2, r3, #104	@ 0x68
 8006526:	4294      	cmp	r4, r2
 8006528:	d002      	beq.n	8006530 <std+0x48>
 800652a:	33d0      	adds	r3, #208	@ 0xd0
 800652c:	429c      	cmp	r4, r3
 800652e:	d105      	bne.n	800653c <std+0x54>
 8006530:	f104 0058 	add.w	r0, r4, #88	@ 0x58
 8006534:	e8bd 4010 	ldmia.w	sp!, {r4, lr}
 8006538:	f000 b9e8 	b.w	800690c <__retarget_lock_init_recursive>
 800653c:	bd10      	pop	{r4, pc}
 800653e:	bf00      	nop
 8006540:	0800666d 	.word	0x0800666d
 8006544:	0800668f 	.word	0x0800668f
 8006548:	080066c7 	.word	0x080066c7
 800654c:	080066eb 	.word	0x080066eb
 8006550:	20001f58 	.word	0x20001f58

08006554 <stdio_exit_handler>:
 8006554:	4a02      	ldr	r2, [pc, #8]	@ (8006560 <stdio_exit_handler+0xc>)
 8006556:	4903      	ldr	r1, [pc, #12]	@ (8006564 <stdio_exit_handler+0x10>)
 8006558:	4803      	ldr	r0, [pc, #12]	@ (8006568 <stdio_exit_handler+0x14>)
 800655a:	f000 b869 	b.w	8006630 <_fwalk_sglue>
 800655e:	bf00      	nop
 8006560:	20000118 	.word	0x20000118
 8006564:	08008221 	.word	0x08008221
 8006568:	20000294 	.word	0x20000294

0800656c <cleanup_stdio>:
 800656c:	6841      	ldr	r1, [r0, #4]
 800656e:	4b0c      	ldr	r3, [pc, #48]	@ (80065a0 <cleanup_stdio+0x34>)
 8006570:	4299      	cmp	r1, r3
 8006572:	b510      	push	{r4, lr}
 8006574:	4604      	mov	r4, r0
 8006576:	d001      	beq.n	800657c <cleanup_stdio+0x10>
 8006578:	f001 fe52 	bl	8008220 <_fflush_r>
 800657c:	68a1      	ldr	r1, [r4, #8]
 800657e:	4b09      	ldr	r3, [pc, #36]	@ (80065a4 <cleanup_stdio+0x38>)
 8006580:	4299      	cmp	r1, r3
 8006582:	d002      	beq.n	800658a <cleanup_stdio+0x1e>
 8006584:	4620      	mov	r0, r4
 8006586:	f001 fe4b 	bl	8008220 <_fflush_r>
 800658a:	68e1      	ldr	r1, [r4, #12]
 800658c:	4b06      	ldr	r3, [pc, #24]	@ (80065a8 <cleanup_stdio+0x3c>)
 800658e:	4299      	cmp	r1, r3
 8006590:	d004      	beq.n	800659c <cleanup_stdio+0x30>
 8006592:	4620      	mov	r0, r4
 8006594:	e8bd 4010 	ldmia.w	sp!, {r4, lr}
 8006598:	f001 be42 	b.w	8008220 <_fflush_r>
 800659c:	bd10      	pop	{r4, pc}
 800659e:	bf00      	nop
 80065a0:	20001f58 	.word	0x20001f58
 80065a4:	20001fc0 	.word	0x20001fc0
 80065a8:	20002028 	.word	0x20002028

080065ac <global_stdio_init.part.0>:
 80065ac:	b510      	push	{r4, lr}
 80065ae:	4b0b      	ldr	r3, [pc, #44]	@ (80065dc <global_stdio_init.part.0+0x30>)
 80065b0:	4c0b      	ldr	r4, [pc, #44]	@ (80065e0 <global_stdio_init.part.0+0x34>)
 80065b2:	4a0c      	ldr	r2, [pc, #48]	@ (80065e4 <global_stdio_init.part.0+0x38>)
 80065b4:	601a      	str	r2, [r3, #0]
 80065b6:	4620      	mov	r0, r4
 80065b8:	2200      	movs	r2, #0
 80065ba:	2104      	movs	r1, #4
 80065bc:	f7ff ff94 	bl	80064e8 <std>
 80065c0:	f104 0068 	add.w	r0, r4, #104	@ 0x68
 80065c4:	2201      	movs	r2, #1
 80065c6:	2109      	movs	r1, #9
 80065c8:	f7ff ff8e 	bl	80064e8 <std>
 80065cc:	f104 00d0 	add.w	r0, r4, #208	@ 0xd0
 80065d0:	2202      	movs	r2, #2
 80065d2:	e8bd 4010 	ldmia.w	sp!, {r4, lr}
 80065d6:	2112      	movs	r1, #18
 80065d8:	f7ff bf86 	b.w	80064e8 <std>
 80065dc:	20002090 	.word	0x20002090
 80065e0:	20001f58 	.word	0x20001f58
 80065e4:	08006555 	.word	0x08006555

080065e8 <__sfp_lock_acquire>:
 80065e8:	4801      	ldr	r0, [pc, #4]	@ (80065f0 <__sfp_lock_acquire+0x8>)
 80065ea:	f000 b990 	b.w	800690e <__retarget_lock_acquire_recursive>
 80065ee:	bf00      	nop
 80065f0:	20002099 	.word	0x20002099

080065f4 <__sfp_lock_release>:
 80065f4:	4801      	ldr	r0, [pc, #4]	@ (80065fc <__sfp_lock_release+0x8>)
 80065f6:	f000 b98b 	b.w	8006910 <__retarget_lock_release_recursive>
 80065fa:	bf00      	nop
 80065fc:	20002099 	.word	0x20002099

08006600 <__sinit>:
 8006600:	b510      	push	{r4, lr}
 8006602:	4604      	mov	r4, r0
 8006604:	f7ff fff0 	bl	80065e8 <__sfp_lock_acquire>
 8006608:	6a23      	ldr	r3, [r4, #32]
 800660a:	b11b      	cbz	r3, 8006614 <__sinit+0x14>
 800660c:	e8bd 4010 	ldmia.w	sp!, {r4, lr}
 8006610:	f7ff bff0 	b.w	80065f4 <__sfp_lock_release>
 8006614:	4b04      	ldr	r3, [pc, #16]	@ (8006628 <__sinit+0x28>)
 8006616:	6223      	str	r3, [r4, #32]
 8006618:	4b04      	ldr	r3, [pc, #16]	@ (800662c <__sinit+0x2c>)
 800661a:	681b      	ldr	r3, [r3, #0]
 800661c:	2b00      	cmp	r3, #0
 800661e:	d1f5      	bne.n	800660c <__sinit+0xc>
 8006620:	f7ff ffc4 	bl	80065ac <global_stdio_init.part.0>
 8006624:	e7f2      	b.n	800660c <__sinit+0xc>
 8006626:	bf00      	nop
 8006628:	0800656d 	.word	0x0800656d
 800662c:	20002090 	.word	0x20002090

08006630 <_fwalk_sglue>:
 8006630:	e92d 43f8 	stmdb	sp!, {r3, r4, r5, r6, r7, r8, r9, lr}
 8006634:	4607      	mov	r7, r0
 8006636:	4688      	mov	r8, r1
 8006638:	4614      	mov	r4, r2
 800663a:	2600      	movs	r6, #0
 800663c:	e9d4 9501 	ldrd	r9, r5, [r4, #4]
 8006640:	f1b9 0901 	subs.w	r9, r9, #1
 8006644:	d505      	bpl.n	8006652 <_fwalk_sglue+0x22>
 8006646:	6824      	ldr	r4, [r4, #0]
 8006648:	2c00      	cmp	r4, #0
 800664a:	d1f7      	bne.n	800663c <_fwalk_sglue+0xc>
 800664c:	4630      	mov	r0, r6
 800664e:	e8bd 83f8 	ldmia.w	sp!, {r3, r4, r5, r6, r7, r8, r9, pc}
 8006652:	89ab      	ldrh	r3, [r5, #12]
 8006654:	2b01      	cmp	r3, #1
 8006656:	d907      	bls.n	8006668 <_fwalk_sglue+0x38>
 8006658:	f9b5 300e 	ldrsh.w	r3, [r5, #14]
 800665c:	3301      	adds	r3, #1
 800665e:	d003      	beq.n	8006668 <_fwalk_sglue+0x38>
 8006660:	4629      	mov	r1, r5
 8006662:	4638      	mov	r0, r7
 8006664:	47c0      	blx	r8
 8006666:	4306      	orrs	r6, r0
 8006668:	3568      	adds	r5, #104	@ 0x68
 800666a:	e7e9      	b.n	8006640 <_fwalk_sglue+0x10>

0800666c <__sread>:
 800666c:	b510      	push	{r4, lr}
 800666e:	460c      	mov	r4, r1
 8006670:	f9b1 100e 	ldrsh.w	r1, [r1, #14]
 8006674:	f000 f8fc 	bl	8006870 <_read_r>
 8006678:	2800      	cmp	r0, #0
 800667a:	bfab      	itete	ge
 800667c:	6d63      	ldrge	r3, [r4, #84]	@ 0x54
 800667e:	89a3      	ldrhlt	r3, [r4, #12]
 8006680:	181b      	addge	r3, r3, r0
 8006682:	f423 5380 	biclt.w	r3, r3, #4096	@ 0x1000
 8006686:	bfac      	ite	ge
 8006688:	6563      	strge	r3, [r4, #84]	@ 0x54
 800668a:	81a3      	strhlt	r3, [r4, #12]
 800668c:	bd10      	pop	{r4, pc}

0800668e <__swrite>:
 800668e:	e92d 41f0 	stmdb	sp!, {r4, r5, r6, r7, r8, lr}
 8006692:	461f      	mov	r7, r3
 8006694:	898b      	ldrh	r3, [r1, #12]
 8006696:	05db      	lsls	r3, r3, #23
 8006698:	4605      	mov	r5, r0
 800669a:	460c      	mov	r4, r1
 800669c:	4616      	mov	r6, r2
 800669e:	d505      	bpl.n	80066ac <__swrite+0x1e>
 80066a0:	f9b1 100e 	ldrsh.w	r1, [r1, #14]
 80066a4:	2302      	movs	r3, #2
 80066a6:	2200      	movs	r2, #0
 80066a8:	f000 f8d0 	bl	800684c <_lseek_r>
 80066ac:	89a3      	ldrh	r3, [r4, #12]
 80066ae:	f9b4 100e 	ldrsh.w	r1, [r4, #14]
 80066b2:	f423 5380 	bic.w	r3, r3, #4096	@ 0x1000
 80066b6:	81a3      	strh	r3, [r4, #12]
 80066b8:	4632      	mov	r2, r6
 80066ba:	463b      	mov	r3, r7
 80066bc:	4628      	mov	r0, r5
 80066be:	e8bd 41f0 	ldmia.w	sp!, {r4, r5, r6, r7, r8, lr}
 80066c2:	f000 b8e7 	b.w	8006894 <_write_r>

080066c6 <__sseek>:
 80066c6:	b510      	push	{r4, lr}
 80066c8:	460c      	mov	r4, r1
 80066ca:	f9b1 100e 	ldrsh.w	r1, [r1, #14]
 80066ce:	f000 f8bd 	bl	800684c <_lseek_r>
 80066d2:	1c43      	adds	r3, r0, #1
 80066d4:	89a3      	ldrh	r3, [r4, #12]
 80066d6:	bf15      	itete	ne
 80066d8:	6560      	strne	r0, [r4, #84]	@ 0x54
 80066da:	f423 5380 	biceq.w	r3, r3, #4096	@ 0x1000
 80066de:	f443 5380 	orrne.w	r3, r3, #4096	@ 0x1000
 80066e2:	81a3      	strheq	r3, [r4, #12]
 80066e4:	bf18      	it	ne
 80066e6:	81a3      	strhne	r3, [r4, #12]
 80066e8:	bd10      	pop	{r4, pc}

080066ea <__sclose>:
 80066ea:	f9b1 100e 	ldrsh.w	r1, [r1, #14]
 80066ee:	f000 b89d 	b.w	800682c <_close_r>

080066f2 <_vsniprintf_r>:
 80066f2:	b530      	push	{r4, r5, lr}
 80066f4:	4614      	mov	r4, r2
 80066f6:	2c00      	cmp	r4, #0
 80066f8:	b09b      	sub	sp, #108	@ 0x6c
 80066fa:	4605      	mov	r5, r0
 80066fc:	461a      	mov	r2, r3
 80066fe:	da05      	bge.n	800670c <_vsniprintf_r+0x1a>
 8006700:	238b      	movs	r3, #139	@ 0x8b
 8006702:	6003      	str	r3, [r0, #0]
 8006704:	f04f 30ff 	mov.w	r0, #4294967295
 8006708:	b01b      	add	sp, #108	@ 0x6c
 800670a:	bd30      	pop	{r4, r5, pc}
 800670c:	f44f 7302 	mov.w	r3, #520	@ 0x208
 8006710:	f8ad 300c 	strh.w	r3, [sp, #12]
 8006714:	f04f 0300 	mov.w	r3, #0
 8006718:	9319      	str	r3, [sp, #100]	@ 0x64
 800671a:	bf14      	ite	ne
 800671c:	f104 33ff 	addne.w	r3, r4, #4294967295
 8006720:	4623      	moveq	r3, r4
 8006722:	9302      	str	r3, [sp, #8]
 8006724:	9305      	str	r3, [sp, #20]
 8006726:	f64f 73ff 	movw	r3, #65535	@ 0xffff
 800672a:	9100      	str	r1, [sp, #0]
 800672c:	9104      	str	r1, [sp, #16]
 800672e:	f8ad 300e 	strh.w	r3, [sp, #14]
 8006732:	4669      	mov	r1, sp
 8006734:	9b1e      	ldr	r3, [sp, #120]	@ 0x78
 8006736:	f001 fa67 	bl	8007c08 <_svfiprintf_r>
 800673a:	1c43      	adds	r3, r0, #1
 800673c:	bfbc      	itt	lt
 800673e:	238b      	movlt	r3, #139	@ 0x8b
 8006740:	602b      	strlt	r3, [r5, #0]
 8006742:	2c00      	cmp	r4, #0
 8006744:	d0e0      	beq.n	8006708 <_vsniprintf_r+0x16>
 8006746:	9b00      	ldr	r3, [sp, #0]
 8006748:	2200      	movs	r2, #0
 800674a:	701a      	strb	r2, [r3, #0]
 800674c:	e7dc      	b.n	8006708 <_vsniprintf_r+0x16>
	...

08006750 <vsniprintf>:
 8006750:	b507      	push	{r0, r1, r2, lr}
 8006752:	9300      	str	r3, [sp, #0]
 8006754:	4613      	mov	r3, r2
 8006756:	460a      	mov	r2, r1
 8006758:	4601      	mov	r1, r0
 800675a:	4803      	ldr	r0, [pc, #12]	@ (8006768 <vsniprintf+0x18>)
 800675c:	6800      	ldr	r0, [r0, #0]
 800675e:	f7ff ffc8 	bl	80066f2 <_vsniprintf_r>
 8006762:	b003      	add	sp, #12
 8006764:	f85d fb04 	ldr.w	pc, [sp], #4
 8006768:	20000290 	.word	0x20000290

0800676c <memmove>:
 800676c:	4288      	cmp	r0, r1
 800676e:	b510      	push	{r4, lr}
 8006770:	eb01 0402 	add.w	r4, r1, r2
 8006774:	d902      	bls.n	800677c <memmove+0x10>
 8006776:	4284      	cmp	r4, r0
 8006778:	4623      	mov	r3, r4
 800677a:	d807      	bhi.n	800678c <memmove+0x20>
 800677c:	1e43      	subs	r3, r0, #1
 800677e:	42a1      	cmp	r1, r4
 8006780:	d008      	beq.n	8006794 <memmove+0x28>
 8006782:	f811 2b01 	ldrb.w	r2, [r1], #1
 8006786:	f803 2f01 	strb.w	r2, [r3, #1]!
 800678a:	e7f8      	b.n	800677e <memmove+0x12>
 800678c:	4402      	add	r2, r0
 800678e:	4601      	mov	r1, r0
 8006790:	428a      	cmp	r2, r1
 8006792:	d100      	bne.n	8006796 <memmove+0x2a>
 8006794:	bd10      	pop	{r4, pc}
 8006796:	f813 4d01 	ldrb.w	r4, [r3, #-1]!
 800679a:	f802 4d01 	strb.w	r4, [r2, #-1]!
 800679e:	e7f7      	b.n	8006790 <memmove+0x24>

080067a0 <memset>:
 80067a0:	4402      	add	r2, r0
 80067a2:	4603      	mov	r3, r0
 80067a4:	4293      	cmp	r3, r2
 80067a6:	d100      	bne.n	80067aa <memset+0xa>
 80067a8:	4770      	bx	lr
 80067aa:	f803 1b01 	strb.w	r1, [r3], #1
 80067ae:	e7f9      	b.n	80067a4 <memset+0x4>

080067b0 <strncmp>:
 80067b0:	b510      	push	{r4, lr}
 80067b2:	b16a      	cbz	r2, 80067d0 <strncmp+0x20>
 80067b4:	3901      	subs	r1, #1
 80067b6:	1884      	adds	r4, r0, r2
 80067b8:	f810 2b01 	ldrb.w	r2, [r0], #1
 80067bc:	f811 3f01 	ldrb.w	r3, [r1, #1]!
 80067c0:	429a      	cmp	r2, r3
 80067c2:	d103      	bne.n	80067cc <strncmp+0x1c>
 80067c4:	42a0      	cmp	r0, r4
 80067c6:	d001      	beq.n	80067cc <strncmp+0x1c>
 80067c8:	2a00      	cmp	r2, #0
 80067ca:	d1f5      	bne.n	80067b8 <strncmp+0x8>
 80067cc:	1ad0      	subs	r0, r2, r3
 80067ce:	bd10      	pop	{r4, pc}
 80067d0:	4610      	mov	r0, r2
 80067d2:	e7fc      	b.n	80067ce <strncmp+0x1e>

080067d4 <__strtok_r>:
 80067d4:	b5f0      	push	{r4, r5, r6, r7, lr}
 80067d6:	4604      	mov	r4, r0
 80067d8:	b908      	cbnz	r0, 80067de <__strtok_r+0xa>
 80067da:	6814      	ldr	r4, [r2, #0]
 80067dc:	b144      	cbz	r4, 80067f0 <__strtok_r+0x1c>
 80067de:	4620      	mov	r0, r4
 80067e0:	f814 5b01 	ldrb.w	r5, [r4], #1
 80067e4:	460f      	mov	r7, r1
 80067e6:	f817 6b01 	ldrb.w	r6, [r7], #1
 80067ea:	b91e      	cbnz	r6, 80067f4 <__strtok_r+0x20>
 80067ec:	b965      	cbnz	r5, 8006808 <__strtok_r+0x34>
 80067ee:	6015      	str	r5, [r2, #0]
 80067f0:	2000      	movs	r0, #0
 80067f2:	e005      	b.n	8006800 <__strtok_r+0x2c>
 80067f4:	42b5      	cmp	r5, r6
 80067f6:	d1f6      	bne.n	80067e6 <__strtok_r+0x12>
 80067f8:	2b00      	cmp	r3, #0
 80067fa:	d1f0      	bne.n	80067de <__strtok_r+0xa>
 80067fc:	6014      	str	r4, [r2, #0]
 80067fe:	7003      	strb	r3, [r0, #0]
 8006800:	bdf0      	pop	{r4, r5, r6, r7, pc}
 8006802:	461c      	mov	r4, r3
 8006804:	e00c      	b.n	8006820 <__strtok_r+0x4c>
 8006806:	b91d      	cbnz	r5, 8006810 <__strtok_r+0x3c>
 8006808:	4627      	mov	r7, r4
 800680a:	f814 3b01 	ldrb.w	r3, [r4], #1
 800680e:	460e      	mov	r6, r1
 8006810:	f816 5b01 	ldrb.w	r5, [r6], #1
 8006814:	42ab      	cmp	r3, r5
 8006816:	d1f6      	bne.n	8006806 <__strtok_r+0x32>
 8006818:	2b00      	cmp	r3, #0
 800681a:	d0f2      	beq.n	8006802 <__strtok_r+0x2e>
 800681c:	2300      	movs	r3, #0
 800681e:	703b      	strb	r3, [r7, #0]
 8006820:	6014      	str	r4, [r2, #0]
 8006822:	e7ed      	b.n	8006800 <__strtok_r+0x2c>

08006824 <strtok_r>:
 8006824:	2301      	movs	r3, #1
 8006826:	f7ff bfd5 	b.w	80067d4 <__strtok_r>
	...

0800682c <_close_r>:
 800682c:	b538      	push	{r3, r4, r5, lr}
 800682e:	4d06      	ldr	r5, [pc, #24]	@ (8006848 <_close_r+0x1c>)
 8006830:	2300      	movs	r3, #0
 8006832:	4604      	mov	r4, r0
 8006834:	4608      	mov	r0, r1
 8006836:	602b      	str	r3, [r5, #0]
 8006838:	f7fa fd74 	bl	8001324 <_close>
 800683c:	1c43      	adds	r3, r0, #1
 800683e:	d102      	bne.n	8006846 <_close_r+0x1a>
 8006840:	682b      	ldr	r3, [r5, #0]
 8006842:	b103      	cbz	r3, 8006846 <_close_r+0x1a>
 8006844:	6023      	str	r3, [r4, #0]
 8006846:	bd38      	pop	{r3, r4, r5, pc}
 8006848:	20002094 	.word	0x20002094

0800684c <_lseek_r>:
 800684c:	b538      	push	{r3, r4, r5, lr}
 800684e:	4d07      	ldr	r5, [pc, #28]	@ (800686c <_lseek_r+0x20>)
 8006850:	4604      	mov	r4, r0
 8006852:	4608      	mov	r0, r1
 8006854:	4611      	mov	r1, r2
 8006856:	2200      	movs	r2, #0
 8006858:	602a      	str	r2, [r5, #0]
 800685a:	461a      	mov	r2, r3
 800685c:	f7fa fd6c 	bl	8001338 <_lseek>
 8006860:	1c43      	adds	r3, r0, #1
 8006862:	d102      	bne.n	800686a <_lseek_r+0x1e>
 8006864:	682b      	ldr	r3, [r5, #0]
 8006866:	b103      	cbz	r3, 800686a <_lseek_r+0x1e>
 8006868:	6023      	str	r3, [r4, #0]
 800686a:	bd38      	pop	{r3, r4, r5, pc}
 800686c:	20002094 	.word	0x20002094

08006870 <_read_r>:
 8006870:	b538      	push	{r3, r4, r5, lr}
 8006872:	4d07      	ldr	r5, [pc, #28]	@ (8006890 <_read_r+0x20>)
 8006874:	4604      	mov	r4, r0
 8006876:	4608      	mov	r0, r1
 8006878:	4611      	mov	r1, r2
 800687a:	2200      	movs	r2, #0
 800687c:	602a      	str	r2, [r5, #0]
 800687e:	461a      	mov	r2, r3
 8006880:	f7fa fd34 	bl	80012ec <_read>
 8006884:	1c43      	adds	r3, r0, #1
 8006886:	d102      	bne.n	800688e <_read_r+0x1e>
 8006888:	682b      	ldr	r3, [r5, #0]
 800688a:	b103      	cbz	r3, 800688e <_read_r+0x1e>
 800688c:	6023      	str	r3, [r4, #0]
 800688e:	bd38      	pop	{r3, r4, r5, pc}
 8006890:	20002094 	.word	0x20002094

08006894 <_write_r>:
 8006894:	b538      	push	{r3, r4, r5, lr}
 8006896:	4d07      	ldr	r5, [pc, #28]	@ (80068b4 <_write_r+0x20>)
 8006898:	4604      	mov	r4, r0
 800689a:	4608      	mov	r0, r1
 800689c:	4611      	mov	r1, r2
 800689e:	2200      	movs	r2, #0
 80068a0:	602a      	str	r2, [r5, #0]
 80068a2:	461a      	mov	r2, r3
 80068a4:	f7fa fd30 	bl	8001308 <_write>
 80068a8:	1c43      	adds	r3, r0, #1
 80068aa:	d102      	bne.n	80068b2 <_write_r+0x1e>
 80068ac:	682b      	ldr	r3, [r5, #0]
 80068ae:	b103      	cbz	r3, 80068b2 <_write_r+0x1e>
 80068b0:	6023      	str	r3, [r4, #0]
 80068b2:	bd38      	pop	{r3, r4, r5, pc}
 80068b4:	20002094 	.word	0x20002094

080068b8 <__errno>:
 80068b8:	4b01      	ldr	r3, [pc, #4]	@ (80068c0 <__errno+0x8>)
 80068ba:	6818      	ldr	r0, [r3, #0]
 80068bc:	4770      	bx	lr
 80068be:	bf00      	nop
 80068c0:	20000290 	.word	0x20000290

080068c4 <__libc_init_array>:
 80068c4:	b570      	push	{r4, r5, r6, lr}
 80068c6:	4d0d      	ldr	r5, [pc, #52]	@ (80068fc <__libc_init_array+0x38>)
 80068c8:	4c0d      	ldr	r4, [pc, #52]	@ (8006900 <__libc_init_array+0x3c>)
 80068ca:	1b64      	subs	r4, r4, r5
 80068cc:	10a4      	asrs	r4, r4, #2
 80068ce:	2600      	movs	r6, #0
 80068d0:	42a6      	cmp	r6, r4
 80068d2:	d109      	bne.n	80068e8 <__libc_init_array+0x24>
 80068d4:	4d0b      	ldr	r5, [pc, #44]	@ (8006904 <__libc_init_array+0x40>)
 80068d6:	4c0c      	ldr	r4, [pc, #48]	@ (8006908 <__libc_init_array+0x44>)
 80068d8:	f002 f800 	bl	80088dc <_init>
 80068dc:	1b64      	subs	r4, r4, r5
 80068de:	10a4      	asrs	r4, r4, #2
 80068e0:	2600      	movs	r6, #0
 80068e2:	42a6      	cmp	r6, r4
 80068e4:	d105      	bne.n	80068f2 <__libc_init_array+0x2e>
 80068e6:	bd70      	pop	{r4, r5, r6, pc}
 80068e8:	f855 3b04 	ldr.w	r3, [r5], #4
 80068ec:	4798      	blx	r3
 80068ee:	3601      	adds	r6, #1
 80068f0:	e7ee      	b.n	80068d0 <__libc_init_array+0xc>
 80068f2:	f855 3b04 	ldr.w	r3, [r5], #4
 80068f6:	4798      	blx	r3
 80068f8:	3601      	adds	r6, #1
 80068fa:	e7f2      	b.n	80068e2 <__libc_init_array+0x1e>
 80068fc:	08009050 	.word	0x08009050
 8006900:	08009050 	.word	0x08009050
 8006904:	08009050 	.word	0x08009050
 8006908:	08009054 	.word	0x08009054

0800690c <__retarget_lock_init_recursive>:
 800690c:	4770      	bx	lr

0800690e <__retarget_lock_acquire_recursive>:
 800690e:	4770      	bx	lr

08006910 <__retarget_lock_release_recursive>:
 8006910:	4770      	bx	lr

08006912 <strcpy>:
 8006912:	4603      	mov	r3, r0
 8006914:	f811 2b01 	ldrb.w	r2, [r1], #1
 8006918:	f803 2b01 	strb.w	r2, [r3], #1
 800691c:	2a00      	cmp	r2, #0
 800691e:	d1f9      	bne.n	8006914 <strcpy+0x2>
 8006920:	4770      	bx	lr

08006922 <memcpy>:
 8006922:	440a      	add	r2, r1
 8006924:	4291      	cmp	r1, r2
 8006926:	f100 33ff 	add.w	r3, r0, #4294967295
 800692a:	d100      	bne.n	800692e <memcpy+0xc>
 800692c:	4770      	bx	lr
 800692e:	b510      	push	{r4, lr}
 8006930:	f811 4b01 	ldrb.w	r4, [r1], #1
 8006934:	f803 4f01 	strb.w	r4, [r3, #1]!
 8006938:	4291      	cmp	r1, r2
 800693a:	d1f9      	bne.n	8006930 <memcpy+0xe>
 800693c:	bd10      	pop	{r4, pc}
	...

08006940 <nan>:
 8006940:	ed9f 0b01 	vldr	d0, [pc, #4]	@ 8006948 <nan+0x8>
 8006944:	4770      	bx	lr
 8006946:	bf00      	nop
 8006948:	00000000 	.word	0x00000000
 800694c:	7ff80000 	.word	0x7ff80000

08006950 <nanf>:
 8006950:	ed9f 0a01 	vldr	s0, [pc, #4]	@ 8006958 <nanf+0x8>
 8006954:	4770      	bx	lr
 8006956:	bf00      	nop
 8006958:	7fc00000 	.word	0x7fc00000

0800695c <_free_r>:
 800695c:	b538      	push	{r3, r4, r5, lr}
 800695e:	4605      	mov	r5, r0
 8006960:	2900      	cmp	r1, #0
 8006962:	d041      	beq.n	80069e8 <_free_r+0x8c>
 8006964:	f851 3c04 	ldr.w	r3, [r1, #-4]
 8006968:	1f0c      	subs	r4, r1, #4
 800696a:	2b00      	cmp	r3, #0
 800696c:	bfb8      	it	lt
 800696e:	18e4      	addlt	r4, r4, r3
 8006970:	f000 fc2c 	bl	80071cc <__malloc_lock>
 8006974:	4a1d      	ldr	r2, [pc, #116]	@ (80069ec <_free_r+0x90>)
 8006976:	6813      	ldr	r3, [r2, #0]
 8006978:	b933      	cbnz	r3, 8006988 <_free_r+0x2c>
 800697a:	6063      	str	r3, [r4, #4]
 800697c:	6014      	str	r4, [r2, #0]
 800697e:	4628      	mov	r0, r5
 8006980:	e8bd 4038 	ldmia.w	sp!, {r3, r4, r5, lr}
 8006984:	f000 bc28 	b.w	80071d8 <__malloc_unlock>
 8006988:	42a3      	cmp	r3, r4
 800698a:	d908      	bls.n	800699e <_free_r+0x42>
 800698c:	6820      	ldr	r0, [r4, #0]
 800698e:	1821      	adds	r1, r4, r0
 8006990:	428b      	cmp	r3, r1
 8006992:	bf01      	itttt	eq
 8006994:	6819      	ldreq	r1, [r3, #0]
 8006996:	685b      	ldreq	r3, [r3, #4]
 8006998:	1809      	addeq	r1, r1, r0
 800699a:	6021      	streq	r1, [r4, #0]
 800699c:	e7ed      	b.n	800697a <_free_r+0x1e>
 800699e:	461a      	mov	r2, r3
 80069a0:	685b      	ldr	r3, [r3, #4]
 80069a2:	b10b      	cbz	r3, 80069a8 <_free_r+0x4c>
 80069a4:	42a3      	cmp	r3, r4
 80069a6:	d9fa      	bls.n	800699e <_free_r+0x42>
 80069a8:	6811      	ldr	r1, [r2, #0]
 80069aa:	1850      	adds	r0, r2, r1
 80069ac:	42a0      	cmp	r0, r4
 80069ae:	d10b      	bne.n	80069c8 <_free_r+0x6c>
 80069b0:	6820      	ldr	r0, [r4, #0]
 80069b2:	4401      	add	r1, r0
 80069b4:	1850      	adds	r0, r2, r1
 80069b6:	4283      	cmp	r3, r0
 80069b8:	6011      	str	r1, [r2, #0]
 80069ba:	d1e0      	bne.n	800697e <_free_r+0x22>
 80069bc:	6818      	ldr	r0, [r3, #0]
 80069be:	685b      	ldr	r3, [r3, #4]
 80069c0:	6053      	str	r3, [r2, #4]
 80069c2:	4408      	add	r0, r1
 80069c4:	6010      	str	r0, [r2, #0]
 80069c6:	e7da      	b.n	800697e <_free_r+0x22>
 80069c8:	d902      	bls.n	80069d0 <_free_r+0x74>
 80069ca:	230c      	movs	r3, #12
 80069cc:	602b      	str	r3, [r5, #0]
 80069ce:	e7d6      	b.n	800697e <_free_r+0x22>
 80069d0:	6820      	ldr	r0, [r4, #0]
 80069d2:	1821      	adds	r1, r4, r0
 80069d4:	428b      	cmp	r3, r1
 80069d6:	bf04      	itt	eq
 80069d8:	6819      	ldreq	r1, [r3, #0]
 80069da:	685b      	ldreq	r3, [r3, #4]
 80069dc:	6063      	str	r3, [r4, #4]
 80069de:	bf04      	itt	eq
 80069e0:	1809      	addeq	r1, r1, r0
 80069e2:	6021      	streq	r1, [r4, #0]
 80069e4:	6054      	str	r4, [r2, #4]
 80069e6:	e7ca      	b.n	800697e <_free_r+0x22>
 80069e8:	bd38      	pop	{r3, r4, r5, pc}
 80069ea:	bf00      	nop
 80069ec:	200020a0 	.word	0x200020a0

080069f0 <rshift>:
 80069f0:	6903      	ldr	r3, [r0, #16]
 80069f2:	ebb3 1f61 	cmp.w	r3, r1, asr #5
 80069f6:	e92d 43f0 	stmdb	sp!, {r4, r5, r6, r7, r8, r9, lr}
 80069fa:	ea4f 1261 	mov.w	r2, r1, asr #5
 80069fe:	f100 0414 	add.w	r4, r0, #20
 8006a02:	dd45      	ble.n	8006a90 <rshift+0xa0>
 8006a04:	f011 011f 	ands.w	r1, r1, #31
 8006a08:	eb04 0683 	add.w	r6, r4, r3, lsl #2
 8006a0c:	eb04 0582 	add.w	r5, r4, r2, lsl #2
 8006a10:	d10c      	bne.n	8006a2c <rshift+0x3c>
 8006a12:	f100 0710 	add.w	r7, r0, #16
 8006a16:	4629      	mov	r1, r5
 8006a18:	42b1      	cmp	r1, r6
 8006a1a:	d334      	bcc.n	8006a86 <rshift+0x96>
 8006a1c:	1a9b      	subs	r3, r3, r2
 8006a1e:	009b      	lsls	r3, r3, #2
 8006a20:	1eea      	subs	r2, r5, #3
 8006a22:	4296      	cmp	r6, r2
 8006a24:	bf38      	it	cc
 8006a26:	2300      	movcc	r3, #0
 8006a28:	4423      	add	r3, r4
 8006a2a:	e015      	b.n	8006a58 <rshift+0x68>
 8006a2c:	f854 7022 	ldr.w	r7, [r4, r2, lsl #2]
 8006a30:	f1c1 0820 	rsb	r8, r1, #32
 8006a34:	40cf      	lsrs	r7, r1
 8006a36:	f105 0e04 	add.w	lr, r5, #4
 8006a3a:	46a1      	mov	r9, r4
 8006a3c:	4576      	cmp	r6, lr
 8006a3e:	46f4      	mov	ip, lr
 8006a40:	d815      	bhi.n	8006a6e <rshift+0x7e>
 8006a42:	1a9a      	subs	r2, r3, r2
 8006a44:	0092      	lsls	r2, r2, #2
 8006a46:	3a04      	subs	r2, #4
 8006a48:	3501      	adds	r5, #1
 8006a4a:	42ae      	cmp	r6, r5
 8006a4c:	bf38      	it	cc
 8006a4e:	2200      	movcc	r2, #0
 8006a50:	18a3      	adds	r3, r4, r2
 8006a52:	50a7      	str	r7, [r4, r2]
 8006a54:	b107      	cbz	r7, 8006a58 <rshift+0x68>
 8006a56:	3304      	adds	r3, #4
 8006a58:	1b1a      	subs	r2, r3, r4
 8006a5a:	42a3      	cmp	r3, r4
 8006a5c:	ea4f 02a2 	mov.w	r2, r2, asr #2
 8006a60:	bf08      	it	eq
 8006a62:	2300      	moveq	r3, #0
 8006a64:	6102      	str	r2, [r0, #16]
 8006a66:	bf08      	it	eq
 8006a68:	6143      	streq	r3, [r0, #20]
 8006a6a:	e8bd 83f0 	ldmia.w	sp!, {r4, r5, r6, r7, r8, r9, pc}
 8006a6e:	f8dc c000 	ldr.w	ip, [ip]
 8006a72:	fa0c fc08 	lsl.w	ip, ip, r8
 8006a76:	ea4c 0707 	orr.w	r7, ip, r7
 8006a7a:	f849 7b04 	str.w	r7, [r9], #4
 8006a7e:	f85e 7b04 	ldr.w	r7, [lr], #4
 8006a82:	40cf      	lsrs	r7, r1
 8006a84:	e7da      	b.n	8006a3c <rshift+0x4c>
 8006a86:	f851 cb04 	ldr.w	ip, [r1], #4
 8006a8a:	f847 cf04 	str.w	ip, [r7, #4]!
 8006a8e:	e7c3      	b.n	8006a18 <rshift+0x28>
 8006a90:	4623      	mov	r3, r4
 8006a92:	e7e1      	b.n	8006a58 <rshift+0x68>

08006a94 <__hexdig_fun>:
 8006a94:	f1a0 0330 	sub.w	r3, r0, #48	@ 0x30
 8006a98:	2b09      	cmp	r3, #9
 8006a9a:	d802      	bhi.n	8006aa2 <__hexdig_fun+0xe>
 8006a9c:	3820      	subs	r0, #32
 8006a9e:	b2c0      	uxtb	r0, r0
 8006aa0:	4770      	bx	lr
 8006aa2:	f1a0 0361 	sub.w	r3, r0, #97	@ 0x61
 8006aa6:	2b05      	cmp	r3, #5
 8006aa8:	d801      	bhi.n	8006aae <__hexdig_fun+0x1a>
 8006aaa:	3847      	subs	r0, #71	@ 0x47
 8006aac:	e7f7      	b.n	8006a9e <__hexdig_fun+0xa>
 8006aae:	f1a0 0341 	sub.w	r3, r0, #65	@ 0x41
 8006ab2:	2b05      	cmp	r3, #5
 8006ab4:	d801      	bhi.n	8006aba <__hexdig_fun+0x26>
 8006ab6:	3827      	subs	r0, #39	@ 0x27
 8006ab8:	e7f1      	b.n	8006a9e <__hexdig_fun+0xa>
 8006aba:	2000      	movs	r0, #0
 8006abc:	4770      	bx	lr
	...

08006ac0 <__gethex>:
 8006ac0:	e92d 4ff0 	stmdb	sp!, {r4, r5, r6, r7, r8, r9, sl, fp, lr}
 8006ac4:	b085      	sub	sp, #20
 8006ac6:	468a      	mov	sl, r1
 8006ac8:	9302      	str	r3, [sp, #8]
 8006aca:	680b      	ldr	r3, [r1, #0]
 8006acc:	9001      	str	r0, [sp, #4]
 8006ace:	4690      	mov	r8, r2
 8006ad0:	1c9c      	adds	r4, r3, #2
 8006ad2:	46a1      	mov	r9, r4
 8006ad4:	f814 0b01 	ldrb.w	r0, [r4], #1
 8006ad8:	2830      	cmp	r0, #48	@ 0x30
 8006ada:	d0fa      	beq.n	8006ad2 <__gethex+0x12>
 8006adc:	eba9 0303 	sub.w	r3, r9, r3
 8006ae0:	f1a3 0b02 	sub.w	fp, r3, #2
 8006ae4:	f7ff ffd6 	bl	8006a94 <__hexdig_fun>
 8006ae8:	4605      	mov	r5, r0
 8006aea:	2800      	cmp	r0, #0
 8006aec:	d168      	bne.n	8006bc0 <__gethex+0x100>
 8006aee:	49a0      	ldr	r1, [pc, #640]	@ (8006d70 <__gethex+0x2b0>)
 8006af0:	2201      	movs	r2, #1
 8006af2:	4648      	mov	r0, r9
 8006af4:	f7ff fe5c 	bl	80067b0 <strncmp>
 8006af8:	4607      	mov	r7, r0
 8006afa:	2800      	cmp	r0, #0
 8006afc:	d167      	bne.n	8006bce <__gethex+0x10e>
 8006afe:	f899 0001 	ldrb.w	r0, [r9, #1]
 8006b02:	4626      	mov	r6, r4
 8006b04:	f7ff ffc6 	bl	8006a94 <__hexdig_fun>
 8006b08:	2800      	cmp	r0, #0
 8006b0a:	d062      	beq.n	8006bd2 <__gethex+0x112>
 8006b0c:	4623      	mov	r3, r4
 8006b0e:	7818      	ldrb	r0, [r3, #0]
 8006b10:	2830      	cmp	r0, #48	@ 0x30
 8006b12:	4699      	mov	r9, r3
 8006b14:	f103 0301 	add.w	r3, r3, #1
 8006b18:	d0f9      	beq.n	8006b0e <__gethex+0x4e>
 8006b1a:	f7ff ffbb 	bl	8006a94 <__hexdig_fun>
 8006b1e:	fab0 f580 	clz	r5, r0
 8006b22:	096d      	lsrs	r5, r5, #5
 8006b24:	f04f 0b01 	mov.w	fp, #1
 8006b28:	464a      	mov	r2, r9
 8006b2a:	4616      	mov	r6, r2
 8006b2c:	3201      	adds	r2, #1
 8006b2e:	7830      	ldrb	r0, [r6, #0]
 8006b30:	f7ff ffb0 	bl	8006a94 <__hexdig_fun>
 8006b34:	2800      	cmp	r0, #0
 8006b36:	d1f8      	bne.n	8006b2a <__gethex+0x6a>
 8006b38:	498d      	ldr	r1, [pc, #564]	@ (8006d70 <__gethex+0x2b0>)
 8006b3a:	2201      	movs	r2, #1
 8006b3c:	4630      	mov	r0, r6
 8006b3e:	f7ff fe37 	bl	80067b0 <strncmp>
 8006b42:	2800      	cmp	r0, #0
 8006b44:	d13f      	bne.n	8006bc6 <__gethex+0x106>
 8006b46:	b944      	cbnz	r4, 8006b5a <__gethex+0x9a>
 8006b48:	1c74      	adds	r4, r6, #1
 8006b4a:	4622      	mov	r2, r4
 8006b4c:	4616      	mov	r6, r2
 8006b4e:	3201      	adds	r2, #1
 8006b50:	7830      	ldrb	r0, [r6, #0]
 8006b52:	f7ff ff9f 	bl	8006a94 <__hexdig_fun>
 8006b56:	2800      	cmp	r0, #0
 8006b58:	d1f8      	bne.n	8006b4c <__gethex+0x8c>
 8006b5a:	1ba4      	subs	r4, r4, r6
 8006b5c:	00a7      	lsls	r7, r4, #2
 8006b5e:	7833      	ldrb	r3, [r6, #0]
 8006b60:	f003 03df 	and.w	r3, r3, #223	@ 0xdf
 8006b64:	2b50      	cmp	r3, #80	@ 0x50
 8006b66:	d13e      	bne.n	8006be6 <__gethex+0x126>
 8006b68:	7873      	ldrb	r3, [r6, #1]
 8006b6a:	2b2b      	cmp	r3, #43	@ 0x2b
 8006b6c:	d033      	beq.n	8006bd6 <__gethex+0x116>
 8006b6e:	2b2d      	cmp	r3, #45	@ 0x2d
 8006b70:	d034      	beq.n	8006bdc <__gethex+0x11c>
 8006b72:	1c71      	adds	r1, r6, #1
 8006b74:	2400      	movs	r4, #0
 8006b76:	7808      	ldrb	r0, [r1, #0]
 8006b78:	f7ff ff8c 	bl	8006a94 <__hexdig_fun>
 8006b7c:	1e43      	subs	r3, r0, #1
 8006b7e:	b2db      	uxtb	r3, r3
 8006b80:	2b18      	cmp	r3, #24
 8006b82:	d830      	bhi.n	8006be6 <__gethex+0x126>
 8006b84:	f1a0 0210 	sub.w	r2, r0, #16
 8006b88:	f811 0f01 	ldrb.w	r0, [r1, #1]!
 8006b8c:	f7ff ff82 	bl	8006a94 <__hexdig_fun>
 8006b90:	f100 3cff 	add.w	ip, r0, #4294967295
 8006b94:	fa5f fc8c 	uxtb.w	ip, ip
 8006b98:	f1bc 0f18 	cmp.w	ip, #24
 8006b9c:	f04f 030a 	mov.w	r3, #10
 8006ba0:	d91e      	bls.n	8006be0 <__gethex+0x120>
 8006ba2:	b104      	cbz	r4, 8006ba6 <__gethex+0xe6>
 8006ba4:	4252      	negs	r2, r2
 8006ba6:	4417      	add	r7, r2
 8006ba8:	f8ca 1000 	str.w	r1, [sl]
 8006bac:	b1ed      	cbz	r5, 8006bea <__gethex+0x12a>
 8006bae:	f1bb 0f00 	cmp.w	fp, #0
 8006bb2:	bf0c      	ite	eq
 8006bb4:	2506      	moveq	r5, #6
 8006bb6:	2500      	movne	r5, #0
 8006bb8:	4628      	mov	r0, r5
 8006bba:	b005      	add	sp, #20
 8006bbc:	e8bd 8ff0 	ldmia.w	sp!, {r4, r5, r6, r7, r8, r9, sl, fp, pc}
 8006bc0:	2500      	movs	r5, #0
 8006bc2:	462c      	mov	r4, r5
 8006bc4:	e7b0      	b.n	8006b28 <__gethex+0x68>
 8006bc6:	2c00      	cmp	r4, #0
 8006bc8:	d1c7      	bne.n	8006b5a <__gethex+0x9a>
 8006bca:	4627      	mov	r7, r4
 8006bcc:	e7c7      	b.n	8006b5e <__gethex+0x9e>
 8006bce:	464e      	mov	r6, r9
 8006bd0:	462f      	mov	r7, r5
 8006bd2:	2501      	movs	r5, #1
 8006bd4:	e7c3      	b.n	8006b5e <__gethex+0x9e>
 8006bd6:	2400      	movs	r4, #0
 8006bd8:	1cb1      	adds	r1, r6, #2
 8006bda:	e7cc      	b.n	8006b76 <__gethex+0xb6>
 8006bdc:	2401      	movs	r4, #1
 8006bde:	e7fb      	b.n	8006bd8 <__gethex+0x118>
 8006be0:	fb03 0002 	mla	r0, r3, r2, r0
 8006be4:	e7ce      	b.n	8006b84 <__gethex+0xc4>
 8006be6:	4631      	mov	r1, r6
 8006be8:	e7de      	b.n	8006ba8 <__gethex+0xe8>
 8006bea:	eba6 0309 	sub.w	r3, r6, r9
 8006bee:	3b01      	subs	r3, #1
 8006bf0:	4629      	mov	r1, r5
 8006bf2:	2b07      	cmp	r3, #7
 8006bf4:	dc0a      	bgt.n	8006c0c <__gethex+0x14c>
 8006bf6:	9801      	ldr	r0, [sp, #4]
 8006bf8:	f000 faf4 	bl	80071e4 <_Balloc>
 8006bfc:	4604      	mov	r4, r0
 8006bfe:	b940      	cbnz	r0, 8006c12 <__gethex+0x152>
 8006c00:	4b5c      	ldr	r3, [pc, #368]	@ (8006d74 <__gethex+0x2b4>)
 8006c02:	4602      	mov	r2, r0
 8006c04:	21e4      	movs	r1, #228	@ 0xe4
 8006c06:	485c      	ldr	r0, [pc, #368]	@ (8006d78 <__gethex+0x2b8>)
 8006c08:	f001 fb42 	bl	8008290 <__assert_func>
 8006c0c:	3101      	adds	r1, #1
 8006c0e:	105b      	asrs	r3, r3, #1
 8006c10:	e7ef      	b.n	8006bf2 <__gethex+0x132>
 8006c12:	f100 0a14 	add.w	sl, r0, #20
 8006c16:	2300      	movs	r3, #0
 8006c18:	4655      	mov	r5, sl
 8006c1a:	469b      	mov	fp, r3
 8006c1c:	45b1      	cmp	r9, r6
 8006c1e:	d337      	bcc.n	8006c90 <__gethex+0x1d0>
 8006c20:	f845 bb04 	str.w	fp, [r5], #4
 8006c24:	eba5 050a 	sub.w	r5, r5, sl
 8006c28:	10ad      	asrs	r5, r5, #2
 8006c2a:	6125      	str	r5, [r4, #16]
 8006c2c:	4658      	mov	r0, fp
 8006c2e:	f000 fbcb 	bl	80073c8 <__hi0bits>
 8006c32:	016d      	lsls	r5, r5, #5
 8006c34:	f8d8 6000 	ldr.w	r6, [r8]
 8006c38:	1a2d      	subs	r5, r5, r0
 8006c3a:	42b5      	cmp	r5, r6
 8006c3c:	dd54      	ble.n	8006ce8 <__gethex+0x228>
 8006c3e:	1bad      	subs	r5, r5, r6
 8006c40:	4629      	mov	r1, r5
 8006c42:	4620      	mov	r0, r4
 8006c44:	f000 ff57 	bl	8007af6 <__any_on>
 8006c48:	4681      	mov	r9, r0
 8006c4a:	b178      	cbz	r0, 8006c6c <__gethex+0x1ac>
 8006c4c:	1e6b      	subs	r3, r5, #1
 8006c4e:	1159      	asrs	r1, r3, #5
 8006c50:	f003 021f 	and.w	r2, r3, #31
 8006c54:	f85a 1021 	ldr.w	r1, [sl, r1, lsl #2]
 8006c58:	f04f 0901 	mov.w	r9, #1
 8006c5c:	fa09 f202 	lsl.w	r2, r9, r2
 8006c60:	420a      	tst	r2, r1
 8006c62:	d003      	beq.n	8006c6c <__gethex+0x1ac>
 8006c64:	454b      	cmp	r3, r9
 8006c66:	dc36      	bgt.n	8006cd6 <__gethex+0x216>
 8006c68:	f04f 0902 	mov.w	r9, #2
 8006c6c:	4629      	mov	r1, r5
 8006c6e:	4620      	mov	r0, r4
 8006c70:	f7ff febe 	bl	80069f0 <rshift>
 8006c74:	442f      	add	r7, r5
 8006c76:	f8d8 3008 	ldr.w	r3, [r8, #8]
 8006c7a:	42bb      	cmp	r3, r7
 8006c7c:	da42      	bge.n	8006d04 <__gethex+0x244>
 8006c7e:	9801      	ldr	r0, [sp, #4]
 8006c80:	4621      	mov	r1, r4
 8006c82:	f000 faef 	bl	8007264 <_Bfree>
 8006c86:	9a0e      	ldr	r2, [sp, #56]	@ 0x38
 8006c88:	2300      	movs	r3, #0
 8006c8a:	6013      	str	r3, [r2, #0]
 8006c8c:	25a3      	movs	r5, #163	@ 0xa3
 8006c8e:	e793      	b.n	8006bb8 <__gethex+0xf8>
 8006c90:	f816 2d01 	ldrb.w	r2, [r6, #-1]!
 8006c94:	2a2e      	cmp	r2, #46	@ 0x2e
 8006c96:	d012      	beq.n	8006cbe <__gethex+0x1fe>
 8006c98:	2b20      	cmp	r3, #32
 8006c9a:	d104      	bne.n	8006ca6 <__gethex+0x1e6>
 8006c9c:	f845 bb04 	str.w	fp, [r5], #4
 8006ca0:	f04f 0b00 	mov.w	fp, #0
 8006ca4:	465b      	mov	r3, fp
 8006ca6:	7830      	ldrb	r0, [r6, #0]
 8006ca8:	9303      	str	r3, [sp, #12]
 8006caa:	f7ff fef3 	bl	8006a94 <__hexdig_fun>
 8006cae:	9b03      	ldr	r3, [sp, #12]
 8006cb0:	f000 000f 	and.w	r0, r0, #15
 8006cb4:	4098      	lsls	r0, r3
 8006cb6:	ea4b 0b00 	orr.w	fp, fp, r0
 8006cba:	3304      	adds	r3, #4
 8006cbc:	e7ae      	b.n	8006c1c <__gethex+0x15c>
 8006cbe:	45b1      	cmp	r9, r6
 8006cc0:	d8ea      	bhi.n	8006c98 <__gethex+0x1d8>
 8006cc2:	492b      	ldr	r1, [pc, #172]	@ (8006d70 <__gethex+0x2b0>)
 8006cc4:	9303      	str	r3, [sp, #12]
 8006cc6:	2201      	movs	r2, #1
 8006cc8:	4630      	mov	r0, r6
 8006cca:	f7ff fd71 	bl	80067b0 <strncmp>
 8006cce:	9b03      	ldr	r3, [sp, #12]
 8006cd0:	2800      	cmp	r0, #0
 8006cd2:	d1e1      	bne.n	8006c98 <__gethex+0x1d8>
 8006cd4:	e7a2      	b.n	8006c1c <__gethex+0x15c>
 8006cd6:	1ea9      	subs	r1, r5, #2
 8006cd8:	4620      	mov	r0, r4
 8006cda:	f000 ff0c 	bl	8007af6 <__any_on>
 8006cde:	2800      	cmp	r0, #0
 8006ce0:	d0c2      	beq.n	8006c68 <__gethex+0x1a8>
 8006ce2:	f04f 0903 	mov.w	r9, #3
 8006ce6:	e7c1      	b.n	8006c6c <__gethex+0x1ac>
 8006ce8:	da09      	bge.n	8006cfe <__gethex+0x23e>
 8006cea:	1b75      	subs	r5, r6, r5
 8006cec:	4621      	mov	r1, r4
 8006cee:	9801      	ldr	r0, [sp, #4]
 8006cf0:	462a      	mov	r2, r5
 8006cf2:	f000 fcc7 	bl	8007684 <__lshift>
 8006cf6:	1b7f      	subs	r7, r7, r5
 8006cf8:	4604      	mov	r4, r0
 8006cfa:	f100 0a14 	add.w	sl, r0, #20
 8006cfe:	f04f 0900 	mov.w	r9, #0
 8006d02:	e7b8      	b.n	8006c76 <__gethex+0x1b6>
 8006d04:	f8d8 5004 	ldr.w	r5, [r8, #4]
 8006d08:	42bd      	cmp	r5, r7
 8006d0a:	dd6f      	ble.n	8006dec <__gethex+0x32c>
 8006d0c:	1bed      	subs	r5, r5, r7
 8006d0e:	42ae      	cmp	r6, r5
 8006d10:	dc34      	bgt.n	8006d7c <__gethex+0x2bc>
 8006d12:	f8d8 300c 	ldr.w	r3, [r8, #12]
 8006d16:	2b02      	cmp	r3, #2
 8006d18:	d022      	beq.n	8006d60 <__gethex+0x2a0>
 8006d1a:	2b03      	cmp	r3, #3
 8006d1c:	d024      	beq.n	8006d68 <__gethex+0x2a8>
 8006d1e:	2b01      	cmp	r3, #1
 8006d20:	d115      	bne.n	8006d4e <__gethex+0x28e>
 8006d22:	42ae      	cmp	r6, r5
 8006d24:	d113      	bne.n	8006d4e <__gethex+0x28e>
 8006d26:	2e01      	cmp	r6, #1
 8006d28:	d10b      	bne.n	8006d42 <__gethex+0x282>
 8006d2a:	9a02      	ldr	r2, [sp, #8]
 8006d2c:	f8d8 3004 	ldr.w	r3, [r8, #4]
 8006d30:	6013      	str	r3, [r2, #0]
 8006d32:	2301      	movs	r3, #1
 8006d34:	6123      	str	r3, [r4, #16]
 8006d36:	f8ca 3000 	str.w	r3, [sl]
 8006d3a:	9b0e      	ldr	r3, [sp, #56]	@ 0x38
 8006d3c:	2562      	movs	r5, #98	@ 0x62
 8006d3e:	601c      	str	r4, [r3, #0]
 8006d40:	e73a      	b.n	8006bb8 <__gethex+0xf8>
 8006d42:	1e71      	subs	r1, r6, #1
 8006d44:	4620      	mov	r0, r4
 8006d46:	f000 fed6 	bl	8007af6 <__any_on>
 8006d4a:	2800      	cmp	r0, #0
 8006d4c:	d1ed      	bne.n	8006d2a <__gethex+0x26a>
 8006d4e:	9801      	ldr	r0, [sp, #4]
 8006d50:	4621      	mov	r1, r4
 8006d52:	f000 fa87 	bl	8007264 <_Bfree>
 8006d56:	9a0e      	ldr	r2, [sp, #56]	@ 0x38
 8006d58:	2300      	movs	r3, #0
 8006d5a:	6013      	str	r3, [r2, #0]
 8006d5c:	2550      	movs	r5, #80	@ 0x50
 8006d5e:	e72b      	b.n	8006bb8 <__gethex+0xf8>
 8006d60:	9b0f      	ldr	r3, [sp, #60]	@ 0x3c
 8006d62:	2b00      	cmp	r3, #0
 8006d64:	d1f3      	bne.n	8006d4e <__gethex+0x28e>
 8006d66:	e7e0      	b.n	8006d2a <__gethex+0x26a>
 8006d68:	9b0f      	ldr	r3, [sp, #60]	@ 0x3c
 8006d6a:	2b00      	cmp	r3, #0
 8006d6c:	d1dd      	bne.n	8006d2a <__gethex+0x26a>
 8006d6e:	e7ee      	b.n	8006d4e <__gethex+0x28e>
 8006d70:	08008908 	.word	0x08008908
 8006d74:	08008c53 	.word	0x08008c53
 8006d78:	08008c64 	.word	0x08008c64
 8006d7c:	1e6f      	subs	r7, r5, #1
 8006d7e:	f1b9 0f00 	cmp.w	r9, #0
 8006d82:	d130      	bne.n	8006de6 <__gethex+0x326>
 8006d84:	b127      	cbz	r7, 8006d90 <__gethex+0x2d0>
 8006d86:	4639      	mov	r1, r7
 8006d88:	4620      	mov	r0, r4
 8006d8a:	f000 feb4 	bl	8007af6 <__any_on>
 8006d8e:	4681      	mov	r9, r0
 8006d90:	117a      	asrs	r2, r7, #5
 8006d92:	2301      	movs	r3, #1
 8006d94:	f85a 2022 	ldr.w	r2, [sl, r2, lsl #2]
 8006d98:	f007 071f 	and.w	r7, r7, #31
 8006d9c:	40bb      	lsls	r3, r7
 8006d9e:	4213      	tst	r3, r2
 8006da0:	4629      	mov	r1, r5
 8006da2:	4620      	mov	r0, r4
 8006da4:	bf18      	it	ne
 8006da6:	f049 0902 	orrne.w	r9, r9, #2
 8006daa:	f7ff fe21 	bl	80069f0 <rshift>
 8006dae:	f8d8 7004 	ldr.w	r7, [r8, #4]
 8006db2:	1b76      	subs	r6, r6, r5
 8006db4:	2502      	movs	r5, #2
 8006db6:	f1b9 0f00 	cmp.w	r9, #0
 8006dba:	d047      	beq.n	8006e4c <__gethex+0x38c>
 8006dbc:	f8d8 300c 	ldr.w	r3, [r8, #12]
 8006dc0:	2b02      	cmp	r3, #2
 8006dc2:	d015      	beq.n	8006df0 <__gethex+0x330>
 8006dc4:	2b03      	cmp	r3, #3
 8006dc6:	d017      	beq.n	8006df8 <__gethex+0x338>
 8006dc8:	2b01      	cmp	r3, #1
 8006dca:	d109      	bne.n	8006de0 <__gethex+0x320>
 8006dcc:	f019 0f02 	tst.w	r9, #2
 8006dd0:	d006      	beq.n	8006de0 <__gethex+0x320>
 8006dd2:	f8da 3000 	ldr.w	r3, [sl]
 8006dd6:	ea49 0903 	orr.w	r9, r9, r3
 8006dda:	f019 0f01 	tst.w	r9, #1
 8006dde:	d10e      	bne.n	8006dfe <__gethex+0x33e>
 8006de0:	f045 0510 	orr.w	r5, r5, #16
 8006de4:	e032      	b.n	8006e4c <__gethex+0x38c>
 8006de6:	f04f 0901 	mov.w	r9, #1
 8006dea:	e7d1      	b.n	8006d90 <__gethex+0x2d0>
 8006dec:	2501      	movs	r5, #1
 8006dee:	e7e2      	b.n	8006db6 <__gethex+0x2f6>
 8006df0:	9b0f      	ldr	r3, [sp, #60]	@ 0x3c
 8006df2:	f1c3 0301 	rsb	r3, r3, #1
 8006df6:	930f      	str	r3, [sp, #60]	@ 0x3c
 8006df8:	9b0f      	ldr	r3, [sp, #60]	@ 0x3c
 8006dfa:	2b00      	cmp	r3, #0
 8006dfc:	d0f0      	beq.n	8006de0 <__gethex+0x320>
 8006dfe:	f8d4 b010 	ldr.w	fp, [r4, #16]
 8006e02:	f104 0314 	add.w	r3, r4, #20
 8006e06:	ea4f 0a8b 	mov.w	sl, fp, lsl #2
 8006e0a:	eb03 018b 	add.w	r1, r3, fp, lsl #2
 8006e0e:	f04f 0c00 	mov.w	ip, #0
 8006e12:	4618      	mov	r0, r3
 8006e14:	f853 2b04 	ldr.w	r2, [r3], #4
 8006e18:	f1b2 3fff 	cmp.w	r2, #4294967295
 8006e1c:	d01b      	beq.n	8006e56 <__gethex+0x396>
 8006e1e:	3201      	adds	r2, #1
 8006e20:	6002      	str	r2, [r0, #0]
 8006e22:	2d02      	cmp	r5, #2
 8006e24:	f104 0314 	add.w	r3, r4, #20
 8006e28:	d13c      	bne.n	8006ea4 <__gethex+0x3e4>
 8006e2a:	f8d8 2000 	ldr.w	r2, [r8]
 8006e2e:	3a01      	subs	r2, #1
 8006e30:	42b2      	cmp	r2, r6
 8006e32:	d109      	bne.n	8006e48 <__gethex+0x388>
 8006e34:	1171      	asrs	r1, r6, #5
 8006e36:	2201      	movs	r2, #1
 8006e38:	f853 3021 	ldr.w	r3, [r3, r1, lsl #2]
 8006e3c:	f006 061f 	and.w	r6, r6, #31
 8006e40:	fa02 f606 	lsl.w	r6, r2, r6
 8006e44:	421e      	tst	r6, r3
 8006e46:	d13a      	bne.n	8006ebe <__gethex+0x3fe>
 8006e48:	f045 0520 	orr.w	r5, r5, #32
 8006e4c:	9b0e      	ldr	r3, [sp, #56]	@ 0x38
 8006e4e:	601c      	str	r4, [r3, #0]
 8006e50:	9b02      	ldr	r3, [sp, #8]
 8006e52:	601f      	str	r7, [r3, #0]
 8006e54:	e6b0      	b.n	8006bb8 <__gethex+0xf8>
 8006e56:	4299      	cmp	r1, r3
 8006e58:	f843 cc04 	str.w	ip, [r3, #-4]
 8006e5c:	d8d9      	bhi.n	8006e12 <__gethex+0x352>
 8006e5e:	68a3      	ldr	r3, [r4, #8]
 8006e60:	459b      	cmp	fp, r3
 8006e62:	db17      	blt.n	8006e94 <__gethex+0x3d4>
 8006e64:	6861      	ldr	r1, [r4, #4]
 8006e66:	9801      	ldr	r0, [sp, #4]
 8006e68:	3101      	adds	r1, #1
 8006e6a:	f000 f9bb 	bl	80071e4 <_Balloc>
 8006e6e:	4681      	mov	r9, r0
 8006e70:	b918      	cbnz	r0, 8006e7a <__gethex+0x3ba>
 8006e72:	4b1a      	ldr	r3, [pc, #104]	@ (8006edc <__gethex+0x41c>)
 8006e74:	4602      	mov	r2, r0
 8006e76:	2184      	movs	r1, #132	@ 0x84
 8006e78:	e6c5      	b.n	8006c06 <__gethex+0x146>
 8006e7a:	6922      	ldr	r2, [r4, #16]
 8006e7c:	3202      	adds	r2, #2
 8006e7e:	f104 010c 	add.w	r1, r4, #12
 8006e82:	0092      	lsls	r2, r2, #2
 8006e84:	300c      	adds	r0, #12
 8006e86:	f7ff fd4c 	bl	8006922 <memcpy>
 8006e8a:	4621      	mov	r1, r4
 8006e8c:	9801      	ldr	r0, [sp, #4]
 8006e8e:	f000 f9e9 	bl	8007264 <_Bfree>
 8006e92:	464c      	mov	r4, r9
 8006e94:	6923      	ldr	r3, [r4, #16]
 8006e96:	1c5a      	adds	r2, r3, #1
 8006e98:	eb04 0383 	add.w	r3, r4, r3, lsl #2
 8006e9c:	6122      	str	r2, [r4, #16]
 8006e9e:	2201      	movs	r2, #1
 8006ea0:	615a      	str	r2, [r3, #20]
 8006ea2:	e7be      	b.n	8006e22 <__gethex+0x362>
 8006ea4:	6922      	ldr	r2, [r4, #16]
 8006ea6:	455a      	cmp	r2, fp
 8006ea8:	dd0b      	ble.n	8006ec2 <__gethex+0x402>
 8006eaa:	2101      	movs	r1, #1
 8006eac:	4620      	mov	r0, r4
 8006eae:	f7ff fd9f 	bl	80069f0 <rshift>
 8006eb2:	f8d8 3008 	ldr.w	r3, [r8, #8]
 8006eb6:	3701      	adds	r7, #1
 8006eb8:	42bb      	cmp	r3, r7
 8006eba:	f6ff aee0 	blt.w	8006c7e <__gethex+0x1be>
 8006ebe:	2501      	movs	r5, #1
 8006ec0:	e7c2      	b.n	8006e48 <__gethex+0x388>
 8006ec2:	f016 061f 	ands.w	r6, r6, #31
 8006ec6:	d0fa      	beq.n	8006ebe <__gethex+0x3fe>
 8006ec8:	4453      	add	r3, sl
 8006eca:	f1c6 0620 	rsb	r6, r6, #32
 8006ece:	f853 0c04 	ldr.w	r0, [r3, #-4]
 8006ed2:	f000 fa79 	bl	80073c8 <__hi0bits>
 8006ed6:	42b0      	cmp	r0, r6
 8006ed8:	dbe7      	blt.n	8006eaa <__gethex+0x3ea>
 8006eda:	e7f0      	b.n	8006ebe <__gethex+0x3fe>
 8006edc:	08008c53 	.word	0x08008c53

08006ee0 <L_shift>:
 8006ee0:	f1c2 0208 	rsb	r2, r2, #8
 8006ee4:	0092      	lsls	r2, r2, #2
 8006ee6:	b570      	push	{r4, r5, r6, lr}
 8006ee8:	f1c2 0620 	rsb	r6, r2, #32
 8006eec:	6843      	ldr	r3, [r0, #4]
 8006eee:	6804      	ldr	r4, [r0, #0]
 8006ef0:	fa03 f506 	lsl.w	r5, r3, r6
 8006ef4:	432c      	orrs	r4, r5
 8006ef6:	40d3      	lsrs	r3, r2
 8006ef8:	6004      	str	r4, [r0, #0]
 8006efa:	f840 3f04 	str.w	r3, [r0, #4]!
 8006efe:	4288      	cmp	r0, r1
 8006f00:	d3f4      	bcc.n	8006eec <L_shift+0xc>
 8006f02:	bd70      	pop	{r4, r5, r6, pc}

08006f04 <__match>:
 8006f04:	b530      	push	{r4, r5, lr}
 8006f06:	6803      	ldr	r3, [r0, #0]
 8006f08:	3301      	adds	r3, #1
 8006f0a:	f811 4b01 	ldrb.w	r4, [r1], #1
 8006f0e:	b914      	cbnz	r4, 8006f16 <__match+0x12>
 8006f10:	6003      	str	r3, [r0, #0]
 8006f12:	2001      	movs	r0, #1
 8006f14:	bd30      	pop	{r4, r5, pc}
 8006f16:	f813 2b01 	ldrb.w	r2, [r3], #1
 8006f1a:	f1a2 0541 	sub.w	r5, r2, #65	@ 0x41
 8006f1e:	2d19      	cmp	r5, #25
 8006f20:	bf98      	it	ls
 8006f22:	3220      	addls	r2, #32
 8006f24:	42a2      	cmp	r2, r4
 8006f26:	d0f0      	beq.n	8006f0a <__match+0x6>
 8006f28:	2000      	movs	r0, #0
 8006f2a:	e7f3      	b.n	8006f14 <__match+0x10>

08006f2c <__hexnan>:
 8006f2c:	e92d 4ff0 	stmdb	sp!, {r4, r5, r6, r7, r8, r9, sl, fp, lr}
 8006f30:	680b      	ldr	r3, [r1, #0]
 8006f32:	6801      	ldr	r1, [r0, #0]
 8006f34:	115e      	asrs	r6, r3, #5
 8006f36:	eb02 0686 	add.w	r6, r2, r6, lsl #2
 8006f3a:	f013 031f 	ands.w	r3, r3, #31
 8006f3e:	b087      	sub	sp, #28
 8006f40:	bf18      	it	ne
 8006f42:	3604      	addne	r6, #4
 8006f44:	2500      	movs	r5, #0
 8006f46:	1f37      	subs	r7, r6, #4
 8006f48:	4682      	mov	sl, r0
 8006f4a:	4690      	mov	r8, r2
 8006f4c:	9301      	str	r3, [sp, #4]
 8006f4e:	f846 5c04 	str.w	r5, [r6, #-4]
 8006f52:	46b9      	mov	r9, r7
 8006f54:	463c      	mov	r4, r7
 8006f56:	9502      	str	r5, [sp, #8]
 8006f58:	46ab      	mov	fp, r5
 8006f5a:	784a      	ldrb	r2, [r1, #1]
 8006f5c:	1c4b      	adds	r3, r1, #1
 8006f5e:	9303      	str	r3, [sp, #12]
 8006f60:	b342      	cbz	r2, 8006fb4 <__hexnan+0x88>
 8006f62:	4610      	mov	r0, r2
 8006f64:	9105      	str	r1, [sp, #20]
 8006f66:	9204      	str	r2, [sp, #16]
 8006f68:	f7ff fd94 	bl	8006a94 <__hexdig_fun>
 8006f6c:	2800      	cmp	r0, #0
 8006f6e:	d151      	bne.n	8007014 <__hexnan+0xe8>
 8006f70:	9a04      	ldr	r2, [sp, #16]
 8006f72:	9905      	ldr	r1, [sp, #20]
 8006f74:	2a20      	cmp	r2, #32
 8006f76:	d818      	bhi.n	8006faa <__hexnan+0x7e>
 8006f78:	9b02      	ldr	r3, [sp, #8]
 8006f7a:	459b      	cmp	fp, r3
 8006f7c:	dd13      	ble.n	8006fa6 <__hexnan+0x7a>
 8006f7e:	454c      	cmp	r4, r9
 8006f80:	d206      	bcs.n	8006f90 <__hexnan+0x64>
 8006f82:	2d07      	cmp	r5, #7
 8006f84:	dc04      	bgt.n	8006f90 <__hexnan+0x64>
 8006f86:	462a      	mov	r2, r5
 8006f88:	4649      	mov	r1, r9
 8006f8a:	4620      	mov	r0, r4
 8006f8c:	f7ff ffa8 	bl	8006ee0 <L_shift>
 8006f90:	4544      	cmp	r4, r8
 8006f92:	d952      	bls.n	800703a <__hexnan+0x10e>
 8006f94:	2300      	movs	r3, #0
 8006f96:	f1a4 0904 	sub.w	r9, r4, #4
 8006f9a:	f844 3c04 	str.w	r3, [r4, #-4]
 8006f9e:	f8cd b008 	str.w	fp, [sp, #8]
 8006fa2:	464c      	mov	r4, r9
 8006fa4:	461d      	mov	r5, r3
 8006fa6:	9903      	ldr	r1, [sp, #12]
 8006fa8:	e7d7      	b.n	8006f5a <__hexnan+0x2e>
 8006faa:	2a29      	cmp	r2, #41	@ 0x29
 8006fac:	d157      	bne.n	800705e <__hexnan+0x132>
 8006fae:	3102      	adds	r1, #2
 8006fb0:	f8ca 1000 	str.w	r1, [sl]
 8006fb4:	f1bb 0f00 	cmp.w	fp, #0
 8006fb8:	d051      	beq.n	800705e <__hexnan+0x132>
 8006fba:	454c      	cmp	r4, r9
 8006fbc:	d206      	bcs.n	8006fcc <__hexnan+0xa0>
 8006fbe:	2d07      	cmp	r5, #7
 8006fc0:	dc04      	bgt.n	8006fcc <__hexnan+0xa0>
 8006fc2:	462a      	mov	r2, r5
 8006fc4:	4649      	mov	r1, r9
 8006fc6:	4620      	mov	r0, r4
 8006fc8:	f7ff ff8a 	bl	8006ee0 <L_shift>
 8006fcc:	4544      	cmp	r4, r8
 8006fce:	d936      	bls.n	800703e <__hexnan+0x112>
 8006fd0:	f1a8 0204 	sub.w	r2, r8, #4
 8006fd4:	4623      	mov	r3, r4
 8006fd6:	f853 1b04 	ldr.w	r1, [r3], #4
 8006fda:	f842 1f04 	str.w	r1, [r2, #4]!
 8006fde:	429f      	cmp	r7, r3
 8006fe0:	d2f9      	bcs.n	8006fd6 <__hexnan+0xaa>
 8006fe2:	1b3b      	subs	r3, r7, r4
 8006fe4:	f023 0303 	bic.w	r3, r3, #3
 8006fe8:	3304      	adds	r3, #4
 8006fea:	3401      	adds	r4, #1
 8006fec:	3e03      	subs	r6, #3
 8006fee:	42b4      	cmp	r4, r6
 8006ff0:	bf88      	it	hi
 8006ff2:	2304      	movhi	r3, #4
 8006ff4:	4443      	add	r3, r8
 8006ff6:	2200      	movs	r2, #0
 8006ff8:	f843 2b04 	str.w	r2, [r3], #4
 8006ffc:	429f      	cmp	r7, r3
 8006ffe:	d2fb      	bcs.n	8006ff8 <__hexnan+0xcc>
 8007000:	683b      	ldr	r3, [r7, #0]
 8007002:	b91b      	cbnz	r3, 800700c <__hexnan+0xe0>
 8007004:	4547      	cmp	r7, r8
 8007006:	d128      	bne.n	800705a <__hexnan+0x12e>
 8007008:	2301      	movs	r3, #1
 800700a:	603b      	str	r3, [r7, #0]
 800700c:	2005      	movs	r0, #5
 800700e:	b007      	add	sp, #28
 8007010:	e8bd 8ff0 	ldmia.w	sp!, {r4, r5, r6, r7, r8, r9, sl, fp, pc}
 8007014:	3501      	adds	r5, #1
 8007016:	2d08      	cmp	r5, #8
 8007018:	f10b 0b01 	add.w	fp, fp, #1
 800701c:	dd06      	ble.n	800702c <__hexnan+0x100>
 800701e:	4544      	cmp	r4, r8
 8007020:	d9c1      	bls.n	8006fa6 <__hexnan+0x7a>
 8007022:	2300      	movs	r3, #0
 8007024:	f844 3c04 	str.w	r3, [r4, #-4]
 8007028:	2501      	movs	r5, #1
 800702a:	3c04      	subs	r4, #4
 800702c:	6822      	ldr	r2, [r4, #0]
 800702e:	f000 000f 	and.w	r0, r0, #15
 8007032:	ea40 1002 	orr.w	r0, r0, r2, lsl #4
 8007036:	6020      	str	r0, [r4, #0]
 8007038:	e7b5      	b.n	8006fa6 <__hexnan+0x7a>
 800703a:	2508      	movs	r5, #8
 800703c:	e7b3      	b.n	8006fa6 <__hexnan+0x7a>
 800703e:	9b01      	ldr	r3, [sp, #4]
 8007040:	2b00      	cmp	r3, #0
 8007042:	d0dd      	beq.n	8007000 <__hexnan+0xd4>
 8007044:	f1c3 0320 	rsb	r3, r3, #32
 8007048:	f04f 32ff 	mov.w	r2, #4294967295
 800704c:	40da      	lsrs	r2, r3
 800704e:	f856 3c04 	ldr.w	r3, [r6, #-4]
 8007052:	4013      	ands	r3, r2
 8007054:	f846 3c04 	str.w	r3, [r6, #-4]
 8007058:	e7d2      	b.n	8007000 <__hexnan+0xd4>
 800705a:	3f04      	subs	r7, #4
 800705c:	e7d0      	b.n	8007000 <__hexnan+0xd4>
 800705e:	2004      	movs	r0, #4
 8007060:	e7d5      	b.n	800700e <__hexnan+0xe2>
	...

08007064 <sbrk_aligned>:
 8007064:	b570      	push	{r4, r5, r6, lr}
 8007066:	4e0f      	ldr	r6, [pc, #60]	@ (80070a4 <sbrk_aligned+0x40>)
 8007068:	460c      	mov	r4, r1
 800706a:	6831      	ldr	r1, [r6, #0]
 800706c:	4605      	mov	r5, r0
 800706e:	b911      	cbnz	r1, 8007076 <sbrk_aligned+0x12>
 8007070:	f001 f8fe 	bl	8008270 <_sbrk_r>
 8007074:	6030      	str	r0, [r6, #0]
 8007076:	4621      	mov	r1, r4
 8007078:	4628      	mov	r0, r5
 800707a:	f001 f8f9 	bl	8008270 <_sbrk_r>
 800707e:	1c43      	adds	r3, r0, #1
 8007080:	d103      	bne.n	800708a <sbrk_aligned+0x26>
 8007082:	f04f 34ff 	mov.w	r4, #4294967295
 8007086:	4620      	mov	r0, r4
 8007088:	bd70      	pop	{r4, r5, r6, pc}
 800708a:	1cc4      	adds	r4, r0, #3
 800708c:	f024 0403 	bic.w	r4, r4, #3
 8007090:	42a0      	cmp	r0, r4
 8007092:	d0f8      	beq.n	8007086 <sbrk_aligned+0x22>
 8007094:	1a21      	subs	r1, r4, r0
 8007096:	4628      	mov	r0, r5
 8007098:	f001 f8ea 	bl	8008270 <_sbrk_r>
 800709c:	3001      	adds	r0, #1
 800709e:	d1f2      	bne.n	8007086 <sbrk_aligned+0x22>
 80070a0:	e7ef      	b.n	8007082 <sbrk_aligned+0x1e>
 80070a2:	bf00      	nop
 80070a4:	2000209c 	.word	0x2000209c

080070a8 <_malloc_r>:
 80070a8:	e92d 43f8 	stmdb	sp!, {r3, r4, r5, r6, r7, r8, r9, lr}
 80070ac:	1ccd      	adds	r5, r1, #3
 80070ae:	f025 0503 	bic.w	r5, r5, #3
 80070b2:	3508      	adds	r5, #8
 80070b4:	2d0c      	cmp	r5, #12
 80070b6:	bf38      	it	cc
 80070b8:	250c      	movcc	r5, #12
 80070ba:	2d00      	cmp	r5, #0
 80070bc:	4606      	mov	r6, r0
 80070be:	db01      	blt.n	80070c4 <_malloc_r+0x1c>
 80070c0:	42a9      	cmp	r1, r5
 80070c2:	d904      	bls.n	80070ce <_malloc_r+0x26>
 80070c4:	230c      	movs	r3, #12
 80070c6:	6033      	str	r3, [r6, #0]
 80070c8:	2000      	movs	r0, #0
 80070ca:	e8bd 83f8 	ldmia.w	sp!, {r3, r4, r5, r6, r7, r8, r9, pc}
 80070ce:	f8df 80d4 	ldr.w	r8, [pc, #212]	@ 80071a4 <_malloc_r+0xfc>
 80070d2:	f000 f87b 	bl	80071cc <__malloc_lock>
 80070d6:	f8d8 3000 	ldr.w	r3, [r8]
 80070da:	461c      	mov	r4, r3
 80070dc:	bb44      	cbnz	r4, 8007130 <_malloc_r+0x88>
 80070de:	4629      	mov	r1, r5
 80070e0:	4630      	mov	r0, r6
 80070e2:	f7ff ffbf 	bl	8007064 <sbrk_aligned>
 80070e6:	1c43      	adds	r3, r0, #1
 80070e8:	4604      	mov	r4, r0
 80070ea:	d158      	bne.n	800719e <_malloc_r+0xf6>
 80070ec:	f8d8 4000 	ldr.w	r4, [r8]
 80070f0:	4627      	mov	r7, r4
 80070f2:	2f00      	cmp	r7, #0
 80070f4:	d143      	bne.n	800717e <_malloc_r+0xd6>
 80070f6:	2c00      	cmp	r4, #0
 80070f8:	d04b      	beq.n	8007192 <_malloc_r+0xea>
 80070fa:	6823      	ldr	r3, [r4, #0]
 80070fc:	4639      	mov	r1, r7
 80070fe:	4630      	mov	r0, r6
 8007100:	eb04 0903 	add.w	r9, r4, r3
 8007104:	f001 f8b4 	bl	8008270 <_sbrk_r>
 8007108:	4581      	cmp	r9, r0
 800710a:	d142      	bne.n	8007192 <_malloc_r+0xea>
 800710c:	6821      	ldr	r1, [r4, #0]
 800710e:	1a6d      	subs	r5, r5, r1
 8007110:	4629      	mov	r1, r5
 8007112:	4630      	mov	r0, r6
 8007114:	f7ff ffa6 	bl	8007064 <sbrk_aligned>
 8007118:	3001      	adds	r0, #1
 800711a:	d03a      	beq.n	8007192 <_malloc_r+0xea>
 800711c:	6823      	ldr	r3, [r4, #0]
 800711e:	442b      	add	r3, r5
 8007120:	6023      	str	r3, [r4, #0]
 8007122:	f8d8 3000 	ldr.w	r3, [r8]
 8007126:	685a      	ldr	r2, [r3, #4]
 8007128:	bb62      	cbnz	r2, 8007184 <_malloc_r+0xdc>
 800712a:	f8c8 7000 	str.w	r7, [r8]
 800712e:	e00f      	b.n	8007150 <_malloc_r+0xa8>
 8007130:	6822      	ldr	r2, [r4, #0]
 8007132:	1b52      	subs	r2, r2, r5
 8007134:	d420      	bmi.n	8007178 <_malloc_r+0xd0>
 8007136:	2a0b      	cmp	r2, #11
 8007138:	d917      	bls.n	800716a <_malloc_r+0xc2>
 800713a:	1961      	adds	r1, r4, r5
 800713c:	42a3      	cmp	r3, r4
 800713e:	6025      	str	r5, [r4, #0]
 8007140:	bf18      	it	ne
 8007142:	6059      	strne	r1, [r3, #4]
 8007144:	6863      	ldr	r3, [r4, #4]
 8007146:	bf08      	it	eq
 8007148:	f8c8 1000 	streq.w	r1, [r8]
 800714c:	5162      	str	r2, [r4, r5]
 800714e:	604b      	str	r3, [r1, #4]
 8007150:	4630      	mov	r0, r6
 8007152:	f000 f841 	bl	80071d8 <__malloc_unlock>
 8007156:	f104 000b 	add.w	r0, r4, #11
 800715a:	1d23      	adds	r3, r4, #4
 800715c:	f020 0007 	bic.w	r0, r0, #7
 8007160:	1ac2      	subs	r2, r0, r3
 8007162:	bf1c      	itt	ne
 8007164:	1a1b      	subne	r3, r3, r0
 8007166:	50a3      	strne	r3, [r4, r2]
 8007168:	e7af      	b.n	80070ca <_malloc_r+0x22>
 800716a:	6862      	ldr	r2, [r4, #4]
 800716c:	42a3      	cmp	r3, r4
 800716e:	bf0c      	ite	eq
 8007170:	f8c8 2000 	streq.w	r2, [r8]
 8007174:	605a      	strne	r2, [r3, #4]
 8007176:	e7eb      	b.n	8007150 <_malloc_r+0xa8>
 8007178:	4623      	mov	r3, r4
 800717a:	6864      	ldr	r4, [r4, #4]
 800717c:	e7ae      	b.n	80070dc <_malloc_r+0x34>
 800717e:	463c      	mov	r4, r7
 8007180:	687f      	ldr	r7, [r7, #4]
 8007182:	e7b6      	b.n	80070f2 <_malloc_r+0x4a>
 8007184:	461a      	mov	r2, r3
 8007186:	685b      	ldr	r3, [r3, #4]
 8007188:	42a3      	cmp	r3, r4
 800718a:	d1fb      	bne.n	8007184 <_malloc_r+0xdc>
 800718c:	2300      	movs	r3, #0
 800718e:	6053      	str	r3, [r2, #4]
 8007190:	e7de      	b.n	8007150 <_malloc_r+0xa8>
 8007192:	230c      	movs	r3, #12
 8007194:	6033      	str	r3, [r6, #0]
 8007196:	4630      	mov	r0, r6
 8007198:	f000 f81e 	bl	80071d8 <__malloc_unlock>
 800719c:	e794      	b.n	80070c8 <_malloc_r+0x20>
 800719e:	6005      	str	r5, [r0, #0]
 80071a0:	e7d6      	b.n	8007150 <_malloc_r+0xa8>
 80071a2:	bf00      	nop
 80071a4:	200020a0 	.word	0x200020a0

080071a8 <__ascii_mbtowc>:
 80071a8:	b082      	sub	sp, #8
 80071aa:	b901      	cbnz	r1, 80071ae <__ascii_mbtowc+0x6>
 80071ac:	a901      	add	r1, sp, #4
 80071ae:	b142      	cbz	r2, 80071c2 <__ascii_mbtowc+0x1a>
 80071b0:	b14b      	cbz	r3, 80071c6 <__ascii_mbtowc+0x1e>
 80071b2:	7813      	ldrb	r3, [r2, #0]
 80071b4:	600b      	str	r3, [r1, #0]
 80071b6:	7812      	ldrb	r2, [r2, #0]
 80071b8:	1e10      	subs	r0, r2, #0
 80071ba:	bf18      	it	ne
 80071bc:	2001      	movne	r0, #1
 80071be:	b002      	add	sp, #8
 80071c0:	4770      	bx	lr
 80071c2:	4610      	mov	r0, r2
 80071c4:	e7fb      	b.n	80071be <__ascii_mbtowc+0x16>
 80071c6:	f06f 0001 	mvn.w	r0, #1
 80071ca:	e7f8      	b.n	80071be <__ascii_mbtowc+0x16>

080071cc <__malloc_lock>:
 80071cc:	4801      	ldr	r0, [pc, #4]	@ (80071d4 <__malloc_lock+0x8>)
 80071ce:	f7ff bb9e 	b.w	800690e <__retarget_lock_acquire_recursive>
 80071d2:	bf00      	nop
 80071d4:	20002098 	.word	0x20002098

080071d8 <__malloc_unlock>:
 80071d8:	4801      	ldr	r0, [pc, #4]	@ (80071e0 <__malloc_unlock+0x8>)
 80071da:	f7ff bb99 	b.w	8006910 <__retarget_lock_release_recursive>
 80071de:	bf00      	nop
 80071e0:	20002098 	.word	0x20002098

080071e4 <_Balloc>:
 80071e4:	b570      	push	{r4, r5, r6, lr}
 80071e6:	69c6      	ldr	r6, [r0, #28]
 80071e8:	4604      	mov	r4, r0
 80071ea:	460d      	mov	r5, r1
 80071ec:	b976      	cbnz	r6, 800720c <_Balloc+0x28>
 80071ee:	2010      	movs	r0, #16
 80071f0:	f001 f880 	bl	80082f4 <malloc>
 80071f4:	4602      	mov	r2, r0
 80071f6:	61e0      	str	r0, [r4, #28]
 80071f8:	b920      	cbnz	r0, 8007204 <_Balloc+0x20>
 80071fa:	4b18      	ldr	r3, [pc, #96]	@ (800725c <_Balloc+0x78>)
 80071fc:	4818      	ldr	r0, [pc, #96]	@ (8007260 <_Balloc+0x7c>)
 80071fe:	216b      	movs	r1, #107	@ 0x6b
 8007200:	f001 f846 	bl	8008290 <__assert_func>
 8007204:	e9c0 6601 	strd	r6, r6, [r0, #4]
 8007208:	6006      	str	r6, [r0, #0]
 800720a:	60c6      	str	r6, [r0, #12]
 800720c:	69e6      	ldr	r6, [r4, #28]
 800720e:	68f3      	ldr	r3, [r6, #12]
 8007210:	b183      	cbz	r3, 8007234 <_Balloc+0x50>
 8007212:	69e3      	ldr	r3, [r4, #28]
 8007214:	68db      	ldr	r3, [r3, #12]
 8007216:	f853 0025 	ldr.w	r0, [r3, r5, lsl #2]
 800721a:	b9b8      	cbnz	r0, 800724c <_Balloc+0x68>
 800721c:	2101      	movs	r1, #1
 800721e:	fa01 f605 	lsl.w	r6, r1, r5
 8007222:	1d72      	adds	r2, r6, #5
 8007224:	0092      	lsls	r2, r2, #2
 8007226:	4620      	mov	r0, r4
 8007228:	f001 f850 	bl	80082cc <_calloc_r>
 800722c:	b160      	cbz	r0, 8007248 <_Balloc+0x64>
 800722e:	e9c0 5601 	strd	r5, r6, [r0, #4]
 8007232:	e00e      	b.n	8007252 <_Balloc+0x6e>
 8007234:	2221      	movs	r2, #33	@ 0x21
 8007236:	2104      	movs	r1, #4
 8007238:	4620      	mov	r0, r4
 800723a:	f001 f847 	bl	80082cc <_calloc_r>
 800723e:	69e3      	ldr	r3, [r4, #28]
 8007240:	60f0      	str	r0, [r6, #12]
 8007242:	68db      	ldr	r3, [r3, #12]
 8007244:	2b00      	cmp	r3, #0
 8007246:	d1e4      	bne.n	8007212 <_Balloc+0x2e>
 8007248:	2000      	movs	r0, #0
 800724a:	bd70      	pop	{r4, r5, r6, pc}
 800724c:	6802      	ldr	r2, [r0, #0]
 800724e:	f843 2025 	str.w	r2, [r3, r5, lsl #2]
 8007252:	2300      	movs	r3, #0
 8007254:	e9c0 3303 	strd	r3, r3, [r0, #12]
 8007258:	e7f7      	b.n	800724a <_Balloc+0x66>
 800725a:	bf00      	nop
 800725c:	08008cc4 	.word	0x08008cc4
 8007260:	08008cdb 	.word	0x08008cdb

08007264 <_Bfree>:
 8007264:	b570      	push	{r4, r5, r6, lr}
 8007266:	69c6      	ldr	r6, [r0, #28]
 8007268:	4605      	mov	r5, r0
 800726a:	460c      	mov	r4, r1
 800726c:	b976      	cbnz	r6, 800728c <_Bfree+0x28>
 800726e:	2010      	movs	r0, #16
 8007270:	f001 f840 	bl	80082f4 <malloc>
 8007274:	4602      	mov	r2, r0
 8007276:	61e8      	str	r0, [r5, #28]
 8007278:	b920      	cbnz	r0, 8007284 <_Bfree+0x20>
 800727a:	4b09      	ldr	r3, [pc, #36]	@ (80072a0 <_Bfree+0x3c>)
 800727c:	4809      	ldr	r0, [pc, #36]	@ (80072a4 <_Bfree+0x40>)
 800727e:	218f      	movs	r1, #143	@ 0x8f
 8007280:	f001 f806 	bl	8008290 <__assert_func>
 8007284:	e9c0 6601 	strd	r6, r6, [r0, #4]
 8007288:	6006      	str	r6, [r0, #0]
 800728a:	60c6      	str	r6, [r0, #12]
 800728c:	b13c      	cbz	r4, 800729e <_Bfree+0x3a>
 800728e:	69eb      	ldr	r3, [r5, #28]
 8007290:	6862      	ldr	r2, [r4, #4]
 8007292:	68db      	ldr	r3, [r3, #12]
 8007294:	f853 1022 	ldr.w	r1, [r3, r2, lsl #2]
 8007298:	6021      	str	r1, [r4, #0]
 800729a:	f843 4022 	str.w	r4, [r3, r2, lsl #2]
 800729e:	bd70      	pop	{r4, r5, r6, pc}
 80072a0:	08008cc4 	.word	0x08008cc4
 80072a4:	08008cdb 	.word	0x08008cdb

080072a8 <__multadd>:
 80072a8:	e92d 41f0 	stmdb	sp!, {r4, r5, r6, r7, r8, lr}
 80072ac:	690d      	ldr	r5, [r1, #16]
 80072ae:	4607      	mov	r7, r0
 80072b0:	460c      	mov	r4, r1
 80072b2:	461e      	mov	r6, r3
 80072b4:	f101 0c14 	add.w	ip, r1, #20
 80072b8:	2000      	movs	r0, #0
 80072ba:	f8dc 3000 	ldr.w	r3, [ip]
 80072be:	b299      	uxth	r1, r3
 80072c0:	fb02 6101 	mla	r1, r2, r1, r6
 80072c4:	0c1e      	lsrs	r6, r3, #16
 80072c6:	0c0b      	lsrs	r3, r1, #16
 80072c8:	fb02 3306 	mla	r3, r2, r6, r3
 80072cc:	b289      	uxth	r1, r1
 80072ce:	3001      	adds	r0, #1
 80072d0:	eb01 4103 	add.w	r1, r1, r3, lsl #16
 80072d4:	4285      	cmp	r5, r0
 80072d6:	f84c 1b04 	str.w	r1, [ip], #4
 80072da:	ea4f 4613 	mov.w	r6, r3, lsr #16
 80072de:	dcec      	bgt.n	80072ba <__multadd+0x12>
 80072e0:	b30e      	cbz	r6, 8007326 <__multadd+0x7e>
 80072e2:	68a3      	ldr	r3, [r4, #8]
 80072e4:	42ab      	cmp	r3, r5
 80072e6:	dc19      	bgt.n	800731c <__multadd+0x74>
 80072e8:	6861      	ldr	r1, [r4, #4]
 80072ea:	4638      	mov	r0, r7
 80072ec:	3101      	adds	r1, #1
 80072ee:	f7ff ff79 	bl	80071e4 <_Balloc>
 80072f2:	4680      	mov	r8, r0
 80072f4:	b928      	cbnz	r0, 8007302 <__multadd+0x5a>
 80072f6:	4602      	mov	r2, r0
 80072f8:	4b0c      	ldr	r3, [pc, #48]	@ (800732c <__multadd+0x84>)
 80072fa:	480d      	ldr	r0, [pc, #52]	@ (8007330 <__multadd+0x88>)
 80072fc:	21ba      	movs	r1, #186	@ 0xba
 80072fe:	f000 ffc7 	bl	8008290 <__assert_func>
 8007302:	6922      	ldr	r2, [r4, #16]
 8007304:	3202      	adds	r2, #2
 8007306:	f104 010c 	add.w	r1, r4, #12
 800730a:	0092      	lsls	r2, r2, #2
 800730c:	300c      	adds	r0, #12
 800730e:	f7ff fb08 	bl	8006922 <memcpy>
 8007312:	4621      	mov	r1, r4
 8007314:	4638      	mov	r0, r7
 8007316:	f7ff ffa5 	bl	8007264 <_Bfree>
 800731a:	4644      	mov	r4, r8
 800731c:	eb04 0385 	add.w	r3, r4, r5, lsl #2
 8007320:	3501      	adds	r5, #1
 8007322:	615e      	str	r6, [r3, #20]
 8007324:	6125      	str	r5, [r4, #16]
 8007326:	4620      	mov	r0, r4
 8007328:	e8bd 81f0 	ldmia.w	sp!, {r4, r5, r6, r7, r8, pc}
 800732c:	08008c53 	.word	0x08008c53
 8007330:	08008cdb 	.word	0x08008cdb

08007334 <__s2b>:
 8007334:	e92d 43f8 	stmdb	sp!, {r3, r4, r5, r6, r7, r8, r9, lr}
 8007338:	460c      	mov	r4, r1
 800733a:	4615      	mov	r5, r2
 800733c:	461f      	mov	r7, r3
 800733e:	2209      	movs	r2, #9
 8007340:	3308      	adds	r3, #8
 8007342:	4606      	mov	r6, r0
 8007344:	fb93 f3f2 	sdiv	r3, r3, r2
 8007348:	2100      	movs	r1, #0
 800734a:	2201      	movs	r2, #1
 800734c:	429a      	cmp	r2, r3
 800734e:	db09      	blt.n	8007364 <__s2b+0x30>
 8007350:	4630      	mov	r0, r6
 8007352:	f7ff ff47 	bl	80071e4 <_Balloc>
 8007356:	b940      	cbnz	r0, 800736a <__s2b+0x36>
 8007358:	4602      	mov	r2, r0
 800735a:	4b19      	ldr	r3, [pc, #100]	@ (80073c0 <__s2b+0x8c>)
 800735c:	4819      	ldr	r0, [pc, #100]	@ (80073c4 <__s2b+0x90>)
 800735e:	21d3      	movs	r1, #211	@ 0xd3
 8007360:	f000 ff96 	bl	8008290 <__assert_func>
 8007364:	0052      	lsls	r2, r2, #1
 8007366:	3101      	adds	r1, #1
 8007368:	e7f0      	b.n	800734c <__s2b+0x18>
 800736a:	9b08      	ldr	r3, [sp, #32]
 800736c:	6143      	str	r3, [r0, #20]
 800736e:	2d09      	cmp	r5, #9
 8007370:	f04f 0301 	mov.w	r3, #1
 8007374:	6103      	str	r3, [r0, #16]
 8007376:	dd16      	ble.n	80073a6 <__s2b+0x72>
 8007378:	f104 0909 	add.w	r9, r4, #9
 800737c:	46c8      	mov	r8, r9
 800737e:	442c      	add	r4, r5
 8007380:	f818 3b01 	ldrb.w	r3, [r8], #1
 8007384:	4601      	mov	r1, r0
 8007386:	3b30      	subs	r3, #48	@ 0x30
 8007388:	220a      	movs	r2, #10
 800738a:	4630      	mov	r0, r6
 800738c:	f7ff ff8c 	bl	80072a8 <__multadd>
 8007390:	45a0      	cmp	r8, r4
 8007392:	d1f5      	bne.n	8007380 <__s2b+0x4c>
 8007394:	f1a5 0408 	sub.w	r4, r5, #8
 8007398:	444c      	add	r4, r9
 800739a:	1b2d      	subs	r5, r5, r4
 800739c:	1963      	adds	r3, r4, r5
 800739e:	42bb      	cmp	r3, r7
 80073a0:	db04      	blt.n	80073ac <__s2b+0x78>
 80073a2:	e8bd 83f8 	ldmia.w	sp!, {r3, r4, r5, r6, r7, r8, r9, pc}
 80073a6:	340a      	adds	r4, #10
 80073a8:	2509      	movs	r5, #9
 80073aa:	e7f6      	b.n	800739a <__s2b+0x66>
 80073ac:	f814 3b01 	ldrb.w	r3, [r4], #1
 80073b0:	4601      	mov	r1, r0
 80073b2:	3b30      	subs	r3, #48	@ 0x30
 80073b4:	220a      	movs	r2, #10
 80073b6:	4630      	mov	r0, r6
 80073b8:	f7ff ff76 	bl	80072a8 <__multadd>
 80073bc:	e7ee      	b.n	800739c <__s2b+0x68>
 80073be:	bf00      	nop
 80073c0:	08008c53 	.word	0x08008c53
 80073c4:	08008cdb 	.word	0x08008cdb

080073c8 <__hi0bits>:
 80073c8:	f5b0 3f80 	cmp.w	r0, #65536	@ 0x10000
 80073cc:	4603      	mov	r3, r0
 80073ce:	bf36      	itet	cc
 80073d0:	0403      	lslcc	r3, r0, #16
 80073d2:	2000      	movcs	r0, #0
 80073d4:	2010      	movcc	r0, #16
 80073d6:	f1b3 7f80 	cmp.w	r3, #16777216	@ 0x1000000
 80073da:	bf3c      	itt	cc
 80073dc:	021b      	lslcc	r3, r3, #8
 80073de:	3008      	addcc	r0, #8
 80073e0:	f1b3 5f80 	cmp.w	r3, #268435456	@ 0x10000000
 80073e4:	bf3c      	itt	cc
 80073e6:	011b      	lslcc	r3, r3, #4
 80073e8:	3004      	addcc	r0, #4
 80073ea:	f1b3 4f80 	cmp.w	r3, #1073741824	@ 0x40000000
 80073ee:	bf3c      	itt	cc
 80073f0:	009b      	lslcc	r3, r3, #2
 80073f2:	3002      	addcc	r0, #2
 80073f4:	2b00      	cmp	r3, #0
 80073f6:	db05      	blt.n	8007404 <__hi0bits+0x3c>
 80073f8:	f013 4f80 	tst.w	r3, #1073741824	@ 0x40000000
 80073fc:	f100 0001 	add.w	r0, r0, #1
 8007400:	bf08      	it	eq
 8007402:	2020      	moveq	r0, #32
 8007404:	4770      	bx	lr

08007406 <__lo0bits>:
 8007406:	6803      	ldr	r3, [r0, #0]
 8007408:	4602      	mov	r2, r0
 800740a:	f013 0007 	ands.w	r0, r3, #7
 800740e:	d00b      	beq.n	8007428 <__lo0bits+0x22>
 8007410:	07d9      	lsls	r1, r3, #31
 8007412:	d421      	bmi.n	8007458 <__lo0bits+0x52>
 8007414:	0798      	lsls	r0, r3, #30
 8007416:	bf49      	itett	mi
 8007418:	085b      	lsrmi	r3, r3, #1
 800741a:	089b      	lsrpl	r3, r3, #2
 800741c:	2001      	movmi	r0, #1
 800741e:	6013      	strmi	r3, [r2, #0]
 8007420:	bf5c      	itt	pl
 8007422:	6013      	strpl	r3, [r2, #0]
 8007424:	2002      	movpl	r0, #2
 8007426:	4770      	bx	lr
 8007428:	b299      	uxth	r1, r3
 800742a:	b909      	cbnz	r1, 8007430 <__lo0bits+0x2a>
 800742c:	0c1b      	lsrs	r3, r3, #16
 800742e:	2010      	movs	r0, #16
 8007430:	b2d9      	uxtb	r1, r3
 8007432:	b909      	cbnz	r1, 8007438 <__lo0bits+0x32>
 8007434:	3008      	adds	r0, #8
 8007436:	0a1b      	lsrs	r3, r3, #8
 8007438:	0719      	lsls	r1, r3, #28
 800743a:	bf04      	itt	eq
 800743c:	091b      	lsreq	r3, r3, #4
 800743e:	3004      	addeq	r0, #4
 8007440:	0799      	lsls	r1, r3, #30
 8007442:	bf04      	itt	eq
 8007444:	089b      	lsreq	r3, r3, #2
 8007446:	3002      	addeq	r0, #2
 8007448:	07d9      	lsls	r1, r3, #31
 800744a:	d403      	bmi.n	8007454 <__lo0bits+0x4e>
 800744c:	085b      	lsrs	r3, r3, #1
 800744e:	f100 0001 	add.w	r0, r0, #1
 8007452:	d003      	beq.n	800745c <__lo0bits+0x56>
 8007454:	6013      	str	r3, [r2, #0]
 8007456:	4770      	bx	lr
 8007458:	2000      	movs	r0, #0
 800745a:	4770      	bx	lr
 800745c:	2020      	movs	r0, #32
 800745e:	4770      	bx	lr

08007460 <__i2b>:
 8007460:	b510      	push	{r4, lr}
 8007462:	460c      	mov	r4, r1
 8007464:	2101      	movs	r1, #1
 8007466:	f7ff febd 	bl	80071e4 <_Balloc>
 800746a:	4602      	mov	r2, r0
 800746c:	b928      	cbnz	r0, 800747a <__i2b+0x1a>
 800746e:	4b05      	ldr	r3, [pc, #20]	@ (8007484 <__i2b+0x24>)
 8007470:	4805      	ldr	r0, [pc, #20]	@ (8007488 <__i2b+0x28>)
 8007472:	f240 1145 	movw	r1, #325	@ 0x145
 8007476:	f000 ff0b 	bl	8008290 <__assert_func>
 800747a:	2301      	movs	r3, #1
 800747c:	6144      	str	r4, [r0, #20]
 800747e:	6103      	str	r3, [r0, #16]
 8007480:	bd10      	pop	{r4, pc}
 8007482:	bf00      	nop
 8007484:	08008c53 	.word	0x08008c53
 8007488:	08008cdb 	.word	0x08008cdb

0800748c <__multiply>:
 800748c:	e92d 4ff0 	stmdb	sp!, {r4, r5, r6, r7, r8, r9, sl, fp, lr}
 8007490:	4617      	mov	r7, r2
 8007492:	690a      	ldr	r2, [r1, #16]
 8007494:	693b      	ldr	r3, [r7, #16]
 8007496:	429a      	cmp	r2, r3
 8007498:	bfa8      	it	ge
 800749a:	463b      	movge	r3, r7
 800749c:	4689      	mov	r9, r1
 800749e:	bfa4      	itt	ge
 80074a0:	460f      	movge	r7, r1
 80074a2:	4699      	movge	r9, r3
 80074a4:	693d      	ldr	r5, [r7, #16]
 80074a6:	f8d9 a010 	ldr.w	sl, [r9, #16]
 80074aa:	68bb      	ldr	r3, [r7, #8]
 80074ac:	6879      	ldr	r1, [r7, #4]
 80074ae:	eb05 060a 	add.w	r6, r5, sl
 80074b2:	42b3      	cmp	r3, r6
 80074b4:	b085      	sub	sp, #20
 80074b6:	bfb8      	it	lt
 80074b8:	3101      	addlt	r1, #1
 80074ba:	f7ff fe93 	bl	80071e4 <_Balloc>
 80074be:	b930      	cbnz	r0, 80074ce <__multiply+0x42>
 80074c0:	4602      	mov	r2, r0
 80074c2:	4b41      	ldr	r3, [pc, #260]	@ (80075c8 <__multiply+0x13c>)
 80074c4:	4841      	ldr	r0, [pc, #260]	@ (80075cc <__multiply+0x140>)
 80074c6:	f44f 71b1 	mov.w	r1, #354	@ 0x162
 80074ca:	f000 fee1 	bl	8008290 <__assert_func>
 80074ce:	f100 0414 	add.w	r4, r0, #20
 80074d2:	eb04 0e86 	add.w	lr, r4, r6, lsl #2
 80074d6:	4623      	mov	r3, r4
 80074d8:	2200      	movs	r2, #0
 80074da:	4573      	cmp	r3, lr
 80074dc:	d320      	bcc.n	8007520 <__multiply+0x94>
 80074de:	f107 0814 	add.w	r8, r7, #20
 80074e2:	f109 0114 	add.w	r1, r9, #20
 80074e6:	eb08 0585 	add.w	r5, r8, r5, lsl #2
 80074ea:	eb01 038a 	add.w	r3, r1, sl, lsl #2
 80074ee:	9302      	str	r3, [sp, #8]
 80074f0:	1beb      	subs	r3, r5, r7
 80074f2:	3b15      	subs	r3, #21
 80074f4:	f023 0303 	bic.w	r3, r3, #3
 80074f8:	3304      	adds	r3, #4
 80074fa:	3715      	adds	r7, #21
 80074fc:	42bd      	cmp	r5, r7
 80074fe:	bf38      	it	cc
 8007500:	2304      	movcc	r3, #4
 8007502:	9301      	str	r3, [sp, #4]
 8007504:	9b02      	ldr	r3, [sp, #8]
 8007506:	9103      	str	r1, [sp, #12]
 8007508:	428b      	cmp	r3, r1
 800750a:	d80c      	bhi.n	8007526 <__multiply+0x9a>
 800750c:	2e00      	cmp	r6, #0
 800750e:	dd03      	ble.n	8007518 <__multiply+0x8c>
 8007510:	f85e 3d04 	ldr.w	r3, [lr, #-4]!
 8007514:	2b00      	cmp	r3, #0
 8007516:	d055      	beq.n	80075c4 <__multiply+0x138>
 8007518:	6106      	str	r6, [r0, #16]
 800751a:	b005      	add	sp, #20
 800751c:	e8bd 8ff0 	ldmia.w	sp!, {r4, r5, r6, r7, r8, r9, sl, fp, pc}
 8007520:	f843 2b04 	str.w	r2, [r3], #4
 8007524:	e7d9      	b.n	80074da <__multiply+0x4e>
 8007526:	f8b1 a000 	ldrh.w	sl, [r1]
 800752a:	f1ba 0f00 	cmp.w	sl, #0
 800752e:	d01f      	beq.n	8007570 <__multiply+0xe4>
 8007530:	46c4      	mov	ip, r8
 8007532:	46a1      	mov	r9, r4
 8007534:	2700      	movs	r7, #0
 8007536:	f85c 2b04 	ldr.w	r2, [ip], #4
 800753a:	f8d9 3000 	ldr.w	r3, [r9]
 800753e:	fa1f fb82 	uxth.w	fp, r2
 8007542:	b29b      	uxth	r3, r3
 8007544:	fb0a 330b 	mla	r3, sl, fp, r3
 8007548:	443b      	add	r3, r7
 800754a:	f8d9 7000 	ldr.w	r7, [r9]
 800754e:	0c12      	lsrs	r2, r2, #16
 8007550:	0c3f      	lsrs	r7, r7, #16
 8007552:	fb0a 7202 	mla	r2, sl, r2, r7
 8007556:	eb02 4213 	add.w	r2, r2, r3, lsr #16
 800755a:	b29b      	uxth	r3, r3
 800755c:	ea43 4302 	orr.w	r3, r3, r2, lsl #16
 8007560:	4565      	cmp	r5, ip
 8007562:	f849 3b04 	str.w	r3, [r9], #4
 8007566:	ea4f 4712 	mov.w	r7, r2, lsr #16
 800756a:	d8e4      	bhi.n	8007536 <__multiply+0xaa>
 800756c:	9b01      	ldr	r3, [sp, #4]
 800756e:	50e7      	str	r7, [r4, r3]
 8007570:	9b03      	ldr	r3, [sp, #12]
 8007572:	f8b3 9002 	ldrh.w	r9, [r3, #2]
 8007576:	3104      	adds	r1, #4
 8007578:	f1b9 0f00 	cmp.w	r9, #0
 800757c:	d020      	beq.n	80075c0 <__multiply+0x134>
 800757e:	6823      	ldr	r3, [r4, #0]
 8007580:	4647      	mov	r7, r8
 8007582:	46a4      	mov	ip, r4
 8007584:	f04f 0a00 	mov.w	sl, #0
 8007588:	f8b7 b000 	ldrh.w	fp, [r7]
 800758c:	f8bc 2002 	ldrh.w	r2, [ip, #2]
 8007590:	fb09 220b 	mla	r2, r9, fp, r2
 8007594:	4452      	add	r2, sl
 8007596:	b29b      	uxth	r3, r3
 8007598:	ea43 4302 	orr.w	r3, r3, r2, lsl #16
 800759c:	f84c 3b04 	str.w	r3, [ip], #4
 80075a0:	f857 3b04 	ldr.w	r3, [r7], #4
 80075a4:	ea4f 4a13 	mov.w	sl, r3, lsr #16
 80075a8:	f8bc 3000 	ldrh.w	r3, [ip]
 80075ac:	fb09 330a 	mla	r3, r9, sl, r3
 80075b0:	eb03 4312 	add.w	r3, r3, r2, lsr #16
 80075b4:	42bd      	cmp	r5, r7
 80075b6:	ea4f 4a13 	mov.w	sl, r3, lsr #16
 80075ba:	d8e5      	bhi.n	8007588 <__multiply+0xfc>
 80075bc:	9a01      	ldr	r2, [sp, #4]
 80075be:	50a3      	str	r3, [r4, r2]
 80075c0:	3404      	adds	r4, #4
 80075c2:	e79f      	b.n	8007504 <__multiply+0x78>
 80075c4:	3e01      	subs	r6, #1
 80075c6:	e7a1      	b.n	800750c <__multiply+0x80>
 80075c8:	08008c53 	.word	0x08008c53
 80075cc:	08008cdb 	.word	0x08008cdb

080075d0 <__pow5mult>:
 80075d0:	e92d 43f8 	stmdb	sp!, {r3, r4, r5, r6, r7, r8, r9, lr}
 80075d4:	4615      	mov	r5, r2
 80075d6:	f012 0203 	ands.w	r2, r2, #3
 80075da:	4607      	mov	r7, r0
 80075dc:	460e      	mov	r6, r1
 80075de:	d007      	beq.n	80075f0 <__pow5mult+0x20>
 80075e0:	4c25      	ldr	r4, [pc, #148]	@ (8007678 <__pow5mult+0xa8>)
 80075e2:	3a01      	subs	r2, #1
 80075e4:	2300      	movs	r3, #0
 80075e6:	f854 2022 	ldr.w	r2, [r4, r2, lsl #2]
 80075ea:	f7ff fe5d 	bl	80072a8 <__multadd>
 80075ee:	4606      	mov	r6, r0
 80075f0:	10ad      	asrs	r5, r5, #2
 80075f2:	d03d      	beq.n	8007670 <__pow5mult+0xa0>
 80075f4:	69fc      	ldr	r4, [r7, #28]
 80075f6:	b97c      	cbnz	r4, 8007618 <__pow5mult+0x48>
 80075f8:	2010      	movs	r0, #16
 80075fa:	f000 fe7b 	bl	80082f4 <malloc>
 80075fe:	4602      	mov	r2, r0
 8007600:	61f8      	str	r0, [r7, #28]
 8007602:	b928      	cbnz	r0, 8007610 <__pow5mult+0x40>
 8007604:	4b1d      	ldr	r3, [pc, #116]	@ (800767c <__pow5mult+0xac>)
 8007606:	481e      	ldr	r0, [pc, #120]	@ (8007680 <__pow5mult+0xb0>)
 8007608:	f240 11b3 	movw	r1, #435	@ 0x1b3
 800760c:	f000 fe40 	bl	8008290 <__assert_func>
 8007610:	e9c0 4401 	strd	r4, r4, [r0, #4]
 8007614:	6004      	str	r4, [r0, #0]
 8007616:	60c4      	str	r4, [r0, #12]
 8007618:	f8d7 801c 	ldr.w	r8, [r7, #28]
 800761c:	f8d8 4008 	ldr.w	r4, [r8, #8]
 8007620:	b94c      	cbnz	r4, 8007636 <__pow5mult+0x66>
 8007622:	f240 2171 	movw	r1, #625	@ 0x271
 8007626:	4638      	mov	r0, r7
 8007628:	f7ff ff1a 	bl	8007460 <__i2b>
 800762c:	2300      	movs	r3, #0
 800762e:	f8c8 0008 	str.w	r0, [r8, #8]
 8007632:	4604      	mov	r4, r0
 8007634:	6003      	str	r3, [r0, #0]
 8007636:	f04f 0900 	mov.w	r9, #0
 800763a:	07eb      	lsls	r3, r5, #31
 800763c:	d50a      	bpl.n	8007654 <__pow5mult+0x84>
 800763e:	4631      	mov	r1, r6
 8007640:	4622      	mov	r2, r4
 8007642:	4638      	mov	r0, r7
 8007644:	f7ff ff22 	bl	800748c <__multiply>
 8007648:	4631      	mov	r1, r6
 800764a:	4680      	mov	r8, r0
 800764c:	4638      	mov	r0, r7
 800764e:	f7ff fe09 	bl	8007264 <_Bfree>
 8007652:	4646      	mov	r6, r8
 8007654:	106d      	asrs	r5, r5, #1
 8007656:	d00b      	beq.n	8007670 <__pow5mult+0xa0>
 8007658:	6820      	ldr	r0, [r4, #0]
 800765a:	b938      	cbnz	r0, 800766c <__pow5mult+0x9c>
 800765c:	4622      	mov	r2, r4
 800765e:	4621      	mov	r1, r4
 8007660:	4638      	mov	r0, r7
 8007662:	f7ff ff13 	bl	800748c <__multiply>
 8007666:	6020      	str	r0, [r4, #0]
 8007668:	f8c0 9000 	str.w	r9, [r0]
 800766c:	4604      	mov	r4, r0
 800766e:	e7e4      	b.n	800763a <__pow5mult+0x6a>
 8007670:	4630      	mov	r0, r6
 8007672:	e8bd 83f8 	ldmia.w	sp!, {r3, r4, r5, r6, r7, r8, r9, pc}
 8007676:	bf00      	nop
 8007678:	08008f4c 	.word	0x08008f4c
 800767c:	08008cc4 	.word	0x08008cc4
 8007680:	08008cdb 	.word	0x08008cdb

08007684 <__lshift>:
 8007684:	e92d 47f0 	stmdb	sp!, {r4, r5, r6, r7, r8, r9, sl, lr}
 8007688:	460c      	mov	r4, r1
 800768a:	6849      	ldr	r1, [r1, #4]
 800768c:	6923      	ldr	r3, [r4, #16]
 800768e:	eb03 1862 	add.w	r8, r3, r2, asr #5
 8007692:	68a3      	ldr	r3, [r4, #8]
 8007694:	4607      	mov	r7, r0
 8007696:	4691      	mov	r9, r2
 8007698:	ea4f 1a62 	mov.w	sl, r2, asr #5
 800769c:	f108 0601 	add.w	r6, r8, #1
 80076a0:	42b3      	cmp	r3, r6
 80076a2:	db0b      	blt.n	80076bc <__lshift+0x38>
 80076a4:	4638      	mov	r0, r7
 80076a6:	f7ff fd9d 	bl	80071e4 <_Balloc>
 80076aa:	4605      	mov	r5, r0
 80076ac:	b948      	cbnz	r0, 80076c2 <__lshift+0x3e>
 80076ae:	4602      	mov	r2, r0
 80076b0:	4b28      	ldr	r3, [pc, #160]	@ (8007754 <__lshift+0xd0>)
 80076b2:	4829      	ldr	r0, [pc, #164]	@ (8007758 <__lshift+0xd4>)
 80076b4:	f44f 71ef 	mov.w	r1, #478	@ 0x1de
 80076b8:	f000 fdea 	bl	8008290 <__assert_func>
 80076bc:	3101      	adds	r1, #1
 80076be:	005b      	lsls	r3, r3, #1
 80076c0:	e7ee      	b.n	80076a0 <__lshift+0x1c>
 80076c2:	2300      	movs	r3, #0
 80076c4:	f100 0114 	add.w	r1, r0, #20
 80076c8:	f100 0210 	add.w	r2, r0, #16
 80076cc:	4618      	mov	r0, r3
 80076ce:	4553      	cmp	r3, sl
 80076d0:	db33      	blt.n	800773a <__lshift+0xb6>
 80076d2:	6920      	ldr	r0, [r4, #16]
 80076d4:	ea2a 7aea 	bic.w	sl, sl, sl, asr #31
 80076d8:	f104 0314 	add.w	r3, r4, #20
 80076dc:	f019 091f 	ands.w	r9, r9, #31
 80076e0:	eb01 018a 	add.w	r1, r1, sl, lsl #2
 80076e4:	eb03 0c80 	add.w	ip, r3, r0, lsl #2
 80076e8:	d02b      	beq.n	8007742 <__lshift+0xbe>
 80076ea:	f1c9 0e20 	rsb	lr, r9, #32
 80076ee:	468a      	mov	sl, r1
 80076f0:	2200      	movs	r2, #0
 80076f2:	6818      	ldr	r0, [r3, #0]
 80076f4:	fa00 f009 	lsl.w	r0, r0, r9
 80076f8:	4310      	orrs	r0, r2
 80076fa:	f84a 0b04 	str.w	r0, [sl], #4
 80076fe:	f853 2b04 	ldr.w	r2, [r3], #4
 8007702:	459c      	cmp	ip, r3
 8007704:	fa22 f20e 	lsr.w	r2, r2, lr
 8007708:	d8f3      	bhi.n	80076f2 <__lshift+0x6e>
 800770a:	ebac 0304 	sub.w	r3, ip, r4
 800770e:	3b15      	subs	r3, #21
 8007710:	f023 0303 	bic.w	r3, r3, #3
 8007714:	3304      	adds	r3, #4
 8007716:	f104 0015 	add.w	r0, r4, #21
 800771a:	4560      	cmp	r0, ip
 800771c:	bf88      	it	hi
 800771e:	2304      	movhi	r3, #4
 8007720:	50ca      	str	r2, [r1, r3]
 8007722:	b10a      	cbz	r2, 8007728 <__lshift+0xa4>
 8007724:	f108 0602 	add.w	r6, r8, #2
 8007728:	3e01      	subs	r6, #1
 800772a:	4638      	mov	r0, r7
 800772c:	612e      	str	r6, [r5, #16]
 800772e:	4621      	mov	r1, r4
 8007730:	f7ff fd98 	bl	8007264 <_Bfree>
 8007734:	4628      	mov	r0, r5
 8007736:	e8bd 87f0 	ldmia.w	sp!, {r4, r5, r6, r7, r8, r9, sl, pc}
 800773a:	f842 0f04 	str.w	r0, [r2, #4]!
 800773e:	3301      	adds	r3, #1
 8007740:	e7c5      	b.n	80076ce <__lshift+0x4a>
 8007742:	3904      	subs	r1, #4
 8007744:	f853 2b04 	ldr.w	r2, [r3], #4
 8007748:	f841 2f04 	str.w	r2, [r1, #4]!
 800774c:	459c      	cmp	ip, r3
 800774e:	d8f9      	bhi.n	8007744 <__lshift+0xc0>
 8007750:	e7ea      	b.n	8007728 <__lshift+0xa4>
 8007752:	bf00      	nop
 8007754:	08008c53 	.word	0x08008c53
 8007758:	08008cdb 	.word	0x08008cdb

0800775c <__mcmp>:
 800775c:	690a      	ldr	r2, [r1, #16]
 800775e:	4603      	mov	r3, r0
 8007760:	6900      	ldr	r0, [r0, #16]
 8007762:	1a80      	subs	r0, r0, r2
 8007764:	b530      	push	{r4, r5, lr}
 8007766:	d10e      	bne.n	8007786 <__mcmp+0x2a>
 8007768:	3314      	adds	r3, #20
 800776a:	3114      	adds	r1, #20
 800776c:	eb03 0482 	add.w	r4, r3, r2, lsl #2
 8007770:	eb01 0182 	add.w	r1, r1, r2, lsl #2
 8007774:	f854 5d04 	ldr.w	r5, [r4, #-4]!
 8007778:	f851 2d04 	ldr.w	r2, [r1, #-4]!
 800777c:	4295      	cmp	r5, r2
 800777e:	d003      	beq.n	8007788 <__mcmp+0x2c>
 8007780:	d205      	bcs.n	800778e <__mcmp+0x32>
 8007782:	f04f 30ff 	mov.w	r0, #4294967295
 8007786:	bd30      	pop	{r4, r5, pc}
 8007788:	42a3      	cmp	r3, r4
 800778a:	d3f3      	bcc.n	8007774 <__mcmp+0x18>
 800778c:	e7fb      	b.n	8007786 <__mcmp+0x2a>
 800778e:	2001      	movs	r0, #1
 8007790:	e7f9      	b.n	8007786 <__mcmp+0x2a>
	...

08007794 <__mdiff>:
 8007794:	e92d 4ff7 	stmdb	sp!, {r0, r1, r2, r4, r5, r6, r7, r8, r9, sl, fp, lr}
 8007798:	4689      	mov	r9, r1
 800779a:	4606      	mov	r6, r0
 800779c:	4611      	mov	r1, r2
 800779e:	4648      	mov	r0, r9
 80077a0:	4614      	mov	r4, r2
 80077a2:	f7ff ffdb 	bl	800775c <__mcmp>
 80077a6:	1e05      	subs	r5, r0, #0
 80077a8:	d112      	bne.n	80077d0 <__mdiff+0x3c>
 80077aa:	4629      	mov	r1, r5
 80077ac:	4630      	mov	r0, r6
 80077ae:	f7ff fd19 	bl	80071e4 <_Balloc>
 80077b2:	4602      	mov	r2, r0
 80077b4:	b928      	cbnz	r0, 80077c2 <__mdiff+0x2e>
 80077b6:	4b3f      	ldr	r3, [pc, #252]	@ (80078b4 <__mdiff+0x120>)
 80077b8:	f240 2137 	movw	r1, #567	@ 0x237
 80077bc:	483e      	ldr	r0, [pc, #248]	@ (80078b8 <__mdiff+0x124>)
 80077be:	f000 fd67 	bl	8008290 <__assert_func>
 80077c2:	2301      	movs	r3, #1
 80077c4:	e9c0 3504 	strd	r3, r5, [r0, #16]
 80077c8:	4610      	mov	r0, r2
 80077ca:	b003      	add	sp, #12
 80077cc:	e8bd 8ff0 	ldmia.w	sp!, {r4, r5, r6, r7, r8, r9, sl, fp, pc}
 80077d0:	bfbc      	itt	lt
 80077d2:	464b      	movlt	r3, r9
 80077d4:	46a1      	movlt	r9, r4
 80077d6:	4630      	mov	r0, r6
 80077d8:	f8d9 1004 	ldr.w	r1, [r9, #4]
 80077dc:	bfba      	itte	lt
 80077de:	461c      	movlt	r4, r3
 80077e0:	2501      	movlt	r5, #1
 80077e2:	2500      	movge	r5, #0
 80077e4:	f7ff fcfe 	bl	80071e4 <_Balloc>
 80077e8:	4602      	mov	r2, r0
 80077ea:	b918      	cbnz	r0, 80077f4 <__mdiff+0x60>
 80077ec:	4b31      	ldr	r3, [pc, #196]	@ (80078b4 <__mdiff+0x120>)
 80077ee:	f240 2145 	movw	r1, #581	@ 0x245
 80077f2:	e7e3      	b.n	80077bc <__mdiff+0x28>
 80077f4:	f8d9 7010 	ldr.w	r7, [r9, #16]
 80077f8:	6926      	ldr	r6, [r4, #16]
 80077fa:	60c5      	str	r5, [r0, #12]
 80077fc:	f109 0310 	add.w	r3, r9, #16
 8007800:	f109 0514 	add.w	r5, r9, #20
 8007804:	f104 0e14 	add.w	lr, r4, #20
 8007808:	f100 0b14 	add.w	fp, r0, #20
 800780c:	eb05 0887 	add.w	r8, r5, r7, lsl #2
 8007810:	eb0e 0686 	add.w	r6, lr, r6, lsl #2
 8007814:	9301      	str	r3, [sp, #4]
 8007816:	46d9      	mov	r9, fp
 8007818:	f04f 0c00 	mov.w	ip, #0
 800781c:	9b01      	ldr	r3, [sp, #4]
 800781e:	f85e 0b04 	ldr.w	r0, [lr], #4
 8007822:	f853 af04 	ldr.w	sl, [r3, #4]!
 8007826:	9301      	str	r3, [sp, #4]
 8007828:	fa1f f38a 	uxth.w	r3, sl
 800782c:	4619      	mov	r1, r3
 800782e:	b283      	uxth	r3, r0
 8007830:	1acb      	subs	r3, r1, r3
 8007832:	0c00      	lsrs	r0, r0, #16
 8007834:	4463      	add	r3, ip
 8007836:	ebc0 401a 	rsb	r0, r0, sl, lsr #16
 800783a:	eb00 4023 	add.w	r0, r0, r3, asr #16
 800783e:	b29b      	uxth	r3, r3
 8007840:	ea43 4300 	orr.w	r3, r3, r0, lsl #16
 8007844:	4576      	cmp	r6, lr
 8007846:	f849 3b04 	str.w	r3, [r9], #4
 800784a:	ea4f 4c20 	mov.w	ip, r0, asr #16
 800784e:	d8e5      	bhi.n	800781c <__mdiff+0x88>
 8007850:	1b33      	subs	r3, r6, r4
 8007852:	3b15      	subs	r3, #21
 8007854:	f023 0303 	bic.w	r3, r3, #3
 8007858:	3415      	adds	r4, #21
 800785a:	3304      	adds	r3, #4
 800785c:	42a6      	cmp	r6, r4
 800785e:	bf38      	it	cc
 8007860:	2304      	movcc	r3, #4
 8007862:	441d      	add	r5, r3
 8007864:	445b      	add	r3, fp
 8007866:	461e      	mov	r6, r3
 8007868:	462c      	mov	r4, r5
 800786a:	4544      	cmp	r4, r8
 800786c:	d30e      	bcc.n	800788c <__mdiff+0xf8>
 800786e:	f108 0103 	add.w	r1, r8, #3
 8007872:	1b49      	subs	r1, r1, r5
 8007874:	f021 0103 	bic.w	r1, r1, #3
 8007878:	3d03      	subs	r5, #3
 800787a:	45a8      	cmp	r8, r5
 800787c:	bf38      	it	cc
 800787e:	2100      	movcc	r1, #0
 8007880:	440b      	add	r3, r1
 8007882:	f853 1d04 	ldr.w	r1, [r3, #-4]!
 8007886:	b191      	cbz	r1, 80078ae <__mdiff+0x11a>
 8007888:	6117      	str	r7, [r2, #16]
 800788a:	e79d      	b.n	80077c8 <__mdiff+0x34>
 800788c:	f854 1b04 	ldr.w	r1, [r4], #4
 8007890:	46e6      	mov	lr, ip
 8007892:	0c08      	lsrs	r0, r1, #16
 8007894:	fa1c fc81 	uxtah	ip, ip, r1
 8007898:	4471      	add	r1, lr
 800789a:	eb00 402c 	add.w	r0, r0, ip, asr #16
 800789e:	b289      	uxth	r1, r1
 80078a0:	ea41 4100 	orr.w	r1, r1, r0, lsl #16
 80078a4:	f846 1b04 	str.w	r1, [r6], #4
 80078a8:	ea4f 4c20 	mov.w	ip, r0, asr #16
 80078ac:	e7dd      	b.n	800786a <__mdiff+0xd6>
 80078ae:	3f01      	subs	r7, #1
 80078b0:	e7e7      	b.n	8007882 <__mdiff+0xee>
 80078b2:	bf00      	nop
 80078b4:	08008c53 	.word	0x08008c53
 80078b8:	08008cdb 	.word	0x08008cdb

080078bc <__ulp>:
 80078bc:	b082      	sub	sp, #8
 80078be:	ed8d 0b00 	vstr	d0, [sp]
 80078c2:	9a01      	ldr	r2, [sp, #4]
 80078c4:	4b0f      	ldr	r3, [pc, #60]	@ (8007904 <__ulp+0x48>)
 80078c6:	4013      	ands	r3, r2
 80078c8:	f1a3 7350 	sub.w	r3, r3, #54525952	@ 0x3400000
 80078cc:	2b00      	cmp	r3, #0
 80078ce:	dc08      	bgt.n	80078e2 <__ulp+0x26>
 80078d0:	425b      	negs	r3, r3
 80078d2:	f1b3 7fa0 	cmp.w	r3, #20971520	@ 0x1400000
 80078d6:	ea4f 5223 	mov.w	r2, r3, asr #20
 80078da:	da04      	bge.n	80078e6 <__ulp+0x2a>
 80078dc:	f44f 2300 	mov.w	r3, #524288	@ 0x80000
 80078e0:	4113      	asrs	r3, r2
 80078e2:	2200      	movs	r2, #0
 80078e4:	e008      	b.n	80078f8 <__ulp+0x3c>
 80078e6:	f1a2 0314 	sub.w	r3, r2, #20
 80078ea:	2b1e      	cmp	r3, #30
 80078ec:	bfda      	itte	le
 80078ee:	f04f 4200 	movle.w	r2, #2147483648	@ 0x80000000
 80078f2:	40da      	lsrle	r2, r3
 80078f4:	2201      	movgt	r2, #1
 80078f6:	2300      	movs	r3, #0
 80078f8:	4619      	mov	r1, r3
 80078fa:	4610      	mov	r0, r2
 80078fc:	ec41 0b10 	vmov	d0, r0, r1
 8007900:	b002      	add	sp, #8
 8007902:	4770      	bx	lr
 8007904:	7ff00000 	.word	0x7ff00000

08007908 <__b2d>:
 8007908:	e92d 41f0 	stmdb	sp!, {r4, r5, r6, r7, r8, lr}
 800790c:	6906      	ldr	r6, [r0, #16]
 800790e:	f100 0814 	add.w	r8, r0, #20
 8007912:	eb08 0686 	add.w	r6, r8, r6, lsl #2
 8007916:	1f37      	subs	r7, r6, #4
 8007918:	f856 2c04 	ldr.w	r2, [r6, #-4]
 800791c:	4610      	mov	r0, r2
 800791e:	f7ff fd53 	bl	80073c8 <__hi0bits>
 8007922:	f1c0 0320 	rsb	r3, r0, #32
 8007926:	280a      	cmp	r0, #10
 8007928:	600b      	str	r3, [r1, #0]
 800792a:	491b      	ldr	r1, [pc, #108]	@ (8007998 <__b2d+0x90>)
 800792c:	dc15      	bgt.n	800795a <__b2d+0x52>
 800792e:	f1c0 0c0b 	rsb	ip, r0, #11
 8007932:	fa22 f30c 	lsr.w	r3, r2, ip
 8007936:	45b8      	cmp	r8, r7
 8007938:	ea43 0501 	orr.w	r5, r3, r1
 800793c:	bf34      	ite	cc
 800793e:	f856 3c08 	ldrcc.w	r3, [r6, #-8]
 8007942:	2300      	movcs	r3, #0
 8007944:	3015      	adds	r0, #21
 8007946:	fa02 f000 	lsl.w	r0, r2, r0
 800794a:	fa23 f30c 	lsr.w	r3, r3, ip
 800794e:	4303      	orrs	r3, r0
 8007950:	461c      	mov	r4, r3
 8007952:	ec45 4b10 	vmov	d0, r4, r5
 8007956:	e8bd 81f0 	ldmia.w	sp!, {r4, r5, r6, r7, r8, pc}
 800795a:	45b8      	cmp	r8, r7
 800795c:	bf3a      	itte	cc
 800795e:	f856 3c08 	ldrcc.w	r3, [r6, #-8]
 8007962:	f1a6 0708 	subcc.w	r7, r6, #8
 8007966:	2300      	movcs	r3, #0
 8007968:	380b      	subs	r0, #11
 800796a:	d012      	beq.n	8007992 <__b2d+0x8a>
 800796c:	f1c0 0120 	rsb	r1, r0, #32
 8007970:	fa23 f401 	lsr.w	r4, r3, r1
 8007974:	4082      	lsls	r2, r0
 8007976:	4322      	orrs	r2, r4
 8007978:	4547      	cmp	r7, r8
 800797a:	f042 557f 	orr.w	r5, r2, #1069547520	@ 0x3fc00000
 800797e:	bf8c      	ite	hi
 8007980:	f857 2c04 	ldrhi.w	r2, [r7, #-4]
 8007984:	2200      	movls	r2, #0
 8007986:	4083      	lsls	r3, r0
 8007988:	40ca      	lsrs	r2, r1
 800798a:	f445 1540 	orr.w	r5, r5, #3145728	@ 0x300000
 800798e:	4313      	orrs	r3, r2
 8007990:	e7de      	b.n	8007950 <__b2d+0x48>
 8007992:	ea42 0501 	orr.w	r5, r2, r1
 8007996:	e7db      	b.n	8007950 <__b2d+0x48>
 8007998:	3ff00000 	.word	0x3ff00000

0800799c <__d2b>:
 800799c:	e92d 43f7 	stmdb	sp!, {r0, r1, r2, r4, r5, r6, r7, r8, r9, lr}
 80079a0:	460f      	mov	r7, r1
 80079a2:	2101      	movs	r1, #1
 80079a4:	ec59 8b10 	vmov	r8, r9, d0
 80079a8:	4616      	mov	r6, r2
 80079aa:	f7ff fc1b 	bl	80071e4 <_Balloc>
 80079ae:	4604      	mov	r4, r0
 80079b0:	b930      	cbnz	r0, 80079c0 <__d2b+0x24>
 80079b2:	4602      	mov	r2, r0
 80079b4:	4b23      	ldr	r3, [pc, #140]	@ (8007a44 <__d2b+0xa8>)
 80079b6:	4824      	ldr	r0, [pc, #144]	@ (8007a48 <__d2b+0xac>)
 80079b8:	f240 310f 	movw	r1, #783	@ 0x30f
 80079bc:	f000 fc68 	bl	8008290 <__assert_func>
 80079c0:	f3c9 550a 	ubfx	r5, r9, #20, #11
 80079c4:	f3c9 0313 	ubfx	r3, r9, #0, #20
 80079c8:	b10d      	cbz	r5, 80079ce <__d2b+0x32>
 80079ca:	f443 1380 	orr.w	r3, r3, #1048576	@ 0x100000
 80079ce:	9301      	str	r3, [sp, #4]
 80079d0:	f1b8 0300 	subs.w	r3, r8, #0
 80079d4:	d023      	beq.n	8007a1e <__d2b+0x82>
 80079d6:	4668      	mov	r0, sp
 80079d8:	9300      	str	r3, [sp, #0]
 80079da:	f7ff fd14 	bl	8007406 <__lo0bits>
 80079de:	e9dd 1200 	ldrd	r1, r2, [sp]
 80079e2:	b1d0      	cbz	r0, 8007a1a <__d2b+0x7e>
 80079e4:	f1c0 0320 	rsb	r3, r0, #32
 80079e8:	fa02 f303 	lsl.w	r3, r2, r3
 80079ec:	430b      	orrs	r3, r1
 80079ee:	40c2      	lsrs	r2, r0
 80079f0:	6163      	str	r3, [r4, #20]
 80079f2:	9201      	str	r2, [sp, #4]
 80079f4:	9b01      	ldr	r3, [sp, #4]
 80079f6:	61a3      	str	r3, [r4, #24]
 80079f8:	2b00      	cmp	r3, #0
 80079fa:	bf0c      	ite	eq
 80079fc:	2201      	moveq	r2, #1
 80079fe:	2202      	movne	r2, #2
 8007a00:	6122      	str	r2, [r4, #16]
 8007a02:	b1a5      	cbz	r5, 8007a2e <__d2b+0x92>
 8007a04:	f2a5 4533 	subw	r5, r5, #1075	@ 0x433
 8007a08:	4405      	add	r5, r0
 8007a0a:	603d      	str	r5, [r7, #0]
 8007a0c:	f1c0 0035 	rsb	r0, r0, #53	@ 0x35
 8007a10:	6030      	str	r0, [r6, #0]
 8007a12:	4620      	mov	r0, r4
 8007a14:	b003      	add	sp, #12
 8007a16:	e8bd 83f0 	ldmia.w	sp!, {r4, r5, r6, r7, r8, r9, pc}
 8007a1a:	6161      	str	r1, [r4, #20]
 8007a1c:	e7ea      	b.n	80079f4 <__d2b+0x58>
 8007a1e:	a801      	add	r0, sp, #4
 8007a20:	f7ff fcf1 	bl	8007406 <__lo0bits>
 8007a24:	9b01      	ldr	r3, [sp, #4]
 8007a26:	6163      	str	r3, [r4, #20]
 8007a28:	3020      	adds	r0, #32
 8007a2a:	2201      	movs	r2, #1
 8007a2c:	e7e8      	b.n	8007a00 <__d2b+0x64>
 8007a2e:	eb04 0382 	add.w	r3, r4, r2, lsl #2
 8007a32:	f2a0 4032 	subw	r0, r0, #1074	@ 0x432
 8007a36:	6038      	str	r0, [r7, #0]
 8007a38:	6918      	ldr	r0, [r3, #16]
 8007a3a:	f7ff fcc5 	bl	80073c8 <__hi0bits>
 8007a3e:	ebc0 1042 	rsb	r0, r0, r2, lsl #5
 8007a42:	e7e5      	b.n	8007a10 <__d2b+0x74>
 8007a44:	08008c53 	.word	0x08008c53
 8007a48:	08008cdb 	.word	0x08008cdb

08007a4c <__ratio>:
 8007a4c:	e92d 4ff0 	stmdb	sp!, {r4, r5, r6, r7, r8, r9, sl, fp, lr}
 8007a50:	b085      	sub	sp, #20
 8007a52:	e9cd 1000 	strd	r1, r0, [sp]
 8007a56:	a902      	add	r1, sp, #8
 8007a58:	f7ff ff56 	bl	8007908 <__b2d>
 8007a5c:	9800      	ldr	r0, [sp, #0]
 8007a5e:	a903      	add	r1, sp, #12
 8007a60:	ec55 4b10 	vmov	r4, r5, d0
 8007a64:	f7ff ff50 	bl	8007908 <__b2d>
 8007a68:	9b01      	ldr	r3, [sp, #4]
 8007a6a:	6919      	ldr	r1, [r3, #16]
 8007a6c:	9b00      	ldr	r3, [sp, #0]
 8007a6e:	691b      	ldr	r3, [r3, #16]
 8007a70:	1ac9      	subs	r1, r1, r3
 8007a72:	e9dd 3202 	ldrd	r3, r2, [sp, #8]
 8007a76:	1a9b      	subs	r3, r3, r2
 8007a78:	ec5b ab10 	vmov	sl, fp, d0
 8007a7c:	eb03 1341 	add.w	r3, r3, r1, lsl #5
 8007a80:	2b00      	cmp	r3, #0
 8007a82:	bfce      	itee	gt
 8007a84:	462a      	movgt	r2, r5
 8007a86:	ebc3 3303 	rsble	r3, r3, r3, lsl #12
 8007a8a:	465a      	movle	r2, fp
 8007a8c:	462f      	mov	r7, r5
 8007a8e:	46d9      	mov	r9, fp
 8007a90:	bfcc      	ite	gt
 8007a92:	eb02 5703 	addgt.w	r7, r2, r3, lsl #20
 8007a96:	eb02 5903 	addle.w	r9, r2, r3, lsl #20
 8007a9a:	464b      	mov	r3, r9
 8007a9c:	4652      	mov	r2, sl
 8007a9e:	4620      	mov	r0, r4
 8007aa0:	4639      	mov	r1, r7
 8007aa2:	f7f8 feeb 	bl	800087c <__aeabi_ddiv>
 8007aa6:	ec41 0b10 	vmov	d0, r0, r1
 8007aaa:	b005      	add	sp, #20
 8007aac:	e8bd 8ff0 	ldmia.w	sp!, {r4, r5, r6, r7, r8, r9, sl, fp, pc}

08007ab0 <__copybits>:
 8007ab0:	3901      	subs	r1, #1
 8007ab2:	b570      	push	{r4, r5, r6, lr}
 8007ab4:	1149      	asrs	r1, r1, #5
 8007ab6:	6914      	ldr	r4, [r2, #16]
 8007ab8:	3101      	adds	r1, #1
 8007aba:	f102 0314 	add.w	r3, r2, #20
 8007abe:	eb00 0181 	add.w	r1, r0, r1, lsl #2
 8007ac2:	eb03 0484 	add.w	r4, r3, r4, lsl #2
 8007ac6:	1f05      	subs	r5, r0, #4
 8007ac8:	42a3      	cmp	r3, r4
 8007aca:	d30c      	bcc.n	8007ae6 <__copybits+0x36>
 8007acc:	1aa3      	subs	r3, r4, r2
 8007ace:	3b11      	subs	r3, #17
 8007ad0:	f023 0303 	bic.w	r3, r3, #3
 8007ad4:	3211      	adds	r2, #17
 8007ad6:	42a2      	cmp	r2, r4
 8007ad8:	bf88      	it	hi
 8007ada:	2300      	movhi	r3, #0
 8007adc:	4418      	add	r0, r3
 8007ade:	2300      	movs	r3, #0
 8007ae0:	4288      	cmp	r0, r1
 8007ae2:	d305      	bcc.n	8007af0 <__copybits+0x40>
 8007ae4:	bd70      	pop	{r4, r5, r6, pc}
 8007ae6:	f853 6b04 	ldr.w	r6, [r3], #4
 8007aea:	f845 6f04 	str.w	r6, [r5, #4]!
 8007aee:	e7eb      	b.n	8007ac8 <__copybits+0x18>
 8007af0:	f840 3b04 	str.w	r3, [r0], #4
 8007af4:	e7f4      	b.n	8007ae0 <__copybits+0x30>

08007af6 <__any_on>:
 8007af6:	f100 0214 	add.w	r2, r0, #20
 8007afa:	6900      	ldr	r0, [r0, #16]
 8007afc:	114b      	asrs	r3, r1, #5
 8007afe:	4298      	cmp	r0, r3
 8007b00:	b510      	push	{r4, lr}
 8007b02:	db11      	blt.n	8007b28 <__any_on+0x32>
 8007b04:	dd0a      	ble.n	8007b1c <__any_on+0x26>
 8007b06:	f011 011f 	ands.w	r1, r1, #31
 8007b0a:	d007      	beq.n	8007b1c <__any_on+0x26>
 8007b0c:	f852 4023 	ldr.w	r4, [r2, r3, lsl #2]
 8007b10:	fa24 f001 	lsr.w	r0, r4, r1
 8007b14:	fa00 f101 	lsl.w	r1, r0, r1
 8007b18:	428c      	cmp	r4, r1
 8007b1a:	d10b      	bne.n	8007b34 <__any_on+0x3e>
 8007b1c:	eb02 0383 	add.w	r3, r2, r3, lsl #2
 8007b20:	4293      	cmp	r3, r2
 8007b22:	d803      	bhi.n	8007b2c <__any_on+0x36>
 8007b24:	2000      	movs	r0, #0
 8007b26:	bd10      	pop	{r4, pc}
 8007b28:	4603      	mov	r3, r0
 8007b2a:	e7f7      	b.n	8007b1c <__any_on+0x26>
 8007b2c:	f853 1d04 	ldr.w	r1, [r3, #-4]!
 8007b30:	2900      	cmp	r1, #0
 8007b32:	d0f5      	beq.n	8007b20 <__any_on+0x2a>
 8007b34:	2001      	movs	r0, #1
 8007b36:	e7f6      	b.n	8007b26 <__any_on+0x30>

08007b38 <__ascii_wctomb>:
 8007b38:	4603      	mov	r3, r0
 8007b3a:	4608      	mov	r0, r1
 8007b3c:	b141      	cbz	r1, 8007b50 <__ascii_wctomb+0x18>
 8007b3e:	2aff      	cmp	r2, #255	@ 0xff
 8007b40:	d904      	bls.n	8007b4c <__ascii_wctomb+0x14>
 8007b42:	228a      	movs	r2, #138	@ 0x8a
 8007b44:	601a      	str	r2, [r3, #0]
 8007b46:	f04f 30ff 	mov.w	r0, #4294967295
 8007b4a:	4770      	bx	lr
 8007b4c:	700a      	strb	r2, [r1, #0]
 8007b4e:	2001      	movs	r0, #1
 8007b50:	4770      	bx	lr

08007b52 <__ssputs_r>:
 8007b52:	e92d 47f0 	stmdb	sp!, {r4, r5, r6, r7, r8, r9, sl, lr}
 8007b56:	688e      	ldr	r6, [r1, #8]
 8007b58:	461f      	mov	r7, r3
 8007b5a:	42be      	cmp	r6, r7
 8007b5c:	680b      	ldr	r3, [r1, #0]
 8007b5e:	4682      	mov	sl, r0
 8007b60:	460c      	mov	r4, r1
 8007b62:	4690      	mov	r8, r2
 8007b64:	d82d      	bhi.n	8007bc2 <__ssputs_r+0x70>
 8007b66:	f9b1 200c 	ldrsh.w	r2, [r1, #12]
 8007b6a:	f412 6f90 	tst.w	r2, #1152	@ 0x480
 8007b6e:	d026      	beq.n	8007bbe <__ssputs_r+0x6c>
 8007b70:	6965      	ldr	r5, [r4, #20]
 8007b72:	6909      	ldr	r1, [r1, #16]
 8007b74:	eb05 0545 	add.w	r5, r5, r5, lsl #1
 8007b78:	eba3 0901 	sub.w	r9, r3, r1
 8007b7c:	eb05 75d5 	add.w	r5, r5, r5, lsr #31
 8007b80:	1c7b      	adds	r3, r7, #1
 8007b82:	444b      	add	r3, r9
 8007b84:	106d      	asrs	r5, r5, #1
 8007b86:	429d      	cmp	r5, r3
 8007b88:	bf38      	it	cc
 8007b8a:	461d      	movcc	r5, r3
 8007b8c:	0553      	lsls	r3, r2, #21
 8007b8e:	d527      	bpl.n	8007be0 <__ssputs_r+0x8e>
 8007b90:	4629      	mov	r1, r5
 8007b92:	f7ff fa89 	bl	80070a8 <_malloc_r>
 8007b96:	4606      	mov	r6, r0
 8007b98:	b360      	cbz	r0, 8007bf4 <__ssputs_r+0xa2>
 8007b9a:	6921      	ldr	r1, [r4, #16]
 8007b9c:	464a      	mov	r2, r9
 8007b9e:	f7fe fec0 	bl	8006922 <memcpy>
 8007ba2:	89a3      	ldrh	r3, [r4, #12]
 8007ba4:	f423 6390 	bic.w	r3, r3, #1152	@ 0x480
 8007ba8:	f043 0380 	orr.w	r3, r3, #128	@ 0x80
 8007bac:	81a3      	strh	r3, [r4, #12]
 8007bae:	6126      	str	r6, [r4, #16]
 8007bb0:	6165      	str	r5, [r4, #20]
 8007bb2:	444e      	add	r6, r9
 8007bb4:	eba5 0509 	sub.w	r5, r5, r9
 8007bb8:	6026      	str	r6, [r4, #0]
 8007bba:	60a5      	str	r5, [r4, #8]
 8007bbc:	463e      	mov	r6, r7
 8007bbe:	42be      	cmp	r6, r7
 8007bc0:	d900      	bls.n	8007bc4 <__ssputs_r+0x72>
 8007bc2:	463e      	mov	r6, r7
 8007bc4:	6820      	ldr	r0, [r4, #0]
 8007bc6:	4632      	mov	r2, r6
 8007bc8:	4641      	mov	r1, r8
 8007bca:	f7fe fdcf 	bl	800676c <memmove>
 8007bce:	68a3      	ldr	r3, [r4, #8]
 8007bd0:	1b9b      	subs	r3, r3, r6
 8007bd2:	60a3      	str	r3, [r4, #8]
 8007bd4:	6823      	ldr	r3, [r4, #0]
 8007bd6:	4433      	add	r3, r6
 8007bd8:	6023      	str	r3, [r4, #0]
 8007bda:	2000      	movs	r0, #0
 8007bdc:	e8bd 87f0 	ldmia.w	sp!, {r4, r5, r6, r7, r8, r9, sl, pc}
 8007be0:	462a      	mov	r2, r5
 8007be2:	f000 fb8f 	bl	8008304 <_realloc_r>
 8007be6:	4606      	mov	r6, r0
 8007be8:	2800      	cmp	r0, #0
 8007bea:	d1e0      	bne.n	8007bae <__ssputs_r+0x5c>
 8007bec:	6921      	ldr	r1, [r4, #16]
 8007bee:	4650      	mov	r0, sl
 8007bf0:	f7fe feb4 	bl	800695c <_free_r>
 8007bf4:	230c      	movs	r3, #12
 8007bf6:	f8ca 3000 	str.w	r3, [sl]
 8007bfa:	89a3      	ldrh	r3, [r4, #12]
 8007bfc:	f043 0340 	orr.w	r3, r3, #64	@ 0x40
 8007c00:	81a3      	strh	r3, [r4, #12]
 8007c02:	f04f 30ff 	mov.w	r0, #4294967295
 8007c06:	e7e9      	b.n	8007bdc <__ssputs_r+0x8a>

08007c08 <_svfiprintf_r>:
 8007c08:	e92d 4ff0 	stmdb	sp!, {r4, r5, r6, r7, r8, r9, sl, fp, lr}
 8007c0c:	4698      	mov	r8, r3
 8007c0e:	898b      	ldrh	r3, [r1, #12]
 8007c10:	061b      	lsls	r3, r3, #24
 8007c12:	b09d      	sub	sp, #116	@ 0x74
 8007c14:	4607      	mov	r7, r0
 8007c16:	460d      	mov	r5, r1
 8007c18:	4614      	mov	r4, r2
 8007c1a:	d510      	bpl.n	8007c3e <_svfiprintf_r+0x36>
 8007c1c:	690b      	ldr	r3, [r1, #16]
 8007c1e:	b973      	cbnz	r3, 8007c3e <_svfiprintf_r+0x36>
 8007c20:	2140      	movs	r1, #64	@ 0x40
 8007c22:	f7ff fa41 	bl	80070a8 <_malloc_r>
 8007c26:	6028      	str	r0, [r5, #0]
 8007c28:	6128      	str	r0, [r5, #16]
 8007c2a:	b930      	cbnz	r0, 8007c3a <_svfiprintf_r+0x32>
 8007c2c:	230c      	movs	r3, #12
 8007c2e:	603b      	str	r3, [r7, #0]
 8007c30:	f04f 30ff 	mov.w	r0, #4294967295
 8007c34:	b01d      	add	sp, #116	@ 0x74
 8007c36:	e8bd 8ff0 	ldmia.w	sp!, {r4, r5, r6, r7, r8, r9, sl, fp, pc}
 8007c3a:	2340      	movs	r3, #64	@ 0x40
 8007c3c:	616b      	str	r3, [r5, #20]
 8007c3e:	2300      	movs	r3, #0
 8007c40:	9309      	str	r3, [sp, #36]	@ 0x24
 8007c42:	2320      	movs	r3, #32
 8007c44:	f88d 3029 	strb.w	r3, [sp, #41]	@ 0x29
 8007c48:	f8cd 800c 	str.w	r8, [sp, #12]
 8007c4c:	2330      	movs	r3, #48	@ 0x30
 8007c4e:	f8df 819c 	ldr.w	r8, [pc, #412]	@ 8007dec <_svfiprintf_r+0x1e4>
 8007c52:	f88d 302a 	strb.w	r3, [sp, #42]	@ 0x2a
 8007c56:	f04f 0901 	mov.w	r9, #1
 8007c5a:	4623      	mov	r3, r4
 8007c5c:	469a      	mov	sl, r3
 8007c5e:	f813 2b01 	ldrb.w	r2, [r3], #1
 8007c62:	b10a      	cbz	r2, 8007c68 <_svfiprintf_r+0x60>
 8007c64:	2a25      	cmp	r2, #37	@ 0x25
 8007c66:	d1f9      	bne.n	8007c5c <_svfiprintf_r+0x54>
 8007c68:	ebba 0b04 	subs.w	fp, sl, r4
 8007c6c:	d00b      	beq.n	8007c86 <_svfiprintf_r+0x7e>
 8007c6e:	465b      	mov	r3, fp
 8007c70:	4622      	mov	r2, r4
 8007c72:	4629      	mov	r1, r5
 8007c74:	4638      	mov	r0, r7
 8007c76:	f7ff ff6c 	bl	8007b52 <__ssputs_r>
 8007c7a:	3001      	adds	r0, #1
 8007c7c:	f000 80a7 	beq.w	8007dce <_svfiprintf_r+0x1c6>
 8007c80:	9a09      	ldr	r2, [sp, #36]	@ 0x24
 8007c82:	445a      	add	r2, fp
 8007c84:	9209      	str	r2, [sp, #36]	@ 0x24
 8007c86:	f89a 3000 	ldrb.w	r3, [sl]
 8007c8a:	2b00      	cmp	r3, #0
 8007c8c:	f000 809f 	beq.w	8007dce <_svfiprintf_r+0x1c6>
 8007c90:	2300      	movs	r3, #0
 8007c92:	f04f 32ff 	mov.w	r2, #4294967295
 8007c96:	e9cd 2305 	strd	r2, r3, [sp, #20]
 8007c9a:	f10a 0a01 	add.w	sl, sl, #1
 8007c9e:	9304      	str	r3, [sp, #16]
 8007ca0:	9307      	str	r3, [sp, #28]
 8007ca2:	f88d 3053 	strb.w	r3, [sp, #83]	@ 0x53
 8007ca6:	931a      	str	r3, [sp, #104]	@ 0x68
 8007ca8:	4654      	mov	r4, sl
 8007caa:	2205      	movs	r2, #5
 8007cac:	f814 1b01 	ldrb.w	r1, [r4], #1
 8007cb0:	484e      	ldr	r0, [pc, #312]	@ (8007dec <_svfiprintf_r+0x1e4>)
 8007cb2:	f7f8 faad 	bl	8000210 <memchr>
 8007cb6:	9a04      	ldr	r2, [sp, #16]
 8007cb8:	b9d8      	cbnz	r0, 8007cf2 <_svfiprintf_r+0xea>
 8007cba:	06d0      	lsls	r0, r2, #27
 8007cbc:	bf44      	itt	mi
 8007cbe:	2320      	movmi	r3, #32
 8007cc0:	f88d 3053 	strbmi.w	r3, [sp, #83]	@ 0x53
 8007cc4:	0711      	lsls	r1, r2, #28
 8007cc6:	bf44      	itt	mi
 8007cc8:	232b      	movmi	r3, #43	@ 0x2b
 8007cca:	f88d 3053 	strbmi.w	r3, [sp, #83]	@ 0x53
 8007cce:	f89a 3000 	ldrb.w	r3, [sl]
 8007cd2:	2b2a      	cmp	r3, #42	@ 0x2a
 8007cd4:	d015      	beq.n	8007d02 <_svfiprintf_r+0xfa>
 8007cd6:	9a07      	ldr	r2, [sp, #28]
 8007cd8:	4654      	mov	r4, sl
 8007cda:	2000      	movs	r0, #0
 8007cdc:	f04f 0c0a 	mov.w	ip, #10
 8007ce0:	4621      	mov	r1, r4
 8007ce2:	f811 3b01 	ldrb.w	r3, [r1], #1
 8007ce6:	3b30      	subs	r3, #48	@ 0x30
 8007ce8:	2b09      	cmp	r3, #9
 8007cea:	d94b      	bls.n	8007d84 <_svfiprintf_r+0x17c>
 8007cec:	b1b0      	cbz	r0, 8007d1c <_svfiprintf_r+0x114>
 8007cee:	9207      	str	r2, [sp, #28]
 8007cf0:	e014      	b.n	8007d1c <_svfiprintf_r+0x114>
 8007cf2:	eba0 0308 	sub.w	r3, r0, r8
 8007cf6:	fa09 f303 	lsl.w	r3, r9, r3
 8007cfa:	4313      	orrs	r3, r2
 8007cfc:	9304      	str	r3, [sp, #16]
 8007cfe:	46a2      	mov	sl, r4
 8007d00:	e7d2      	b.n	8007ca8 <_svfiprintf_r+0xa0>
 8007d02:	9b03      	ldr	r3, [sp, #12]
 8007d04:	1d19      	adds	r1, r3, #4
 8007d06:	681b      	ldr	r3, [r3, #0]
 8007d08:	9103      	str	r1, [sp, #12]
 8007d0a:	2b00      	cmp	r3, #0
 8007d0c:	bfbb      	ittet	lt
 8007d0e:	425b      	neglt	r3, r3
 8007d10:	f042 0202 	orrlt.w	r2, r2, #2
 8007d14:	9307      	strge	r3, [sp, #28]
 8007d16:	9307      	strlt	r3, [sp, #28]
 8007d18:	bfb8      	it	lt
 8007d1a:	9204      	strlt	r2, [sp, #16]
 8007d1c:	7823      	ldrb	r3, [r4, #0]
 8007d1e:	2b2e      	cmp	r3, #46	@ 0x2e
 8007d20:	d10a      	bne.n	8007d38 <_svfiprintf_r+0x130>
 8007d22:	7863      	ldrb	r3, [r4, #1]
 8007d24:	2b2a      	cmp	r3, #42	@ 0x2a
 8007d26:	d132      	bne.n	8007d8e <_svfiprintf_r+0x186>
 8007d28:	9b03      	ldr	r3, [sp, #12]
 8007d2a:	1d1a      	adds	r2, r3, #4
 8007d2c:	681b      	ldr	r3, [r3, #0]
 8007d2e:	9203      	str	r2, [sp, #12]
 8007d30:	ea43 73e3 	orr.w	r3, r3, r3, asr #31
 8007d34:	3402      	adds	r4, #2
 8007d36:	9305      	str	r3, [sp, #20]
 8007d38:	f8df a0c0 	ldr.w	sl, [pc, #192]	@ 8007dfc <_svfiprintf_r+0x1f4>
 8007d3c:	7821      	ldrb	r1, [r4, #0]
 8007d3e:	2203      	movs	r2, #3
 8007d40:	4650      	mov	r0, sl
 8007d42:	f7f8 fa65 	bl	8000210 <memchr>
 8007d46:	b138      	cbz	r0, 8007d58 <_svfiprintf_r+0x150>
 8007d48:	9b04      	ldr	r3, [sp, #16]
 8007d4a:	eba0 000a 	sub.w	r0, r0, sl
 8007d4e:	2240      	movs	r2, #64	@ 0x40
 8007d50:	4082      	lsls	r2, r0
 8007d52:	4313      	orrs	r3, r2
 8007d54:	3401      	adds	r4, #1
 8007d56:	9304      	str	r3, [sp, #16]
 8007d58:	f814 1b01 	ldrb.w	r1, [r4], #1
 8007d5c:	4824      	ldr	r0, [pc, #144]	@ (8007df0 <_svfiprintf_r+0x1e8>)
 8007d5e:	f88d 1028 	strb.w	r1, [sp, #40]	@ 0x28
 8007d62:	2206      	movs	r2, #6
 8007d64:	f7f8 fa54 	bl	8000210 <memchr>
 8007d68:	2800      	cmp	r0, #0
 8007d6a:	d036      	beq.n	8007dda <_svfiprintf_r+0x1d2>
 8007d6c:	4b21      	ldr	r3, [pc, #132]	@ (8007df4 <_svfiprintf_r+0x1ec>)
 8007d6e:	bb1b      	cbnz	r3, 8007db8 <_svfiprintf_r+0x1b0>
 8007d70:	9b03      	ldr	r3, [sp, #12]
 8007d72:	3307      	adds	r3, #7
 8007d74:	f023 0307 	bic.w	r3, r3, #7
 8007d78:	3308      	adds	r3, #8
 8007d7a:	9303      	str	r3, [sp, #12]
 8007d7c:	9b09      	ldr	r3, [sp, #36]	@ 0x24
 8007d7e:	4433      	add	r3, r6
 8007d80:	9309      	str	r3, [sp, #36]	@ 0x24
 8007d82:	e76a      	b.n	8007c5a <_svfiprintf_r+0x52>
 8007d84:	fb0c 3202 	mla	r2, ip, r2, r3
 8007d88:	460c      	mov	r4, r1
 8007d8a:	2001      	movs	r0, #1
 8007d8c:	e7a8      	b.n	8007ce0 <_svfiprintf_r+0xd8>
 8007d8e:	2300      	movs	r3, #0
 8007d90:	3401      	adds	r4, #1
 8007d92:	9305      	str	r3, [sp, #20]
 8007d94:	4619      	mov	r1, r3
 8007d96:	f04f 0c0a 	mov.w	ip, #10
 8007d9a:	4620      	mov	r0, r4
 8007d9c:	f810 2b01 	ldrb.w	r2, [r0], #1
 8007da0:	3a30      	subs	r2, #48	@ 0x30
 8007da2:	2a09      	cmp	r2, #9
 8007da4:	d903      	bls.n	8007dae <_svfiprintf_r+0x1a6>
 8007da6:	2b00      	cmp	r3, #0
 8007da8:	d0c6      	beq.n	8007d38 <_svfiprintf_r+0x130>
 8007daa:	9105      	str	r1, [sp, #20]
 8007dac:	e7c4      	b.n	8007d38 <_svfiprintf_r+0x130>
 8007dae:	fb0c 2101 	mla	r1, ip, r1, r2
 8007db2:	4604      	mov	r4, r0
 8007db4:	2301      	movs	r3, #1
 8007db6:	e7f0      	b.n	8007d9a <_svfiprintf_r+0x192>
 8007db8:	ab03      	add	r3, sp, #12
 8007dba:	9300      	str	r3, [sp, #0]
 8007dbc:	462a      	mov	r2, r5
 8007dbe:	4b0e      	ldr	r3, [pc, #56]	@ (8007df8 <_svfiprintf_r+0x1f0>)
 8007dc0:	a904      	add	r1, sp, #16
 8007dc2:	4638      	mov	r0, r7
 8007dc4:	f3af 8000 	nop.w
 8007dc8:	1c42      	adds	r2, r0, #1
 8007dca:	4606      	mov	r6, r0
 8007dcc:	d1d6      	bne.n	8007d7c <_svfiprintf_r+0x174>
 8007dce:	89ab      	ldrh	r3, [r5, #12]
 8007dd0:	065b      	lsls	r3, r3, #25
 8007dd2:	f53f af2d 	bmi.w	8007c30 <_svfiprintf_r+0x28>
 8007dd6:	9809      	ldr	r0, [sp, #36]	@ 0x24
 8007dd8:	e72c      	b.n	8007c34 <_svfiprintf_r+0x2c>
 8007dda:	ab03      	add	r3, sp, #12
 8007ddc:	9300      	str	r3, [sp, #0]
 8007dde:	462a      	mov	r2, r5
 8007de0:	4b05      	ldr	r3, [pc, #20]	@ (8007df8 <_svfiprintf_r+0x1f0>)
 8007de2:	a904      	add	r1, sp, #16
 8007de4:	4638      	mov	r0, r7
 8007de6:	f000 f879 	bl	8007edc <_printf_i>
 8007dea:	e7ed      	b.n	8007dc8 <_svfiprintf_r+0x1c0>
 8007dec:	08008d34 	.word	0x08008d34
 8007df0:	08008d3e 	.word	0x08008d3e
 8007df4:	00000000 	.word	0x00000000
 8007df8:	08007b53 	.word	0x08007b53
 8007dfc:	08008d3a 	.word	0x08008d3a

08007e00 <_printf_common>:
 8007e00:	e92d 47f0 	stmdb	sp!, {r4, r5, r6, r7, r8, r9, sl, lr}
 8007e04:	4616      	mov	r6, r2
 8007e06:	4698      	mov	r8, r3
 8007e08:	688a      	ldr	r2, [r1, #8]
 8007e0a:	690b      	ldr	r3, [r1, #16]
 8007e0c:	f8dd 9020 	ldr.w	r9, [sp, #32]
 8007e10:	4293      	cmp	r3, r2
 8007e12:	bfb8      	it	lt
 8007e14:	4613      	movlt	r3, r2
 8007e16:	6033      	str	r3, [r6, #0]
 8007e18:	f891 2043 	ldrb.w	r2, [r1, #67]	@ 0x43
 8007e1c:	4607      	mov	r7, r0
 8007e1e:	460c      	mov	r4, r1
 8007e20:	b10a      	cbz	r2, 8007e26 <_printf_common+0x26>
 8007e22:	3301      	adds	r3, #1
 8007e24:	6033      	str	r3, [r6, #0]
 8007e26:	6823      	ldr	r3, [r4, #0]
 8007e28:	0699      	lsls	r1, r3, #26
 8007e2a:	bf42      	ittt	mi
 8007e2c:	6833      	ldrmi	r3, [r6, #0]
 8007e2e:	3302      	addmi	r3, #2
 8007e30:	6033      	strmi	r3, [r6, #0]
 8007e32:	6825      	ldr	r5, [r4, #0]
 8007e34:	f015 0506 	ands.w	r5, r5, #6
 8007e38:	d106      	bne.n	8007e48 <_printf_common+0x48>
 8007e3a:	f104 0a19 	add.w	sl, r4, #25
 8007e3e:	68e3      	ldr	r3, [r4, #12]
 8007e40:	6832      	ldr	r2, [r6, #0]
 8007e42:	1a9b      	subs	r3, r3, r2
 8007e44:	42ab      	cmp	r3, r5
 8007e46:	dc26      	bgt.n	8007e96 <_printf_common+0x96>
 8007e48:	f894 3043 	ldrb.w	r3, [r4, #67]	@ 0x43
 8007e4c:	6822      	ldr	r2, [r4, #0]
 8007e4e:	3b00      	subs	r3, #0
 8007e50:	bf18      	it	ne
 8007e52:	2301      	movne	r3, #1
 8007e54:	0692      	lsls	r2, r2, #26
 8007e56:	d42b      	bmi.n	8007eb0 <_printf_common+0xb0>
 8007e58:	f104 0243 	add.w	r2, r4, #67	@ 0x43
 8007e5c:	4641      	mov	r1, r8
 8007e5e:	4638      	mov	r0, r7
 8007e60:	47c8      	blx	r9
 8007e62:	3001      	adds	r0, #1
 8007e64:	d01e      	beq.n	8007ea4 <_printf_common+0xa4>
 8007e66:	6823      	ldr	r3, [r4, #0]
 8007e68:	6922      	ldr	r2, [r4, #16]
 8007e6a:	f003 0306 	and.w	r3, r3, #6
 8007e6e:	2b04      	cmp	r3, #4
 8007e70:	bf02      	ittt	eq
 8007e72:	68e5      	ldreq	r5, [r4, #12]
 8007e74:	6833      	ldreq	r3, [r6, #0]
 8007e76:	1aed      	subeq	r5, r5, r3
 8007e78:	68a3      	ldr	r3, [r4, #8]
 8007e7a:	bf0c      	ite	eq
 8007e7c:	ea25 75e5 	biceq.w	r5, r5, r5, asr #31
 8007e80:	2500      	movne	r5, #0
 8007e82:	4293      	cmp	r3, r2
 8007e84:	bfc4      	itt	gt
 8007e86:	1a9b      	subgt	r3, r3, r2
 8007e88:	18ed      	addgt	r5, r5, r3
 8007e8a:	2600      	movs	r6, #0
 8007e8c:	341a      	adds	r4, #26
 8007e8e:	42b5      	cmp	r5, r6
 8007e90:	d11a      	bne.n	8007ec8 <_printf_common+0xc8>
 8007e92:	2000      	movs	r0, #0
 8007e94:	e008      	b.n	8007ea8 <_printf_common+0xa8>
 8007e96:	2301      	movs	r3, #1
 8007e98:	4652      	mov	r2, sl
 8007e9a:	4641      	mov	r1, r8
 8007e9c:	4638      	mov	r0, r7
 8007e9e:	47c8      	blx	r9
 8007ea0:	3001      	adds	r0, #1
 8007ea2:	d103      	bne.n	8007eac <_printf_common+0xac>
 8007ea4:	f04f 30ff 	mov.w	r0, #4294967295
 8007ea8:	e8bd 87f0 	ldmia.w	sp!, {r4, r5, r6, r7, r8, r9, sl, pc}
 8007eac:	3501      	adds	r5, #1
 8007eae:	e7c6      	b.n	8007e3e <_printf_common+0x3e>
 8007eb0:	18e1      	adds	r1, r4, r3
 8007eb2:	1c5a      	adds	r2, r3, #1
 8007eb4:	2030      	movs	r0, #48	@ 0x30
 8007eb6:	f881 0043 	strb.w	r0, [r1, #67]	@ 0x43
 8007eba:	4422      	add	r2, r4
 8007ebc:	f894 1045 	ldrb.w	r1, [r4, #69]	@ 0x45
 8007ec0:	f882 1043 	strb.w	r1, [r2, #67]	@ 0x43
 8007ec4:	3302      	adds	r3, #2
 8007ec6:	e7c7      	b.n	8007e58 <_printf_common+0x58>
 8007ec8:	2301      	movs	r3, #1
 8007eca:	4622      	mov	r2, r4
 8007ecc:	4641      	mov	r1, r8
 8007ece:	4638      	mov	r0, r7
 8007ed0:	47c8      	blx	r9
 8007ed2:	3001      	adds	r0, #1
 8007ed4:	d0e6      	beq.n	8007ea4 <_printf_common+0xa4>
 8007ed6:	3601      	adds	r6, #1
 8007ed8:	e7d9      	b.n	8007e8e <_printf_common+0x8e>
	...

08007edc <_printf_i>:
 8007edc:	e92d 47ff 	stmdb	sp!, {r0, r1, r2, r3, r4, r5, r6, r7, r8, r9, sl, lr}
 8007ee0:	7e0f      	ldrb	r7, [r1, #24]
 8007ee2:	9e0c      	ldr	r6, [sp, #48]	@ 0x30
 8007ee4:	2f78      	cmp	r7, #120	@ 0x78
 8007ee6:	4691      	mov	r9, r2
 8007ee8:	4680      	mov	r8, r0
 8007eea:	460c      	mov	r4, r1
 8007eec:	469a      	mov	sl, r3
 8007eee:	f101 0243 	add.w	r2, r1, #67	@ 0x43
 8007ef2:	d807      	bhi.n	8007f04 <_printf_i+0x28>
 8007ef4:	2f62      	cmp	r7, #98	@ 0x62
 8007ef6:	d80a      	bhi.n	8007f0e <_printf_i+0x32>
 8007ef8:	2f00      	cmp	r7, #0
 8007efa:	f000 80d1 	beq.w	80080a0 <_printf_i+0x1c4>
 8007efe:	2f58      	cmp	r7, #88	@ 0x58
 8007f00:	f000 80b8 	beq.w	8008074 <_printf_i+0x198>
 8007f04:	f104 0642 	add.w	r6, r4, #66	@ 0x42
 8007f08:	f884 7042 	strb.w	r7, [r4, #66]	@ 0x42
 8007f0c:	e03a      	b.n	8007f84 <_printf_i+0xa8>
 8007f0e:	f1a7 0363 	sub.w	r3, r7, #99	@ 0x63
 8007f12:	2b15      	cmp	r3, #21
 8007f14:	d8f6      	bhi.n	8007f04 <_printf_i+0x28>
 8007f16:	a101      	add	r1, pc, #4	@ (adr r1, 8007f1c <_printf_i+0x40>)
 8007f18:	f851 f023 	ldr.w	pc, [r1, r3, lsl #2]
 8007f1c:	08007f75 	.word	0x08007f75
 8007f20:	08007f89 	.word	0x08007f89
 8007f24:	08007f05 	.word	0x08007f05
 8007f28:	08007f05 	.word	0x08007f05
 8007f2c:	08007f05 	.word	0x08007f05
 8007f30:	08007f05 	.word	0x08007f05
 8007f34:	08007f89 	.word	0x08007f89
 8007f38:	08007f05 	.word	0x08007f05
 8007f3c:	08007f05 	.word	0x08007f05
 8007f40:	08007f05 	.word	0x08007f05
 8007f44:	08007f05 	.word	0x08007f05
 8007f48:	08008087 	.word	0x08008087
 8007f4c:	08007fb3 	.word	0x08007fb3
 8007f50:	08008041 	.word	0x08008041
 8007f54:	08007f05 	.word	0x08007f05
 8007f58:	08007f05 	.word	0x08007f05
 8007f5c:	080080a9 	.word	0x080080a9
 8007f60:	08007f05 	.word	0x08007f05
 8007f64:	08007fb3 	.word	0x08007fb3
 8007f68:	08007f05 	.word	0x08007f05
 8007f6c:	08007f05 	.word	0x08007f05
 8007f70:	08008049 	.word	0x08008049
 8007f74:	6833      	ldr	r3, [r6, #0]
 8007f76:	1d1a      	adds	r2, r3, #4
 8007f78:	681b      	ldr	r3, [r3, #0]
 8007f7a:	6032      	str	r2, [r6, #0]
 8007f7c:	f104 0642 	add.w	r6, r4, #66	@ 0x42
 8007f80:	f884 3042 	strb.w	r3, [r4, #66]	@ 0x42
 8007f84:	2301      	movs	r3, #1
 8007f86:	e09c      	b.n	80080c2 <_printf_i+0x1e6>
 8007f88:	6833      	ldr	r3, [r6, #0]
 8007f8a:	6820      	ldr	r0, [r4, #0]
 8007f8c:	1d19      	adds	r1, r3, #4
 8007f8e:	6031      	str	r1, [r6, #0]
 8007f90:	0606      	lsls	r6, r0, #24
 8007f92:	d501      	bpl.n	8007f98 <_printf_i+0xbc>
 8007f94:	681d      	ldr	r5, [r3, #0]
 8007f96:	e003      	b.n	8007fa0 <_printf_i+0xc4>
 8007f98:	0645      	lsls	r5, r0, #25
 8007f9a:	d5fb      	bpl.n	8007f94 <_printf_i+0xb8>
 8007f9c:	f9b3 5000 	ldrsh.w	r5, [r3]
 8007fa0:	2d00      	cmp	r5, #0
 8007fa2:	da03      	bge.n	8007fac <_printf_i+0xd0>
 8007fa4:	232d      	movs	r3, #45	@ 0x2d
 8007fa6:	426d      	negs	r5, r5
 8007fa8:	f884 3043 	strb.w	r3, [r4, #67]	@ 0x43
 8007fac:	4858      	ldr	r0, [pc, #352]	@ (8008110 <_printf_i+0x234>)
 8007fae:	230a      	movs	r3, #10
 8007fb0:	e011      	b.n	8007fd6 <_printf_i+0xfa>
 8007fb2:	6821      	ldr	r1, [r4, #0]
 8007fb4:	6833      	ldr	r3, [r6, #0]
 8007fb6:	0608      	lsls	r0, r1, #24
 8007fb8:	f853 5b04 	ldr.w	r5, [r3], #4
 8007fbc:	d402      	bmi.n	8007fc4 <_printf_i+0xe8>
 8007fbe:	0649      	lsls	r1, r1, #25
 8007fc0:	bf48      	it	mi
 8007fc2:	b2ad      	uxthmi	r5, r5
 8007fc4:	2f6f      	cmp	r7, #111	@ 0x6f
 8007fc6:	4852      	ldr	r0, [pc, #328]	@ (8008110 <_printf_i+0x234>)
 8007fc8:	6033      	str	r3, [r6, #0]
 8007fca:	bf14      	ite	ne
 8007fcc:	230a      	movne	r3, #10
 8007fce:	2308      	moveq	r3, #8
 8007fd0:	2100      	movs	r1, #0
 8007fd2:	f884 1043 	strb.w	r1, [r4, #67]	@ 0x43
 8007fd6:	6866      	ldr	r6, [r4, #4]
 8007fd8:	60a6      	str	r6, [r4, #8]
 8007fda:	2e00      	cmp	r6, #0
 8007fdc:	db05      	blt.n	8007fea <_printf_i+0x10e>
 8007fde:	6821      	ldr	r1, [r4, #0]
 8007fe0:	432e      	orrs	r6, r5
 8007fe2:	f021 0104 	bic.w	r1, r1, #4
 8007fe6:	6021      	str	r1, [r4, #0]
 8007fe8:	d04b      	beq.n	8008082 <_printf_i+0x1a6>
 8007fea:	4616      	mov	r6, r2
 8007fec:	fbb5 f1f3 	udiv	r1, r5, r3
 8007ff0:	fb03 5711 	mls	r7, r3, r1, r5
 8007ff4:	5dc7      	ldrb	r7, [r0, r7]
 8007ff6:	f806 7d01 	strb.w	r7, [r6, #-1]!
 8007ffa:	462f      	mov	r7, r5
 8007ffc:	42bb      	cmp	r3, r7
 8007ffe:	460d      	mov	r5, r1
 8008000:	d9f4      	bls.n	8007fec <_printf_i+0x110>
 8008002:	2b08      	cmp	r3, #8
 8008004:	d10b      	bne.n	800801e <_printf_i+0x142>
 8008006:	6823      	ldr	r3, [r4, #0]
 8008008:	07df      	lsls	r7, r3, #31
 800800a:	d508      	bpl.n	800801e <_printf_i+0x142>
 800800c:	6923      	ldr	r3, [r4, #16]
 800800e:	6861      	ldr	r1, [r4, #4]
 8008010:	4299      	cmp	r1, r3
 8008012:	bfde      	ittt	le
 8008014:	2330      	movle	r3, #48	@ 0x30
 8008016:	f806 3c01 	strble.w	r3, [r6, #-1]
 800801a:	f106 36ff 	addle.w	r6, r6, #4294967295
 800801e:	1b92      	subs	r2, r2, r6
 8008020:	6122      	str	r2, [r4, #16]
 8008022:	f8cd a000 	str.w	sl, [sp]
 8008026:	464b      	mov	r3, r9
 8008028:	aa03      	add	r2, sp, #12
 800802a:	4621      	mov	r1, r4
 800802c:	4640      	mov	r0, r8
 800802e:	f7ff fee7 	bl	8007e00 <_printf_common>
 8008032:	3001      	adds	r0, #1
 8008034:	d14a      	bne.n	80080cc <_printf_i+0x1f0>
 8008036:	f04f 30ff 	mov.w	r0, #4294967295
 800803a:	b004      	add	sp, #16
 800803c:	e8bd 87f0 	ldmia.w	sp!, {r4, r5, r6, r7, r8, r9, sl, pc}
 8008040:	6823      	ldr	r3, [r4, #0]
 8008042:	f043 0320 	orr.w	r3, r3, #32
 8008046:	6023      	str	r3, [r4, #0]
 8008048:	4832      	ldr	r0, [pc, #200]	@ (8008114 <_printf_i+0x238>)
 800804a:	2778      	movs	r7, #120	@ 0x78
 800804c:	f884 7045 	strb.w	r7, [r4, #69]	@ 0x45
 8008050:	6823      	ldr	r3, [r4, #0]
 8008052:	6831      	ldr	r1, [r6, #0]
 8008054:	061f      	lsls	r7, r3, #24
 8008056:	f851 5b04 	ldr.w	r5, [r1], #4
 800805a:	d402      	bmi.n	8008062 <_printf_i+0x186>
 800805c:	065f      	lsls	r7, r3, #25
 800805e:	bf48      	it	mi
 8008060:	b2ad      	uxthmi	r5, r5
 8008062:	6031      	str	r1, [r6, #0]
 8008064:	07d9      	lsls	r1, r3, #31
 8008066:	bf44      	itt	mi
 8008068:	f043 0320 	orrmi.w	r3, r3, #32
 800806c:	6023      	strmi	r3, [r4, #0]
 800806e:	b11d      	cbz	r5, 8008078 <_printf_i+0x19c>
 8008070:	2310      	movs	r3, #16
 8008072:	e7ad      	b.n	8007fd0 <_printf_i+0xf4>
 8008074:	4826      	ldr	r0, [pc, #152]	@ (8008110 <_printf_i+0x234>)
 8008076:	e7e9      	b.n	800804c <_printf_i+0x170>
 8008078:	6823      	ldr	r3, [r4, #0]
 800807a:	f023 0320 	bic.w	r3, r3, #32
 800807e:	6023      	str	r3, [r4, #0]
 8008080:	e7f6      	b.n	8008070 <_printf_i+0x194>
 8008082:	4616      	mov	r6, r2
 8008084:	e7bd      	b.n	8008002 <_printf_i+0x126>
 8008086:	6833      	ldr	r3, [r6, #0]
 8008088:	6825      	ldr	r5, [r4, #0]
 800808a:	6961      	ldr	r1, [r4, #20]
 800808c:	1d18      	adds	r0, r3, #4
 800808e:	6030      	str	r0, [r6, #0]
 8008090:	062e      	lsls	r6, r5, #24
 8008092:	681b      	ldr	r3, [r3, #0]
 8008094:	d501      	bpl.n	800809a <_printf_i+0x1be>
 8008096:	6019      	str	r1, [r3, #0]
 8008098:	e002      	b.n	80080a0 <_printf_i+0x1c4>
 800809a:	0668      	lsls	r0, r5, #25
 800809c:	d5fb      	bpl.n	8008096 <_printf_i+0x1ba>
 800809e:	8019      	strh	r1, [r3, #0]
 80080a0:	2300      	movs	r3, #0
 80080a2:	6123      	str	r3, [r4, #16]
 80080a4:	4616      	mov	r6, r2
 80080a6:	e7bc      	b.n	8008022 <_printf_i+0x146>
 80080a8:	6833      	ldr	r3, [r6, #0]
 80080aa:	1d1a      	adds	r2, r3, #4
 80080ac:	6032      	str	r2, [r6, #0]
 80080ae:	681e      	ldr	r6, [r3, #0]
 80080b0:	6862      	ldr	r2, [r4, #4]
 80080b2:	2100      	movs	r1, #0
 80080b4:	4630      	mov	r0, r6
 80080b6:	f7f8 f8ab 	bl	8000210 <memchr>
 80080ba:	b108      	cbz	r0, 80080c0 <_printf_i+0x1e4>
 80080bc:	1b80      	subs	r0, r0, r6
 80080be:	6060      	str	r0, [r4, #4]
 80080c0:	6863      	ldr	r3, [r4, #4]
 80080c2:	6123      	str	r3, [r4, #16]
 80080c4:	2300      	movs	r3, #0
 80080c6:	f884 3043 	strb.w	r3, [r4, #67]	@ 0x43
 80080ca:	e7aa      	b.n	8008022 <_printf_i+0x146>
 80080cc:	6923      	ldr	r3, [r4, #16]
 80080ce:	4632      	mov	r2, r6
 80080d0:	4649      	mov	r1, r9
 80080d2:	4640      	mov	r0, r8
 80080d4:	47d0      	blx	sl
 80080d6:	3001      	adds	r0, #1
 80080d8:	d0ad      	beq.n	8008036 <_printf_i+0x15a>
 80080da:	6823      	ldr	r3, [r4, #0]
 80080dc:	079b      	lsls	r3, r3, #30
 80080de:	d413      	bmi.n	8008108 <_printf_i+0x22c>
 80080e0:	68e0      	ldr	r0, [r4, #12]
 80080e2:	9b03      	ldr	r3, [sp, #12]
 80080e4:	4298      	cmp	r0, r3
 80080e6:	bfb8      	it	lt
 80080e8:	4618      	movlt	r0, r3
 80080ea:	e7a6      	b.n	800803a <_printf_i+0x15e>
 80080ec:	2301      	movs	r3, #1
 80080ee:	4632      	mov	r2, r6
 80080f0:	4649      	mov	r1, r9
 80080f2:	4640      	mov	r0, r8
 80080f4:	47d0      	blx	sl
 80080f6:	3001      	adds	r0, #1
 80080f8:	d09d      	beq.n	8008036 <_printf_i+0x15a>
 80080fa:	3501      	adds	r5, #1
 80080fc:	68e3      	ldr	r3, [r4, #12]
 80080fe:	9903      	ldr	r1, [sp, #12]
 8008100:	1a5b      	subs	r3, r3, r1
 8008102:	42ab      	cmp	r3, r5
 8008104:	dcf2      	bgt.n	80080ec <_printf_i+0x210>
 8008106:	e7eb      	b.n	80080e0 <_printf_i+0x204>
 8008108:	2500      	movs	r5, #0
 800810a:	f104 0619 	add.w	r6, r4, #25
 800810e:	e7f5      	b.n	80080fc <_printf_i+0x220>
 8008110:	08008d45 	.word	0x08008d45
 8008114:	08008d56 	.word	0x08008d56

08008118 <__sflush_r>:
 8008118:	f9b1 200c 	ldrsh.w	r2, [r1, #12]
 800811c:	e92d 41f0 	stmdb	sp!, {r4, r5, r6, r7, r8, lr}
 8008120:	0716      	lsls	r6, r2, #28
 8008122:	4605      	mov	r5, r0
 8008124:	460c      	mov	r4, r1
 8008126:	d454      	bmi.n	80081d2 <__sflush_r+0xba>
 8008128:	684b      	ldr	r3, [r1, #4]
 800812a:	2b00      	cmp	r3, #0
 800812c:	dc02      	bgt.n	8008134 <__sflush_r+0x1c>
 800812e:	6c0b      	ldr	r3, [r1, #64]	@ 0x40
 8008130:	2b00      	cmp	r3, #0
 8008132:	dd48      	ble.n	80081c6 <__sflush_r+0xae>
 8008134:	6ae6      	ldr	r6, [r4, #44]	@ 0x2c
 8008136:	2e00      	cmp	r6, #0
 8008138:	d045      	beq.n	80081c6 <__sflush_r+0xae>
 800813a:	2300      	movs	r3, #0
 800813c:	f412 5280 	ands.w	r2, r2, #4096	@ 0x1000
 8008140:	682f      	ldr	r7, [r5, #0]
 8008142:	6a21      	ldr	r1, [r4, #32]
 8008144:	602b      	str	r3, [r5, #0]
 8008146:	d030      	beq.n	80081aa <__sflush_r+0x92>
 8008148:	6d62      	ldr	r2, [r4, #84]	@ 0x54
 800814a:	89a3      	ldrh	r3, [r4, #12]
 800814c:	0759      	lsls	r1, r3, #29
 800814e:	d505      	bpl.n	800815c <__sflush_r+0x44>
 8008150:	6863      	ldr	r3, [r4, #4]
 8008152:	1ad2      	subs	r2, r2, r3
 8008154:	6b63      	ldr	r3, [r4, #52]	@ 0x34
 8008156:	b10b      	cbz	r3, 800815c <__sflush_r+0x44>
 8008158:	6c23      	ldr	r3, [r4, #64]	@ 0x40
 800815a:	1ad2      	subs	r2, r2, r3
 800815c:	2300      	movs	r3, #0
 800815e:	6ae6      	ldr	r6, [r4, #44]	@ 0x2c
 8008160:	6a21      	ldr	r1, [r4, #32]
 8008162:	4628      	mov	r0, r5
 8008164:	47b0      	blx	r6
 8008166:	1c43      	adds	r3, r0, #1
 8008168:	89a3      	ldrh	r3, [r4, #12]
 800816a:	d106      	bne.n	800817a <__sflush_r+0x62>
 800816c:	6829      	ldr	r1, [r5, #0]
 800816e:	291d      	cmp	r1, #29
 8008170:	d82b      	bhi.n	80081ca <__sflush_r+0xb2>
 8008172:	4a2a      	ldr	r2, [pc, #168]	@ (800821c <__sflush_r+0x104>)
 8008174:	40ca      	lsrs	r2, r1
 8008176:	07d6      	lsls	r6, r2, #31
 8008178:	d527      	bpl.n	80081ca <__sflush_r+0xb2>
 800817a:	2200      	movs	r2, #0
 800817c:	6062      	str	r2, [r4, #4]
 800817e:	04d9      	lsls	r1, r3, #19
 8008180:	6922      	ldr	r2, [r4, #16]
 8008182:	6022      	str	r2, [r4, #0]
 8008184:	d504      	bpl.n	8008190 <__sflush_r+0x78>
 8008186:	1c42      	adds	r2, r0, #1
 8008188:	d101      	bne.n	800818e <__sflush_r+0x76>
 800818a:	682b      	ldr	r3, [r5, #0]
 800818c:	b903      	cbnz	r3, 8008190 <__sflush_r+0x78>
 800818e:	6560      	str	r0, [r4, #84]	@ 0x54
 8008190:	6b61      	ldr	r1, [r4, #52]	@ 0x34
 8008192:	602f      	str	r7, [r5, #0]
 8008194:	b1b9      	cbz	r1, 80081c6 <__sflush_r+0xae>
 8008196:	f104 0344 	add.w	r3, r4, #68	@ 0x44
 800819a:	4299      	cmp	r1, r3
 800819c:	d002      	beq.n	80081a4 <__sflush_r+0x8c>
 800819e:	4628      	mov	r0, r5
 80081a0:	f7fe fbdc 	bl	800695c <_free_r>
 80081a4:	2300      	movs	r3, #0
 80081a6:	6363      	str	r3, [r4, #52]	@ 0x34
 80081a8:	e00d      	b.n	80081c6 <__sflush_r+0xae>
 80081aa:	2301      	movs	r3, #1
 80081ac:	4628      	mov	r0, r5
 80081ae:	47b0      	blx	r6
 80081b0:	4602      	mov	r2, r0
 80081b2:	1c50      	adds	r0, r2, #1
 80081b4:	d1c9      	bne.n	800814a <__sflush_r+0x32>
 80081b6:	682b      	ldr	r3, [r5, #0]
 80081b8:	2b00      	cmp	r3, #0
 80081ba:	d0c6      	beq.n	800814a <__sflush_r+0x32>
 80081bc:	2b1d      	cmp	r3, #29
 80081be:	d001      	beq.n	80081c4 <__sflush_r+0xac>
 80081c0:	2b16      	cmp	r3, #22
 80081c2:	d11e      	bne.n	8008202 <__sflush_r+0xea>
 80081c4:	602f      	str	r7, [r5, #0]
 80081c6:	2000      	movs	r0, #0
 80081c8:	e022      	b.n	8008210 <__sflush_r+0xf8>
 80081ca:	f043 0340 	orr.w	r3, r3, #64	@ 0x40
 80081ce:	b21b      	sxth	r3, r3
 80081d0:	e01b      	b.n	800820a <__sflush_r+0xf2>
 80081d2:	690f      	ldr	r7, [r1, #16]
 80081d4:	2f00      	cmp	r7, #0
 80081d6:	d0f6      	beq.n	80081c6 <__sflush_r+0xae>
 80081d8:	0793      	lsls	r3, r2, #30
 80081da:	680e      	ldr	r6, [r1, #0]
 80081dc:	bf08      	it	eq
 80081de:	694b      	ldreq	r3, [r1, #20]
 80081e0:	600f      	str	r7, [r1, #0]
 80081e2:	bf18      	it	ne
 80081e4:	2300      	movne	r3, #0
 80081e6:	eba6 0807 	sub.w	r8, r6, r7
 80081ea:	608b      	str	r3, [r1, #8]
 80081ec:	f1b8 0f00 	cmp.w	r8, #0
 80081f0:	dde9      	ble.n	80081c6 <__sflush_r+0xae>
 80081f2:	6a21      	ldr	r1, [r4, #32]
 80081f4:	6aa6      	ldr	r6, [r4, #40]	@ 0x28
 80081f6:	4643      	mov	r3, r8
 80081f8:	463a      	mov	r2, r7
 80081fa:	4628      	mov	r0, r5
 80081fc:	47b0      	blx	r6
 80081fe:	2800      	cmp	r0, #0
 8008200:	dc08      	bgt.n	8008214 <__sflush_r+0xfc>
 8008202:	f9b4 300c 	ldrsh.w	r3, [r4, #12]
 8008206:	f043 0340 	orr.w	r3, r3, #64	@ 0x40
 800820a:	81a3      	strh	r3, [r4, #12]
 800820c:	f04f 30ff 	mov.w	r0, #4294967295
 8008210:	e8bd 81f0 	ldmia.w	sp!, {r4, r5, r6, r7, r8, pc}
 8008214:	4407      	add	r7, r0
 8008216:	eba8 0800 	sub.w	r8, r8, r0
 800821a:	e7e7      	b.n	80081ec <__sflush_r+0xd4>
 800821c:	20400001 	.word	0x20400001

08008220 <_fflush_r>:
 8008220:	b538      	push	{r3, r4, r5, lr}
 8008222:	690b      	ldr	r3, [r1, #16]
 8008224:	4605      	mov	r5, r0
 8008226:	460c      	mov	r4, r1
 8008228:	b913      	cbnz	r3, 8008230 <_fflush_r+0x10>
 800822a:	2500      	movs	r5, #0
 800822c:	4628      	mov	r0, r5
 800822e:	bd38      	pop	{r3, r4, r5, pc}
 8008230:	b118      	cbz	r0, 800823a <_fflush_r+0x1a>
 8008232:	6a03      	ldr	r3, [r0, #32]
 8008234:	b90b      	cbnz	r3, 800823a <_fflush_r+0x1a>
 8008236:	f7fe f9e3 	bl	8006600 <__sinit>
 800823a:	f9b4 300c 	ldrsh.w	r3, [r4, #12]
 800823e:	2b00      	cmp	r3, #0
 8008240:	d0f3      	beq.n	800822a <_fflush_r+0xa>
 8008242:	6e62      	ldr	r2, [r4, #100]	@ 0x64
 8008244:	07d0      	lsls	r0, r2, #31
 8008246:	d404      	bmi.n	8008252 <_fflush_r+0x32>
 8008248:	0599      	lsls	r1, r3, #22
 800824a:	d402      	bmi.n	8008252 <_fflush_r+0x32>
 800824c:	6da0      	ldr	r0, [r4, #88]	@ 0x58
 800824e:	f7fe fb5e 	bl	800690e <__retarget_lock_acquire_recursive>
 8008252:	4628      	mov	r0, r5
 8008254:	4621      	mov	r1, r4
 8008256:	f7ff ff5f 	bl	8008118 <__sflush_r>
 800825a:	6e63      	ldr	r3, [r4, #100]	@ 0x64
 800825c:	07da      	lsls	r2, r3, #31
 800825e:	4605      	mov	r5, r0
 8008260:	d4e4      	bmi.n	800822c <_fflush_r+0xc>
 8008262:	89a3      	ldrh	r3, [r4, #12]
 8008264:	059b      	lsls	r3, r3, #22
 8008266:	d4e1      	bmi.n	800822c <_fflush_r+0xc>
 8008268:	6da0      	ldr	r0, [r4, #88]	@ 0x58
 800826a:	f7fe fb51 	bl	8006910 <__retarget_lock_release_recursive>
 800826e:	e7dd      	b.n	800822c <_fflush_r+0xc>

08008270 <_sbrk_r>:
 8008270:	b538      	push	{r3, r4, r5, lr}
 8008272:	4d06      	ldr	r5, [pc, #24]	@ (800828c <_sbrk_r+0x1c>)
 8008274:	2300      	movs	r3, #0
 8008276:	4604      	mov	r4, r0
 8008278:	4608      	mov	r0, r1
 800827a:	602b      	str	r3, [r5, #0]
 800827c:	f7f9 f85e 	bl	800133c <_sbrk>
 8008280:	1c43      	adds	r3, r0, #1
 8008282:	d102      	bne.n	800828a <_sbrk_r+0x1a>
 8008284:	682b      	ldr	r3, [r5, #0]
 8008286:	b103      	cbz	r3, 800828a <_sbrk_r+0x1a>
 8008288:	6023      	str	r3, [r4, #0]
 800828a:	bd38      	pop	{r3, r4, r5, pc}
 800828c:	20002094 	.word	0x20002094

08008290 <__assert_func>:
 8008290:	b51f      	push	{r0, r1, r2, r3, r4, lr}
 8008292:	4614      	mov	r4, r2
 8008294:	461a      	mov	r2, r3
 8008296:	4b09      	ldr	r3, [pc, #36]	@ (80082bc <__assert_func+0x2c>)
 8008298:	681b      	ldr	r3, [r3, #0]
 800829a:	4605      	mov	r5, r0
 800829c:	68d8      	ldr	r0, [r3, #12]
 800829e:	b14c      	cbz	r4, 80082b4 <__assert_func+0x24>
 80082a0:	4b07      	ldr	r3, [pc, #28]	@ (80082c0 <__assert_func+0x30>)
 80082a2:	9100      	str	r1, [sp, #0]
 80082a4:	e9cd 3401 	strd	r3, r4, [sp, #4]
 80082a8:	4906      	ldr	r1, [pc, #24]	@ (80082c4 <__assert_func+0x34>)
 80082aa:	462b      	mov	r3, r5
 80082ac:	f000 f858 	bl	8008360 <fiprintf>
 80082b0:	f000 f868 	bl	8008384 <abort>
 80082b4:	4b04      	ldr	r3, [pc, #16]	@ (80082c8 <__assert_func+0x38>)
 80082b6:	461c      	mov	r4, r3
 80082b8:	e7f3      	b.n	80082a2 <__assert_func+0x12>
 80082ba:	bf00      	nop
 80082bc:	20000290 	.word	0x20000290
 80082c0:	08008d67 	.word	0x08008d67
 80082c4:	08008d74 	.word	0x08008d74
 80082c8:	08008a19 	.word	0x08008a19

080082cc <_calloc_r>:
 80082cc:	b570      	push	{r4, r5, r6, lr}
 80082ce:	fba1 5402 	umull	r5, r4, r1, r2
 80082d2:	b934      	cbnz	r4, 80082e2 <_calloc_r+0x16>
 80082d4:	4629      	mov	r1, r5
 80082d6:	f7fe fee7 	bl	80070a8 <_malloc_r>
 80082da:	4606      	mov	r6, r0
 80082dc:	b928      	cbnz	r0, 80082ea <_calloc_r+0x1e>
 80082de:	4630      	mov	r0, r6
 80082e0:	bd70      	pop	{r4, r5, r6, pc}
 80082e2:	220c      	movs	r2, #12
 80082e4:	6002      	str	r2, [r0, #0]
 80082e6:	2600      	movs	r6, #0
 80082e8:	e7f9      	b.n	80082de <_calloc_r+0x12>
 80082ea:	462a      	mov	r2, r5
 80082ec:	4621      	mov	r1, r4
 80082ee:	f7fe fa57 	bl	80067a0 <memset>
 80082f2:	e7f4      	b.n	80082de <_calloc_r+0x12>

080082f4 <malloc>:
 80082f4:	4b02      	ldr	r3, [pc, #8]	@ (8008300 <malloc+0xc>)
 80082f6:	4601      	mov	r1, r0
 80082f8:	6818      	ldr	r0, [r3, #0]
 80082fa:	f7fe bed5 	b.w	80070a8 <_malloc_r>
 80082fe:	bf00      	nop
 8008300:	20000290 	.word	0x20000290

08008304 <_realloc_r>:
 8008304:	e92d 41f0 	stmdb	sp!, {r4, r5, r6, r7, r8, lr}
 8008308:	4607      	mov	r7, r0
 800830a:	4614      	mov	r4, r2
 800830c:	460d      	mov	r5, r1
 800830e:	b921      	cbnz	r1, 800831a <_realloc_r+0x16>
 8008310:	e8bd 41f0 	ldmia.w	sp!, {r4, r5, r6, r7, r8, lr}
 8008314:	4611      	mov	r1, r2
 8008316:	f7fe bec7 	b.w	80070a8 <_malloc_r>
 800831a:	b92a      	cbnz	r2, 8008328 <_realloc_r+0x24>
 800831c:	f7fe fb1e 	bl	800695c <_free_r>
 8008320:	4625      	mov	r5, r4
 8008322:	4628      	mov	r0, r5
 8008324:	e8bd 81f0 	ldmia.w	sp!, {r4, r5, r6, r7, r8, pc}
 8008328:	f000 f833 	bl	8008392 <_malloc_usable_size_r>
 800832c:	4284      	cmp	r4, r0
 800832e:	4606      	mov	r6, r0
 8008330:	d802      	bhi.n	8008338 <_realloc_r+0x34>
 8008332:	ebb4 0f50 	cmp.w	r4, r0, lsr #1
 8008336:	d8f4      	bhi.n	8008322 <_realloc_r+0x1e>
 8008338:	4621      	mov	r1, r4
 800833a:	4638      	mov	r0, r7
 800833c:	f7fe feb4 	bl	80070a8 <_malloc_r>
 8008340:	4680      	mov	r8, r0
 8008342:	b908      	cbnz	r0, 8008348 <_realloc_r+0x44>
 8008344:	4645      	mov	r5, r8
 8008346:	e7ec      	b.n	8008322 <_realloc_r+0x1e>
 8008348:	42b4      	cmp	r4, r6
 800834a:	4622      	mov	r2, r4
 800834c:	4629      	mov	r1, r5
 800834e:	bf28      	it	cs
 8008350:	4632      	movcs	r2, r6
 8008352:	f7fe fae6 	bl	8006922 <memcpy>
 8008356:	4629      	mov	r1, r5
 8008358:	4638      	mov	r0, r7
 800835a:	f7fe faff 	bl	800695c <_free_r>
 800835e:	e7f1      	b.n	8008344 <_realloc_r+0x40>

08008360 <fiprintf>:
 8008360:	b40e      	push	{r1, r2, r3}
 8008362:	b503      	push	{r0, r1, lr}
 8008364:	4601      	mov	r1, r0
 8008366:	ab03      	add	r3, sp, #12
 8008368:	4805      	ldr	r0, [pc, #20]	@ (8008380 <fiprintf+0x20>)
 800836a:	f853 2b04 	ldr.w	r2, [r3], #4
 800836e:	6800      	ldr	r0, [r0, #0]
 8008370:	9301      	str	r3, [sp, #4]
 8008372:	f000 f83f 	bl	80083f4 <_vfiprintf_r>
 8008376:	b002      	add	sp, #8
 8008378:	f85d eb04 	ldr.w	lr, [sp], #4
 800837c:	b003      	add	sp, #12
 800837e:	4770      	bx	lr
 8008380:	20000290 	.word	0x20000290

08008384 <abort>:
 8008384:	b508      	push	{r3, lr}
 8008386:	2006      	movs	r0, #6
 8008388:	f000 fa08 	bl	800879c <raise>
 800838c:	2001      	movs	r0, #1
 800838e:	f7f8 ffa7 	bl	80012e0 <_exit>

08008392 <_malloc_usable_size_r>:
 8008392:	f851 3c04 	ldr.w	r3, [r1, #-4]
 8008396:	1f18      	subs	r0, r3, #4
 8008398:	2b00      	cmp	r3, #0
 800839a:	bfbc      	itt	lt
 800839c:	580b      	ldrlt	r3, [r1, r0]
 800839e:	18c0      	addlt	r0, r0, r3
 80083a0:	4770      	bx	lr

080083a2 <__sfputc_r>:
 80083a2:	6893      	ldr	r3, [r2, #8]
 80083a4:	3b01      	subs	r3, #1
 80083a6:	2b00      	cmp	r3, #0
 80083a8:	b410      	push	{r4}
 80083aa:	6093      	str	r3, [r2, #8]
 80083ac:	da08      	bge.n	80083c0 <__sfputc_r+0x1e>
 80083ae:	6994      	ldr	r4, [r2, #24]
 80083b0:	42a3      	cmp	r3, r4
 80083b2:	db01      	blt.n	80083b8 <__sfputc_r+0x16>
 80083b4:	290a      	cmp	r1, #10
 80083b6:	d103      	bne.n	80083c0 <__sfputc_r+0x1e>
 80083b8:	f85d 4b04 	ldr.w	r4, [sp], #4
 80083bc:	f000 b932 	b.w	8008624 <__swbuf_r>
 80083c0:	6813      	ldr	r3, [r2, #0]
 80083c2:	1c58      	adds	r0, r3, #1
 80083c4:	6010      	str	r0, [r2, #0]
 80083c6:	7019      	strb	r1, [r3, #0]
 80083c8:	4608      	mov	r0, r1
 80083ca:	f85d 4b04 	ldr.w	r4, [sp], #4
 80083ce:	4770      	bx	lr

080083d0 <__sfputs_r>:
 80083d0:	b5f8      	push	{r3, r4, r5, r6, r7, lr}
 80083d2:	4606      	mov	r6, r0
 80083d4:	460f      	mov	r7, r1
 80083d6:	4614      	mov	r4, r2
 80083d8:	18d5      	adds	r5, r2, r3
 80083da:	42ac      	cmp	r4, r5
 80083dc:	d101      	bne.n	80083e2 <__sfputs_r+0x12>
 80083de:	2000      	movs	r0, #0
 80083e0:	e007      	b.n	80083f2 <__sfputs_r+0x22>
 80083e2:	f814 1b01 	ldrb.w	r1, [r4], #1
 80083e6:	463a      	mov	r2, r7
 80083e8:	4630      	mov	r0, r6
 80083ea:	f7ff ffda 	bl	80083a2 <__sfputc_r>
 80083ee:	1c43      	adds	r3, r0, #1
 80083f0:	d1f3      	bne.n	80083da <__sfputs_r+0xa>
 80083f2:	bdf8      	pop	{r3, r4, r5, r6, r7, pc}

080083f4 <_vfiprintf_r>:
 80083f4:	e92d 4ff0 	stmdb	sp!, {r4, r5, r6, r7, r8, r9, sl, fp, lr}
 80083f8:	460d      	mov	r5, r1
 80083fa:	b09d      	sub	sp, #116	@ 0x74
 80083fc:	4614      	mov	r4, r2
 80083fe:	4698      	mov	r8, r3
 8008400:	4606      	mov	r6, r0
 8008402:	b118      	cbz	r0, 800840c <_vfiprintf_r+0x18>
 8008404:	6a03      	ldr	r3, [r0, #32]
 8008406:	b90b      	cbnz	r3, 800840c <_vfiprintf_r+0x18>
 8008408:	f7fe f8fa 	bl	8006600 <__sinit>
 800840c:	6e6b      	ldr	r3, [r5, #100]	@ 0x64
 800840e:	07d9      	lsls	r1, r3, #31
 8008410:	d405      	bmi.n	800841e <_vfiprintf_r+0x2a>
 8008412:	89ab      	ldrh	r3, [r5, #12]
 8008414:	059a      	lsls	r2, r3, #22
 8008416:	d402      	bmi.n	800841e <_vfiprintf_r+0x2a>
 8008418:	6da8      	ldr	r0, [r5, #88]	@ 0x58
 800841a:	f7fe fa78 	bl	800690e <__retarget_lock_acquire_recursive>
 800841e:	89ab      	ldrh	r3, [r5, #12]
 8008420:	071b      	lsls	r3, r3, #28
 8008422:	d501      	bpl.n	8008428 <_vfiprintf_r+0x34>
 8008424:	692b      	ldr	r3, [r5, #16]
 8008426:	b99b      	cbnz	r3, 8008450 <_vfiprintf_r+0x5c>
 8008428:	4629      	mov	r1, r5
 800842a:	4630      	mov	r0, r6
 800842c:	f000 f938 	bl	80086a0 <__swsetup_r>
 8008430:	b170      	cbz	r0, 8008450 <_vfiprintf_r+0x5c>
 8008432:	6e6b      	ldr	r3, [r5, #100]	@ 0x64
 8008434:	07dc      	lsls	r4, r3, #31
 8008436:	d504      	bpl.n	8008442 <_vfiprintf_r+0x4e>
 8008438:	f04f 30ff 	mov.w	r0, #4294967295
 800843c:	b01d      	add	sp, #116	@ 0x74
 800843e:	e8bd 8ff0 	ldmia.w	sp!, {r4, r5, r6, r7, r8, r9, sl, fp, pc}
 8008442:	89ab      	ldrh	r3, [r5, #12]
 8008444:	0598      	lsls	r0, r3, #22
 8008446:	d4f7      	bmi.n	8008438 <_vfiprintf_r+0x44>
 8008448:	6da8      	ldr	r0, [r5, #88]	@ 0x58
 800844a:	f7fe fa61 	bl	8006910 <__retarget_lock_release_recursive>
 800844e:	e7f3      	b.n	8008438 <_vfiprintf_r+0x44>
 8008450:	2300      	movs	r3, #0
 8008452:	9309      	str	r3, [sp, #36]	@ 0x24
 8008454:	2320      	movs	r3, #32
 8008456:	f88d 3029 	strb.w	r3, [sp, #41]	@ 0x29
 800845a:	f8cd 800c 	str.w	r8, [sp, #12]
 800845e:	2330      	movs	r3, #48	@ 0x30
 8008460:	f8df 81ac 	ldr.w	r8, [pc, #428]	@ 8008610 <_vfiprintf_r+0x21c>
 8008464:	f88d 302a 	strb.w	r3, [sp, #42]	@ 0x2a
 8008468:	f04f 0901 	mov.w	r9, #1
 800846c:	4623      	mov	r3, r4
 800846e:	469a      	mov	sl, r3
 8008470:	f813 2b01 	ldrb.w	r2, [r3], #1
 8008474:	b10a      	cbz	r2, 800847a <_vfiprintf_r+0x86>
 8008476:	2a25      	cmp	r2, #37	@ 0x25
 8008478:	d1f9      	bne.n	800846e <_vfiprintf_r+0x7a>
 800847a:	ebba 0b04 	subs.w	fp, sl, r4
 800847e:	d00b      	beq.n	8008498 <_vfiprintf_r+0xa4>
 8008480:	465b      	mov	r3, fp
 8008482:	4622      	mov	r2, r4
 8008484:	4629      	mov	r1, r5
 8008486:	4630      	mov	r0, r6
 8008488:	f7ff ffa2 	bl	80083d0 <__sfputs_r>
 800848c:	3001      	adds	r0, #1
 800848e:	f000 80a7 	beq.w	80085e0 <_vfiprintf_r+0x1ec>
 8008492:	9a09      	ldr	r2, [sp, #36]	@ 0x24
 8008494:	445a      	add	r2, fp
 8008496:	9209      	str	r2, [sp, #36]	@ 0x24
 8008498:	f89a 3000 	ldrb.w	r3, [sl]
 800849c:	2b00      	cmp	r3, #0
 800849e:	f000 809f 	beq.w	80085e0 <_vfiprintf_r+0x1ec>
 80084a2:	2300      	movs	r3, #0
 80084a4:	f04f 32ff 	mov.w	r2, #4294967295
 80084a8:	e9cd 2305 	strd	r2, r3, [sp, #20]
 80084ac:	f10a 0a01 	add.w	sl, sl, #1
 80084b0:	9304      	str	r3, [sp, #16]
 80084b2:	9307      	str	r3, [sp, #28]
 80084b4:	f88d 3053 	strb.w	r3, [sp, #83]	@ 0x53
 80084b8:	931a      	str	r3, [sp, #104]	@ 0x68
 80084ba:	4654      	mov	r4, sl
 80084bc:	2205      	movs	r2, #5
 80084be:	f814 1b01 	ldrb.w	r1, [r4], #1
 80084c2:	4853      	ldr	r0, [pc, #332]	@ (8008610 <_vfiprintf_r+0x21c>)
 80084c4:	f7f7 fea4 	bl	8000210 <memchr>
 80084c8:	9a04      	ldr	r2, [sp, #16]
 80084ca:	b9d8      	cbnz	r0, 8008504 <_vfiprintf_r+0x110>
 80084cc:	06d1      	lsls	r1, r2, #27
 80084ce:	bf44      	itt	mi
 80084d0:	2320      	movmi	r3, #32
 80084d2:	f88d 3053 	strbmi.w	r3, [sp, #83]	@ 0x53
 80084d6:	0713      	lsls	r3, r2, #28
 80084d8:	bf44      	itt	mi
 80084da:	232b      	movmi	r3, #43	@ 0x2b
 80084dc:	f88d 3053 	strbmi.w	r3, [sp, #83]	@ 0x53
 80084e0:	f89a 3000 	ldrb.w	r3, [sl]
 80084e4:	2b2a      	cmp	r3, #42	@ 0x2a
 80084e6:	d015      	beq.n	8008514 <_vfiprintf_r+0x120>
 80084e8:	9a07      	ldr	r2, [sp, #28]
 80084ea:	4654      	mov	r4, sl
 80084ec:	2000      	movs	r0, #0
 80084ee:	f04f 0c0a 	mov.w	ip, #10
 80084f2:	4621      	mov	r1, r4
 80084f4:	f811 3b01 	ldrb.w	r3, [r1], #1
 80084f8:	3b30      	subs	r3, #48	@ 0x30
 80084fa:	2b09      	cmp	r3, #9
 80084fc:	d94b      	bls.n	8008596 <_vfiprintf_r+0x1a2>
 80084fe:	b1b0      	cbz	r0, 800852e <_vfiprintf_r+0x13a>
 8008500:	9207      	str	r2, [sp, #28]
 8008502:	e014      	b.n	800852e <_vfiprintf_r+0x13a>
 8008504:	eba0 0308 	sub.w	r3, r0, r8
 8008508:	fa09 f303 	lsl.w	r3, r9, r3
 800850c:	4313      	orrs	r3, r2
 800850e:	9304      	str	r3, [sp, #16]
 8008510:	46a2      	mov	sl, r4
 8008512:	e7d2      	b.n	80084ba <_vfiprintf_r+0xc6>
 8008514:	9b03      	ldr	r3, [sp, #12]
 8008516:	1d19      	adds	r1, r3, #4
 8008518:	681b      	ldr	r3, [r3, #0]
 800851a:	9103      	str	r1, [sp, #12]
 800851c:	2b00      	cmp	r3, #0
 800851e:	bfbb      	ittet	lt
 8008520:	425b      	neglt	r3, r3
 8008522:	f042 0202 	orrlt.w	r2, r2, #2
 8008526:	9307      	strge	r3, [sp, #28]
 8008528:	9307      	strlt	r3, [sp, #28]
 800852a:	bfb8      	it	lt
 800852c:	9204      	strlt	r2, [sp, #16]
 800852e:	7823      	ldrb	r3, [r4, #0]
 8008530:	2b2e      	cmp	r3, #46	@ 0x2e
 8008532:	d10a      	bne.n	800854a <_vfiprintf_r+0x156>
 8008534:	7863      	ldrb	r3, [r4, #1]
 8008536:	2b2a      	cmp	r3, #42	@ 0x2a
 8008538:	d132      	bne.n	80085a0 <_vfiprintf_r+0x1ac>
 800853a:	9b03      	ldr	r3, [sp, #12]
 800853c:	1d1a      	adds	r2, r3, #4
 800853e:	681b      	ldr	r3, [r3, #0]
 8008540:	9203      	str	r2, [sp, #12]
 8008542:	ea43 73e3 	orr.w	r3, r3, r3, asr #31
 8008546:	3402      	adds	r4, #2
 8008548:	9305      	str	r3, [sp, #20]
 800854a:	f8df a0d4 	ldr.w	sl, [pc, #212]	@ 8008620 <_vfiprintf_r+0x22c>
 800854e:	7821      	ldrb	r1, [r4, #0]
 8008550:	2203      	movs	r2, #3
 8008552:	4650      	mov	r0, sl
 8008554:	f7f7 fe5c 	bl	8000210 <memchr>
 8008558:	b138      	cbz	r0, 800856a <_vfiprintf_r+0x176>
 800855a:	9b04      	ldr	r3, [sp, #16]
 800855c:	eba0 000a 	sub.w	r0, r0, sl
 8008560:	2240      	movs	r2, #64	@ 0x40
 8008562:	4082      	lsls	r2, r0
 8008564:	4313      	orrs	r3, r2
 8008566:	3401      	adds	r4, #1
 8008568:	9304      	str	r3, [sp, #16]
 800856a:	f814 1b01 	ldrb.w	r1, [r4], #1
 800856e:	4829      	ldr	r0, [pc, #164]	@ (8008614 <_vfiprintf_r+0x220>)
 8008570:	f88d 1028 	strb.w	r1, [sp, #40]	@ 0x28
 8008574:	2206      	movs	r2, #6
 8008576:	f7f7 fe4b 	bl	8000210 <memchr>
 800857a:	2800      	cmp	r0, #0
 800857c:	d03f      	beq.n	80085fe <_vfiprintf_r+0x20a>
 800857e:	4b26      	ldr	r3, [pc, #152]	@ (8008618 <_vfiprintf_r+0x224>)
 8008580:	bb1b      	cbnz	r3, 80085ca <_vfiprintf_r+0x1d6>
 8008582:	9b03      	ldr	r3, [sp, #12]
 8008584:	3307      	adds	r3, #7
 8008586:	f023 0307 	bic.w	r3, r3, #7
 800858a:	3308      	adds	r3, #8
 800858c:	9303      	str	r3, [sp, #12]
 800858e:	9b09      	ldr	r3, [sp, #36]	@ 0x24
 8008590:	443b      	add	r3, r7
 8008592:	9309      	str	r3, [sp, #36]	@ 0x24
 8008594:	e76a      	b.n	800846c <_vfiprintf_r+0x78>
 8008596:	fb0c 3202 	mla	r2, ip, r2, r3
 800859a:	460c      	mov	r4, r1
 800859c:	2001      	movs	r0, #1
 800859e:	e7a8      	b.n	80084f2 <_vfiprintf_r+0xfe>
 80085a0:	2300      	movs	r3, #0
 80085a2:	3401      	adds	r4, #1
 80085a4:	9305      	str	r3, [sp, #20]
 80085a6:	4619      	mov	r1, r3
 80085a8:	f04f 0c0a 	mov.w	ip, #10
 80085ac:	4620      	mov	r0, r4
 80085ae:	f810 2b01 	ldrb.w	r2, [r0], #1
 80085b2:	3a30      	subs	r2, #48	@ 0x30
 80085b4:	2a09      	cmp	r2, #9
 80085b6:	d903      	bls.n	80085c0 <_vfiprintf_r+0x1cc>
 80085b8:	2b00      	cmp	r3, #0
 80085ba:	d0c6      	beq.n	800854a <_vfiprintf_r+0x156>
 80085bc:	9105      	str	r1, [sp, #20]
 80085be:	e7c4      	b.n	800854a <_vfiprintf_r+0x156>
 80085c0:	fb0c 2101 	mla	r1, ip, r1, r2
 80085c4:	4604      	mov	r4, r0
 80085c6:	2301      	movs	r3, #1
 80085c8:	e7f0      	b.n	80085ac <_vfiprintf_r+0x1b8>
 80085ca:	ab03      	add	r3, sp, #12
 80085cc:	9300      	str	r3, [sp, #0]
 80085ce:	462a      	mov	r2, r5
 80085d0:	4b12      	ldr	r3, [pc, #72]	@ (800861c <_vfiprintf_r+0x228>)
 80085d2:	a904      	add	r1, sp, #16
 80085d4:	4630      	mov	r0, r6
 80085d6:	f3af 8000 	nop.w
 80085da:	4607      	mov	r7, r0
 80085dc:	1c78      	adds	r0, r7, #1
 80085de:	d1d6      	bne.n	800858e <_vfiprintf_r+0x19a>
 80085e0:	6e6b      	ldr	r3, [r5, #100]	@ 0x64
 80085e2:	07d9      	lsls	r1, r3, #31
 80085e4:	d405      	bmi.n	80085f2 <_vfiprintf_r+0x1fe>
 80085e6:	89ab      	ldrh	r3, [r5, #12]
 80085e8:	059a      	lsls	r2, r3, #22
 80085ea:	d402      	bmi.n	80085f2 <_vfiprintf_r+0x1fe>
 80085ec:	6da8      	ldr	r0, [r5, #88]	@ 0x58
 80085ee:	f7fe f98f 	bl	8006910 <__retarget_lock_release_recursive>
 80085f2:	89ab      	ldrh	r3, [r5, #12]
 80085f4:	065b      	lsls	r3, r3, #25
 80085f6:	f53f af1f 	bmi.w	8008438 <_vfiprintf_r+0x44>
 80085fa:	9809      	ldr	r0, [sp, #36]	@ 0x24
 80085fc:	e71e      	b.n	800843c <_vfiprintf_r+0x48>
 80085fe:	ab03      	add	r3, sp, #12
 8008600:	9300      	str	r3, [sp, #0]
 8008602:	462a      	mov	r2, r5
 8008604:	4b05      	ldr	r3, [pc, #20]	@ (800861c <_vfiprintf_r+0x228>)
 8008606:	a904      	add	r1, sp, #16
 8008608:	4630      	mov	r0, r6
 800860a:	f7ff fc67 	bl	8007edc <_printf_i>
 800860e:	e7e4      	b.n	80085da <_vfiprintf_r+0x1e6>
 8008610:	08008d34 	.word	0x08008d34
 8008614:	08008d3e 	.word	0x08008d3e
 8008618:	00000000 	.word	0x00000000
 800861c:	080083d1 	.word	0x080083d1
 8008620:	08008d3a 	.word	0x08008d3a

08008624 <__swbuf_r>:
 8008624:	b5f8      	push	{r3, r4, r5, r6, r7, lr}
 8008626:	460e      	mov	r6, r1
 8008628:	4614      	mov	r4, r2
 800862a:	4605      	mov	r5, r0
 800862c:	b118      	cbz	r0, 8008636 <__swbuf_r+0x12>
 800862e:	6a03      	ldr	r3, [r0, #32]
 8008630:	b90b      	cbnz	r3, 8008636 <__swbuf_r+0x12>
 8008632:	f7fd ffe5 	bl	8006600 <__sinit>
 8008636:	69a3      	ldr	r3, [r4, #24]
 8008638:	60a3      	str	r3, [r4, #8]
 800863a:	89a3      	ldrh	r3, [r4, #12]
 800863c:	071a      	lsls	r2, r3, #28
 800863e:	d501      	bpl.n	8008644 <__swbuf_r+0x20>
 8008640:	6923      	ldr	r3, [r4, #16]
 8008642:	b943      	cbnz	r3, 8008656 <__swbuf_r+0x32>
 8008644:	4621      	mov	r1, r4
 8008646:	4628      	mov	r0, r5
 8008648:	f000 f82a 	bl	80086a0 <__swsetup_r>
 800864c:	b118      	cbz	r0, 8008656 <__swbuf_r+0x32>
 800864e:	f04f 37ff 	mov.w	r7, #4294967295
 8008652:	4638      	mov	r0, r7
 8008654:	bdf8      	pop	{r3, r4, r5, r6, r7, pc}
 8008656:	6823      	ldr	r3, [r4, #0]
 8008658:	6922      	ldr	r2, [r4, #16]
 800865a:	1a98      	subs	r0, r3, r2
 800865c:	6963      	ldr	r3, [r4, #20]
 800865e:	b2f6      	uxtb	r6, r6
 8008660:	4283      	cmp	r3, r0
 8008662:	4637      	mov	r7, r6
 8008664:	dc05      	bgt.n	8008672 <__swbuf_r+0x4e>
 8008666:	4621      	mov	r1, r4
 8008668:	4628      	mov	r0, r5
 800866a:	f7ff fdd9 	bl	8008220 <_fflush_r>
 800866e:	2800      	cmp	r0, #0
 8008670:	d1ed      	bne.n	800864e <__swbuf_r+0x2a>
 8008672:	68a3      	ldr	r3, [r4, #8]
 8008674:	3b01      	subs	r3, #1
 8008676:	60a3      	str	r3, [r4, #8]
 8008678:	6823      	ldr	r3, [r4, #0]
 800867a:	1c5a      	adds	r2, r3, #1
 800867c:	6022      	str	r2, [r4, #0]
 800867e:	701e      	strb	r6, [r3, #0]
 8008680:	6962      	ldr	r2, [r4, #20]
 8008682:	1c43      	adds	r3, r0, #1
 8008684:	429a      	cmp	r2, r3
 8008686:	d004      	beq.n	8008692 <__swbuf_r+0x6e>
 8008688:	89a3      	ldrh	r3, [r4, #12]
 800868a:	07db      	lsls	r3, r3, #31
 800868c:	d5e1      	bpl.n	8008652 <__swbuf_r+0x2e>
 800868e:	2e0a      	cmp	r6, #10
 8008690:	d1df      	bne.n	8008652 <__swbuf_r+0x2e>
 8008692:	4621      	mov	r1, r4
 8008694:	4628      	mov	r0, r5
 8008696:	f7ff fdc3 	bl	8008220 <_fflush_r>
 800869a:	2800      	cmp	r0, #0
 800869c:	d0d9      	beq.n	8008652 <__swbuf_r+0x2e>
 800869e:	e7d6      	b.n	800864e <__swbuf_r+0x2a>

080086a0 <__swsetup_r>:
 80086a0:	b538      	push	{r3, r4, r5, lr}
 80086a2:	4b29      	ldr	r3, [pc, #164]	@ (8008748 <__swsetup_r+0xa8>)
 80086a4:	4605      	mov	r5, r0
 80086a6:	6818      	ldr	r0, [r3, #0]
 80086a8:	460c      	mov	r4, r1
 80086aa:	b118      	cbz	r0, 80086b4 <__swsetup_r+0x14>
 80086ac:	6a03      	ldr	r3, [r0, #32]
 80086ae:	b90b      	cbnz	r3, 80086b4 <__swsetup_r+0x14>
 80086b0:	f7fd ffa6 	bl	8006600 <__sinit>
 80086b4:	f9b4 300c 	ldrsh.w	r3, [r4, #12]
 80086b8:	0719      	lsls	r1, r3, #28
 80086ba:	d422      	bmi.n	8008702 <__swsetup_r+0x62>
 80086bc:	06da      	lsls	r2, r3, #27
 80086be:	d407      	bmi.n	80086d0 <__swsetup_r+0x30>
 80086c0:	2209      	movs	r2, #9
 80086c2:	602a      	str	r2, [r5, #0]
 80086c4:	f043 0340 	orr.w	r3, r3, #64	@ 0x40
 80086c8:	81a3      	strh	r3, [r4, #12]
 80086ca:	f04f 30ff 	mov.w	r0, #4294967295
 80086ce:	e033      	b.n	8008738 <__swsetup_r+0x98>
 80086d0:	0758      	lsls	r0, r3, #29
 80086d2:	d512      	bpl.n	80086fa <__swsetup_r+0x5a>
 80086d4:	6b61      	ldr	r1, [r4, #52]	@ 0x34
 80086d6:	b141      	cbz	r1, 80086ea <__swsetup_r+0x4a>
 80086d8:	f104 0344 	add.w	r3, r4, #68	@ 0x44
 80086dc:	4299      	cmp	r1, r3
 80086de:	d002      	beq.n	80086e6 <__swsetup_r+0x46>
 80086e0:	4628      	mov	r0, r5
 80086e2:	f7fe f93b 	bl	800695c <_free_r>
 80086e6:	2300      	movs	r3, #0
 80086e8:	6363      	str	r3, [r4, #52]	@ 0x34
 80086ea:	89a3      	ldrh	r3, [r4, #12]
 80086ec:	f023 0324 	bic.w	r3, r3, #36	@ 0x24
 80086f0:	81a3      	strh	r3, [r4, #12]
 80086f2:	2300      	movs	r3, #0
 80086f4:	6063      	str	r3, [r4, #4]
 80086f6:	6923      	ldr	r3, [r4, #16]
 80086f8:	6023      	str	r3, [r4, #0]
 80086fa:	89a3      	ldrh	r3, [r4, #12]
 80086fc:	f043 0308 	orr.w	r3, r3, #8
 8008700:	81a3      	strh	r3, [r4, #12]
 8008702:	6923      	ldr	r3, [r4, #16]
 8008704:	b94b      	cbnz	r3, 800871a <__swsetup_r+0x7a>
 8008706:	89a3      	ldrh	r3, [r4, #12]
 8008708:	f403 7320 	and.w	r3, r3, #640	@ 0x280
 800870c:	f5b3 7f00 	cmp.w	r3, #512	@ 0x200
 8008710:	d003      	beq.n	800871a <__swsetup_r+0x7a>
 8008712:	4621      	mov	r1, r4
 8008714:	4628      	mov	r0, r5
 8008716:	f000 f883 	bl	8008820 <__smakebuf_r>
 800871a:	f9b4 300c 	ldrsh.w	r3, [r4, #12]
 800871e:	f013 0201 	ands.w	r2, r3, #1
 8008722:	d00a      	beq.n	800873a <__swsetup_r+0x9a>
 8008724:	2200      	movs	r2, #0
 8008726:	60a2      	str	r2, [r4, #8]
 8008728:	6962      	ldr	r2, [r4, #20]
 800872a:	4252      	negs	r2, r2
 800872c:	61a2      	str	r2, [r4, #24]
 800872e:	6922      	ldr	r2, [r4, #16]
 8008730:	b942      	cbnz	r2, 8008744 <__swsetup_r+0xa4>
 8008732:	f013 0080 	ands.w	r0, r3, #128	@ 0x80
 8008736:	d1c5      	bne.n	80086c4 <__swsetup_r+0x24>
 8008738:	bd38      	pop	{r3, r4, r5, pc}
 800873a:	0799      	lsls	r1, r3, #30
 800873c:	bf58      	it	pl
 800873e:	6962      	ldrpl	r2, [r4, #20]
 8008740:	60a2      	str	r2, [r4, #8]
 8008742:	e7f4      	b.n	800872e <__swsetup_r+0x8e>
 8008744:	2000      	movs	r0, #0
 8008746:	e7f7      	b.n	8008738 <__swsetup_r+0x98>
 8008748:	20000290 	.word	0x20000290

0800874c <_raise_r>:
 800874c:	291f      	cmp	r1, #31
 800874e:	b538      	push	{r3, r4, r5, lr}
 8008750:	4605      	mov	r5, r0
 8008752:	460c      	mov	r4, r1
 8008754:	d904      	bls.n	8008760 <_raise_r+0x14>
 8008756:	2316      	movs	r3, #22
 8008758:	6003      	str	r3, [r0, #0]
 800875a:	f04f 30ff 	mov.w	r0, #4294967295
 800875e:	bd38      	pop	{r3, r4, r5, pc}
 8008760:	6bc2      	ldr	r2, [r0, #60]	@ 0x3c
 8008762:	b112      	cbz	r2, 800876a <_raise_r+0x1e>
 8008764:	f852 3021 	ldr.w	r3, [r2, r1, lsl #2]
 8008768:	b94b      	cbnz	r3, 800877e <_raise_r+0x32>
 800876a:	4628      	mov	r0, r5
 800876c:	f000 f830 	bl	80087d0 <_getpid_r>
 8008770:	4622      	mov	r2, r4
 8008772:	4601      	mov	r1, r0
 8008774:	4628      	mov	r0, r5
 8008776:	e8bd 4038 	ldmia.w	sp!, {r3, r4, r5, lr}
 800877a:	f000 b817 	b.w	80087ac <_kill_r>
 800877e:	2b01      	cmp	r3, #1
 8008780:	d00a      	beq.n	8008798 <_raise_r+0x4c>
 8008782:	1c59      	adds	r1, r3, #1
 8008784:	d103      	bne.n	800878e <_raise_r+0x42>
 8008786:	2316      	movs	r3, #22
 8008788:	6003      	str	r3, [r0, #0]
 800878a:	2001      	movs	r0, #1
 800878c:	e7e7      	b.n	800875e <_raise_r+0x12>
 800878e:	2100      	movs	r1, #0
 8008790:	f842 1024 	str.w	r1, [r2, r4, lsl #2]
 8008794:	4620      	mov	r0, r4
 8008796:	4798      	blx	r3
 8008798:	2000      	movs	r0, #0
 800879a:	e7e0      	b.n	800875e <_raise_r+0x12>

0800879c <raise>:
 800879c:	4b02      	ldr	r3, [pc, #8]	@ (80087a8 <raise+0xc>)
 800879e:	4601      	mov	r1, r0
 80087a0:	6818      	ldr	r0, [r3, #0]
 80087a2:	f7ff bfd3 	b.w	800874c <_raise_r>
 80087a6:	bf00      	nop
 80087a8:	20000290 	.word	0x20000290

080087ac <_kill_r>:
 80087ac:	b538      	push	{r3, r4, r5, lr}
 80087ae:	4d07      	ldr	r5, [pc, #28]	@ (80087cc <_kill_r+0x20>)
 80087b0:	2300      	movs	r3, #0
 80087b2:	4604      	mov	r4, r0
 80087b4:	4608      	mov	r0, r1
 80087b6:	4611      	mov	r1, r2
 80087b8:	602b      	str	r3, [r5, #0]
 80087ba:	f7f8 fd89 	bl	80012d0 <_kill>
 80087be:	1c43      	adds	r3, r0, #1
 80087c0:	d102      	bne.n	80087c8 <_kill_r+0x1c>
 80087c2:	682b      	ldr	r3, [r5, #0]
 80087c4:	b103      	cbz	r3, 80087c8 <_kill_r+0x1c>
 80087c6:	6023      	str	r3, [r4, #0]
 80087c8:	bd38      	pop	{r3, r4, r5, pc}
 80087ca:	bf00      	nop
 80087cc:	20002094 	.word	0x20002094

080087d0 <_getpid_r>:
 80087d0:	f7f8 bd7c 	b.w	80012cc <_getpid>

080087d4 <__swhatbuf_r>:
 80087d4:	b570      	push	{r4, r5, r6, lr}
 80087d6:	460c      	mov	r4, r1
 80087d8:	f9b1 100e 	ldrsh.w	r1, [r1, #14]
 80087dc:	2900      	cmp	r1, #0
 80087de:	b096      	sub	sp, #88	@ 0x58
 80087e0:	4615      	mov	r5, r2
 80087e2:	461e      	mov	r6, r3
 80087e4:	da0d      	bge.n	8008802 <__swhatbuf_r+0x2e>
 80087e6:	89a3      	ldrh	r3, [r4, #12]
 80087e8:	f013 0f80 	tst.w	r3, #128	@ 0x80
 80087ec:	f04f 0100 	mov.w	r1, #0
 80087f0:	bf14      	ite	ne
 80087f2:	2340      	movne	r3, #64	@ 0x40
 80087f4:	f44f 6380 	moveq.w	r3, #1024	@ 0x400
 80087f8:	2000      	movs	r0, #0
 80087fa:	6031      	str	r1, [r6, #0]
 80087fc:	602b      	str	r3, [r5, #0]
 80087fe:	b016      	add	sp, #88	@ 0x58
 8008800:	bd70      	pop	{r4, r5, r6, pc}
 8008802:	466a      	mov	r2, sp
 8008804:	f000 f848 	bl	8008898 <_fstat_r>
 8008808:	2800      	cmp	r0, #0
 800880a:	dbec      	blt.n	80087e6 <__swhatbuf_r+0x12>
 800880c:	9901      	ldr	r1, [sp, #4]
 800880e:	f401 4170 	and.w	r1, r1, #61440	@ 0xf000
 8008812:	f5a1 5300 	sub.w	r3, r1, #8192	@ 0x2000
 8008816:	4259      	negs	r1, r3
 8008818:	4159      	adcs	r1, r3
 800881a:	f44f 6380 	mov.w	r3, #1024	@ 0x400
 800881e:	e7eb      	b.n	80087f8 <__swhatbuf_r+0x24>

08008820 <__smakebuf_r>:
 8008820:	898b      	ldrh	r3, [r1, #12]
 8008822:	b5f7      	push	{r0, r1, r2, r4, r5, r6, r7, lr}
 8008824:	079d      	lsls	r5, r3, #30
 8008826:	4606      	mov	r6, r0
 8008828:	460c      	mov	r4, r1
 800882a:	d507      	bpl.n	800883c <__smakebuf_r+0x1c>
 800882c:	f104 0347 	add.w	r3, r4, #71	@ 0x47
 8008830:	6023      	str	r3, [r4, #0]
 8008832:	6123      	str	r3, [r4, #16]
 8008834:	2301      	movs	r3, #1
 8008836:	6163      	str	r3, [r4, #20]
 8008838:	b003      	add	sp, #12
 800883a:	bdf0      	pop	{r4, r5, r6, r7, pc}
 800883c:	ab01      	add	r3, sp, #4
 800883e:	466a      	mov	r2, sp
 8008840:	f7ff ffc8 	bl	80087d4 <__swhatbuf_r>
 8008844:	9f00      	ldr	r7, [sp, #0]
 8008846:	4605      	mov	r5, r0
 8008848:	4639      	mov	r1, r7
 800884a:	4630      	mov	r0, r6
 800884c:	f7fe fc2c 	bl	80070a8 <_malloc_r>
 8008850:	b948      	cbnz	r0, 8008866 <__smakebuf_r+0x46>
 8008852:	f9b4 300c 	ldrsh.w	r3, [r4, #12]
 8008856:	059a      	lsls	r2, r3, #22
 8008858:	d4ee      	bmi.n	8008838 <__smakebuf_r+0x18>
 800885a:	f023 0303 	bic.w	r3, r3, #3
 800885e:	f043 0302 	orr.w	r3, r3, #2
 8008862:	81a3      	strh	r3, [r4, #12]
 8008864:	e7e2      	b.n	800882c <__smakebuf_r+0xc>
 8008866:	89a3      	ldrh	r3, [r4, #12]
 8008868:	6020      	str	r0, [r4, #0]
 800886a:	f043 0380 	orr.w	r3, r3, #128	@ 0x80
 800886e:	81a3      	strh	r3, [r4, #12]
 8008870:	9b01      	ldr	r3, [sp, #4]
 8008872:	e9c4 0704 	strd	r0, r7, [r4, #16]
 8008876:	b15b      	cbz	r3, 8008890 <__smakebuf_r+0x70>
 8008878:	f9b4 100e 	ldrsh.w	r1, [r4, #14]
 800887c:	4630      	mov	r0, r6
 800887e:	f000 f81d 	bl	80088bc <_isatty_r>
 8008882:	b128      	cbz	r0, 8008890 <__smakebuf_r+0x70>
 8008884:	89a3      	ldrh	r3, [r4, #12]
 8008886:	f023 0303 	bic.w	r3, r3, #3
 800888a:	f043 0301 	orr.w	r3, r3, #1
 800888e:	81a3      	strh	r3, [r4, #12]
 8008890:	89a3      	ldrh	r3, [r4, #12]
 8008892:	431d      	orrs	r5, r3
 8008894:	81a5      	strh	r5, [r4, #12]
 8008896:	e7cf      	b.n	8008838 <__smakebuf_r+0x18>

08008898 <_fstat_r>:
 8008898:	b538      	push	{r3, r4, r5, lr}
 800889a:	4d07      	ldr	r5, [pc, #28]	@ (80088b8 <_fstat_r+0x20>)
 800889c:	2300      	movs	r3, #0
 800889e:	4604      	mov	r4, r0
 80088a0:	4608      	mov	r0, r1
 80088a2:	4611      	mov	r1, r2
 80088a4:	602b      	str	r3, [r5, #0]
 80088a6:	f7f8 fd40 	bl	800132a <_fstat>
 80088aa:	1c43      	adds	r3, r0, #1
 80088ac:	d102      	bne.n	80088b4 <_fstat_r+0x1c>
 80088ae:	682b      	ldr	r3, [r5, #0]
 80088b0:	b103      	cbz	r3, 80088b4 <_fstat_r+0x1c>
 80088b2:	6023      	str	r3, [r4, #0]
 80088b4:	bd38      	pop	{r3, r4, r5, pc}
 80088b6:	bf00      	nop
 80088b8:	20002094 	.word	0x20002094

080088bc <_isatty_r>:
 80088bc:	b538      	push	{r3, r4, r5, lr}
 80088be:	4d06      	ldr	r5, [pc, #24]	@ (80088d8 <_isatty_r+0x1c>)
 80088c0:	2300      	movs	r3, #0
 80088c2:	4604      	mov	r4, r0
 80088c4:	4608      	mov	r0, r1
 80088c6:	602b      	str	r3, [r5, #0]
 80088c8:	f7f8 fd34 	bl	8001334 <_isatty>
 80088cc:	1c43      	adds	r3, r0, #1
 80088ce:	d102      	bne.n	80088d6 <_isatty_r+0x1a>
 80088d0:	682b      	ldr	r3, [r5, #0]
 80088d2:	b103      	cbz	r3, 80088d6 <_isatty_r+0x1a>
 80088d4:	6023      	str	r3, [r4, #0]
 80088d6:	bd38      	pop	{r3, r4, r5, pc}
 80088d8:	20002094 	.word	0x20002094

080088dc <_init>:
 80088dc:	b5f8      	push	{r3, r4, r5, r6, r7, lr}
 80088de:	bf00      	nop
 80088e0:	bcf8      	pop	{r3, r4, r5, r6, r7}
 80088e2:	bc08      	pop	{r3}
 80088e4:	469e      	mov	lr, r3
 80088e6:	4770      	bx	lr

080088e8 <_fini>:
 80088e8:	b5f8      	push	{r3, r4, r5, r6, r7, lr}
 80088ea:	bf00      	nop
 80088ec:	bcf8      	pop	{r3, r4, r5, r6, r7}
 80088ee:	bc08      	pop	{r3}
 80088f0:	469e      	mov	lr, r3
 80088f2:	4770      	bx	lr
